(lp0
(lp1
cnumpy.core.multiarray
scalar
p2
(cnumpy
dtype
p3
(S'u2'
p4
I0
I1
tp5
Rp6
(I3
S'<'
p7
NNNI-1
I-1
I0
tp8
bS'W\x0b'
p9
tp10
Rp11
ag2
(g6
S'X\x0b'
p12
tp13
Rp14
ag2
(g6
S'Y\x0b'
p15
tp16
Rp17
ag2
(g6
S'Z\x0b'
p18
tp19
Rp20
ag2
(g6
S'[\x0b'
p21
tp22
Rp23
ag2
(g6
S'\\\x0b'
p24
tp25
Rp26
ag2
(g6
S'l\x0b'
p27
tp28
Rp29
ag2
(g6
S'm\x0b'
p30
tp31
Rp32
ag2
(g6
S'n\x0b'
p33
tp34
Rp35
ag2
(g6
S'o\x0b'
p36
tp37
Rp38
ag2
(g6
S'p\x0b'
p39
tp40
Rp41
ag2
(g6
S'q\x0b'
p42
tp43
Rp44
ag2
(g6
S'\x81\x0b'
p45
tp46
Rp47
ag2
(g6
S'\x82\x0b'
p48
tp49
Rp50
ag2
(g6
S'\x83\x0b'
p51
tp52
Rp53
ag2
(g6
S'\x84\x0b'
p54
tp55
Rp56
ag2
(g6
S'\x85\x0b'
p57
tp58
Rp59
ag2
(g6
S'\x86\x0b'
p60
tp61
Rp62
ag2
(g6
S'\x87\x0b'
p63
tp64
Rp65
ag2
(g6
S'\x88\x0b'
p66
tp67
Rp68
ag2
(g6
S'\x89\x0b'
p69
tp70
Rp71
ag2
(g6
S'\x99\x0b'
p72
tp73
Rp74
ag2
(g6
S'\x9a\x0b'
p75
tp76
Rp77
ag2
(g6
S'\x9b\x0b'
p78
tp79
Rp80
ag2
(g6
S'\x9c\x0b'
p81
tp82
Rp83
ag2
(g6
S'\x9d\x0b'
p84
tp85
Rp86
ag2
(g6
S'\x9e\x0b'
p87
tp88
Rp89
ag2
(g6
S'\x9f\x0b'
p90
tp91
Rp92
ag2
(g6
S'\xa0\x0b'
p93
tp94
Rp95
ag2
(g6
S'\xa1\x0b'
p96
tp97
Rp98
ag2
(g6
S'\xa2\x0b'
p99
tp100
Rp101
ag2
(g6
S'\xa3\x0b'
p102
tp103
Rp104
ag2
(g6
S'\xb3\x0b'
p105
tp106
Rp107
ag2
(g6
S'\xb4\x0b'
p108
tp109
Rp110
ag2
(g6
S'\xb5\x0b'
p111
tp112
Rp113
ag2
(g6
S'\xb6\x0b'
p114
tp115
Rp116
ag2
(g6
S'\xb7\x0b'
p117
tp118
Rp119
ag2
(g6
S'\xb8\x0b'
p120
tp121
Rp122
ag2
(g6
S'\xb9\x0b'
p123
tp124
Rp125
ag2
(g6
S'\xba\x0b'
p126
tp127
Rp128
ag2
(g6
S'\xbb\x0b'
p129
tp130
Rp131
ag2
(g6
S'\xbc\x0b'
p132
tp133
Rp134
ag2
(g6
S'\xbd\x0b'
p135
tp136
Rp137
ag2
(g6
S'\xbe\x0b'
p138
tp139
Rp140
ag2
(g6
S'\xcc\x0b'
p141
tp142
Rp143
ag2
(g6
S'\xcd\x0b'
p144
tp145
Rp146
ag2
(g6
S'\xce\x0b'
p147
tp148
Rp149
ag2
(g6
S'\xcf\x0b'
p150
tp151
Rp152
ag2
(g6
S'\xd0\x0b'
p153
tp154
Rp155
ag2
(g6
S'\xd1\x0b'
p156
tp157
Rp158
ag2
(g6
S'\xd2\x0b'
p159
tp160
Rp161
ag2
(g6
S'\xd3\x0b'
p162
tp163
Rp164
ag2
(g6
S'\xd4\x0b'
p165
tp166
Rp167
ag2
(g6
S'\xd5\x0b'
p168
tp169
Rp170
ag2
(g6
S'\xd6\x0b'
p171
tp172
Rp173
ag2
(g6
S'\xd7\x0b'
p174
tp175
Rp176
ag2
(g6
S'\xd8\x0b'
p177
tp178
Rp179
ag2
(g6
S'\xe4\x0b'
p180
tp181
Rp182
ag2
(g6
S'\xe5\x0b'
p183
tp184
Rp185
ag2
(g6
S'\xe6\x0b'
p186
tp187
Rp188
ag2
(g6
S'\xe7\x0b'
p189
tp190
Rp191
ag2
(g6
S'\xe8\x0b'
p192
tp193
Rp194
ag2
(g6
S'\xe9\x0b'
p195
tp196
Rp197
ag2
(g6
S'\xea\x0b'
p198
tp199
Rp200
ag2
(g6
S'\xeb\x0b'
p201
tp202
Rp203
ag2
(g6
S'\xec\x0b'
p204
tp205
Rp206
ag2
(g6
S'\xed\x0b'
p207
tp208
Rp209
ag2
(g6
S'\xee\x0b'
p210
tp211
Rp212
ag2
(g6
S'\xef\x0b'
p213
tp214
Rp215
ag2
(g6
S'\xf0\x0b'
p216
tp217
Rp218
ag2
(g6
S'\xfc\x0b'
p219
tp220
Rp221
ag2
(g6
S'\xfd\x0b'
p222
tp223
Rp224
ag2
(g6
S'\xfe\x0b'
p225
tp226
Rp227
ag2
(g6
S'\xff\x0b'
p228
tp229
Rp230
ag2
(g6
S'\x00\x0c'
p231
tp232
Rp233
ag2
(g6
S'\x01\x0c'
p234
tp235
Rp236
ag2
(g6
S'\x02\x0c'
p237
tp238
Rp239
ag2
(g6
S'\x03\x0c'
p240
tp241
Rp242
ag2
(g6
S'\x04\x0c'
p243
tp244
Rp245
ag2
(g6
S'\x05\x0c'
p246
tp247
Rp248
ag2
(g6
S'\x06\x0c'
p249
tp250
Rp251
ag2
(g6
S'\x07\x0c'
p252
tp253
Rp254
ag2
(g6
S'\x0f\x0c'
p255
tp256
Rp257
ag2
(g6
S'\x10\x0c'
p258
tp259
Rp260
ag2
(g6
S'\x11\x0c'
p261
tp262
Rp263
ag2
(g6
S'\x12\x0c'
p264
tp265
Rp266
ag2
(g6
S'\x13\x0c'
p267
tp268
Rp269
ag2
(g6
S'\x14\x0c'
p270
tp271
Rp272
ag2
(g6
S'\x15\x0c'
p273
tp274
Rp275
ag2
(g6
S'\x16\x0c'
p276
tp277
Rp278
ag2
(g6
S'\x17\x0c'
p279
tp280
Rp281
ag2
(g6
S'\x18\x0c'
p282
tp283
Rp284
ag2
(g6
S'\x19\x0c'
p285
tp286
Rp287
ag2
(g6
S'\x1f\x0c'
p288
tp289
Rp290
ag2
(g6
S' \x0c'
p291
tp292
Rp293
ag2
(g6
S'!\x0c'
p294
tp295
Rp296
ag2
(g6
S'"\x0c'
p297
tp298
Rp299
ag2
(g6
S'#\x0c'
p300
tp301
Rp302
ag2
(g6
S'$\x0c'
p303
tp304
Rp305
ag2
(g6
S'%\x0c'
p306
tp307
Rp308
ag2
(g6
S'&\x0c'
p309
tp310
Rp311
ag2
(g6
S"'\x0c"
p312
tp313
Rp314
ag2
(g6
S'(\x0c'
p315
tp316
Rp317
ag2
(g6
S')\x0c'
p318
tp319
Rp320
ag2
(g6
S'/\x0c'
p321
tp322
Rp323
ag2
(g6
S'0\x0c'
p324
tp325
Rp326
ag2
(g6
S'1\x0c'
p327
tp328
Rp329
ag2
(g6
S'2\x0c'
p330
tp331
Rp332
ag2
(g6
S'3\x0c'
p333
tp334
Rp335
ag2
(g6
S'4\x0c'
p336
tp337
Rp338
ag2
(g6
S'5\x0c'
p339
tp340
Rp341
ag2
(g6
S'6\x0c'
p342
tp343
Rp344
ag2
(g6
S'7\x0c'
p345
tp346
Rp347
ag2
(g6
S'8\x0c'
p348
tp349
Rp350
ag2
(g6
S'9\x0c'
p351
tp352
Rp353
ag2
(g6
S':\x0c'
p354
tp355
Rp356
ag2
(g6
S';\x0c'
p357
tp358
Rp359
ag2
(g6
S'<\x0c'
p360
tp361
Rp362
ag2
(g6
S'=\x0c'
p363
tp364
Rp365
ag2
(g6
S'>\x0c'
p366
tp367
Rp368
ag2
(g6
S'?\x0c'
p369
tp370
Rp371
ag2
(g6
S'@\x0c'
p372
tp373
Rp374
ag2
(g6
S'A\x0c'
p375
tp376
Rp377
ag2
(g6
S'B\x0c'
p378
tp379
Rp380
ag2
(g6
S'C\x0c'
p381
tp382
Rp383
ag2
(g6
S'D\x0c'
p384
tp385
Rp386
ag2
(g6
S'E\x0c'
p387
tp388
Rp389
ag2
(g6
S'F\x0c'
p390
tp391
Rp392
ag2
(g6
S'G\x0c'
p393
tp394
Rp395
ag2
(g6
S'H\x0c'
p396
tp397
Rp398
ag2
(g6
S'I\x0c'
p399
tp400
Rp401
ag2
(g6
S'J\x0c'
p402
tp403
Rp404
ag2
(g6
S'K\x0c'
p405
tp406
Rp407
ag2
(g6
S'L\x0c'
p408
tp409
Rp410
ag2
(g6
S'M\x0c'
p411
tp412
Rp413
ag2
(g6
S'N\x0c'
p414
tp415
Rp416
ag2
(g6
S'O\x0c'
p417
tp418
Rp419
ag2
(g6
S'P\x0c'
p420
tp421
Rp422
ag2
(g6
S'Q\x0c'
p423
tp424
Rp425
ag2
(g6
S'R\x0c'
p426
tp427
Rp428
ag2
(g6
S'S\x0c'
p429
tp430
Rp431
ag2
(g6
S'T\x0c'
p432
tp433
Rp434
ag2
(g6
S'U\x0c'
p435
tp436
Rp437
ag2
(g6
S'V\x0c'
p438
tp439
Rp440
ag2
(g6
S'W\x0c'
p441
tp442
Rp443
ag2
(g6
S'\xeb\r'
p444
tp445
Rp446
ag2
(g6
S'\xfb\r'
p447
tp448
Rp449
ag2
(g6
S'\xfc\r'
p450
tp451
Rp452
ag2
(g6
S'\x0b\x0e'
p453
tp454
Rp455
ag2
(g6
S'\x0c\x0e'
p456
tp457
Rp458
ag2
(g6
S'\x1c\x0e'
p459
tp460
Rp461
ag2
(g6
S'\x1d\x0e'
p462
tp463
Rp464
ag2
(g6
S'\x1e\x0e'
p465
tp466
Rp467
ag2
(g6
S'.\x0e'
p468
tp469
Rp470
ag2
(g6
S'/\x0e'
p471
tp472
Rp473
ag2
(g6
S'0\x0e'
p474
tp475
Rp476
ag2
(g6
S'1\x0e'
p477
tp478
Rp479
ag2
(g6
S'2\x0e'
p480
tp481
Rp482
ag2
(g6
S'A\x0e'
p483
tp484
Rp485
ag2
(g6
S'B\x0e'
p486
tp487
Rp488
ag2
(g6
S'C\x0e'
p489
tp490
Rp491
ag2
(g6
S'D\x0e'
p492
tp493
Rp494
ag2
(g6
S'E\x0e'
p495
tp496
Rp497
ag2
(g6
S'S\x0e'
p498
tp499
Rp500
ag2
(g6
S'T\x0e'
p501
tp502
Rp503
ag2
(g6
S'U\x0e'
p504
tp505
Rp506
ag2
(g6
S'V\x0e'
p507
tp508
Rp509
ag2
(g6
S'W\x0e'
p510
tp511
Rp512
ag2
(g6
S'X\x0e'
p513
tp514
Rp515
ag2
(g6
S'e\x0e'
p516
tp517
Rp518
ag2
(g6
S'f\x0e'
p519
tp520
Rp521
ag2
(g6
S'g\x0e'
p522
tp523
Rp524
ag2
(g6
S'h\x0e'
p525
tp526
Rp527
ag2
(g6
S'i\x0e'
p528
tp529
Rp530
ag2
(g6
S'j\x0e'
p531
tp532
Rp533
ag2
(g6
S'u\x0e'
p534
tp535
Rp536
ag2
(g6
S'v\x0e'
p537
tp538
Rp539
ag2
(g6
S'w\x0e'
p540
tp541
Rp542
ag2
(g6
S'x\x0e'
p543
tp544
Rp545
ag2
(g6
S'y\x0e'
p546
tp547
Rp548
ag2
(g6
S'z\x0e'
p549
tp550
Rp551
ag2
(g6
S'{\x0e'
p552
tp553
Rp554
ag2
(g6
S'\x82\x0e'
p555
tp556
Rp557
ag2
(g6
S'\x83\x0e'
p558
tp559
Rp560
ag2
(g6
S'\x84\x0e'
p561
tp562
Rp563
ag2
(g6
S'\x85\x0e'
p564
tp565
Rp566
ag2
(g6
S'\x86\x0e'
p567
tp568
Rp569
ag2
(g6
S'\x87\x0e'
p570
tp571
Rp572
ag2
(g6
S'\x88\x0e'
p573
tp574
Rp575
ag2
(g6
S'\x8e\x0e'
p576
tp577
Rp578
ag2
(g6
S'\x8f\x0e'
p579
tp580
Rp581
ag2
(g6
S'\x90\x0e'
p582
tp583
Rp584
ag2
(g6
S'\x91\x0e'
p585
tp586
Rp587
ag2
(g6
S'\x92\x0e'
p588
tp589
Rp590
ag2
(g6
S'\x96\x0e'
p591
tp592
Rp593
ag2
(g6
S'\x97\x0e'
p594
tp595
Rp596
ag2
(g6
S'\x98\x0e'
p597
tp598
Rp599
ag2
(g6
S'\x99\x0e'
p600
tp601
Rp602
ag2
(g6
S'\x9a\x0e'
p603
tp604
Rp605
ag2
(g6
S'\x9b\x0e'
p606
tp607
Rp608
ag2
(g6
S'\x9c\x0e'
p609
tp610
Rp611
ag2
(g6
S'\x9d\x0e'
p612
tp613
Rp614
ag2
(g6
S'\x9e\x0e'
p615
tp616
Rp617
ag2
(g6
S'\x9f\x0e'
p618
tp619
Rp620
ag2
(g6
S'\xa0\x0e'
p621
tp622
Rp623
ag2
(g6
S'\xa1\x0e'
p624
tp625
Rp626
ag2
(g6
S'\xa2\x0e'
p627
tp628
Rp629
ag2
(g6
S'\xa3\x0e'
p630
tp631
Rp632
ag2
(g6
S'\xa4\x0e'
p633
tp634
Rp635
ag2
(g6
S'\xa5\x0e'
p636
tp637
Rp638
ag2
(g6
S'\xa6\x0e'
p639
tp640
Rp641
ag2
(g6
S'\xa7\x0e'
p642
tp643
Rp644
ag2
(g6
S'\xa8\x0e'
p645
tp646
Rp647
ag2
(g6
S'\xa9\x0e'
p648
tp649
Rp650
ag2
(g6
S'\xaa\x0e'
p651
tp652
Rp653
ag2
(g6
S'\xab\x0e'
p654
tp655
Rp656
ag2
(g6
S'\xac\x0e'
p657
tp658
Rp659
ag2
(g6
S'\xad\x0e'
p660
tp661
Rp662
ag2
(g6
S'\xae\x0e'
p663
tp664
Rp665
aa(lp666
g2
(g6
S'\x01\x00'
p667
tp668
Rp669
ag2
(g6
S'\x04\x00'
p670
tp671
Rp672
ag2
(g6
S'\x05\x00'
p673
tp674
Rp675
ag2
(g6
S'\t\x00'
p676
tp677
Rp678
ag2
(g6
S'\n\x00'
p679
tp680
Rp681
ag2
(g6
S'\x0b\x00'
p682
tp683
Rp684
ag2
(g6
S'\x10\x00'
p685
tp686
Rp687
ag2
(g6
S'\x11\x00'
p688
tp689
Rp690
ag2
(g6
S'\x12\x00'
p691
tp692
Rp693
ag2
(g6
S'\x13\x00'
p694
tp695
Rp696
ag2
(g6
S'\x14\x00'
p697
tp698
Rp699
ag2
(g6
S'\x1a\x00'
p700
tp701
Rp702
ag2
(g6
S'\x1b\x00'
p703
tp704
Rp705
ag2
(g6
S'\x1c\x00'
p706
tp707
Rp708
ag2
(g6
S'\x1d\x00'
p709
tp710
Rp711
ag2
(g6
S'\x1e\x00'
p712
tp713
Rp714
ag2
(g6
S'\x1f\x00'
p715
tp716
Rp717
ag2
(g6
S'&\x00'
p718
tp719
Rp720
ag2
(g6
S"'\x00"
p721
tp722
Rp723
ag2
(g6
S'(\x00'
p724
tp725
Rp726
ag2
(g6
S')\x00'
p727
tp728
Rp729
ag2
(g6
S'*\x00'
p730
tp731
Rp732
ag2
(g6
S'+\x00'
p733
tp734
Rp735
ag2
(g6
S'2\x00'
p736
tp737
Rp738
ag2
(g6
S'3\x00'
p739
tp740
Rp741
ag2
(g6
S'4\x00'
p742
tp743
Rp744
ag2
(g6
S'5\x00'
p745
tp746
Rp747
ag2
(g6
S'6\x00'
p748
tp749
Rp750
ag2
(g6
S'7\x00'
p751
tp752
Rp753
ag2
(g6
S'8\x00'
p754
tp755
Rp756
ag2
(g6
S'@\x00'
p757
tp758
Rp759
ag2
(g6
S'A\x00'
p760
tp761
Rp762
ag2
(g6
S'B\x00'
p763
tp764
Rp765
ag2
(g6
S'C\x00'
p766
tp767
Rp768
ag2
(g6
S'D\x00'
p769
tp770
Rp771
ag2
(g6
S'E\x00'
p772
tp773
Rp774
ag2
(g6
S'F\x00'
p775
tp776
Rp777
ag2
(g6
S'G\x00'
p778
tp779
Rp780
ag2
(g6
S'P\x00'
p781
tp782
Rp783
ag2
(g6
S'Q\x00'
p784
tp785
Rp786
ag2
(g6
S'R\x00'
p787
tp788
Rp789
ag2
(g6
S'S\x00'
p790
tp791
Rp792
ag2
(g6
S'T\x00'
p793
tp794
Rp795
ag2
(g6
S'U\x00'
p796
tp797
Rp798
ag2
(g6
S'V\x00'
p799
tp800
Rp801
ag2
(g6
S'W\x00'
p802
tp803
Rp804
ag2
(g6
S'X\x00'
p805
tp806
Rp807
ag2
(g6
S'a\x00'
p808
tp809
Rp810
ag2
(g6
S'b\x00'
p811
tp812
Rp813
ag2
(g6
S'c\x00'
p814
tp815
Rp816
ag2
(g6
S'd\x00'
p817
tp818
Rp819
ag2
(g6
S'e\x00'
p820
tp821
Rp822
ag2
(g6
S'f\x00'
p823
tp824
Rp825
ag2
(g6
S'g\x00'
p826
tp827
Rp828
ag2
(g6
S'h\x00'
p829
tp830
Rp831
ag2
(g6
S'i\x00'
p832
tp833
Rp834
ag2
(g6
S'j\x00'
p835
tp836
Rp837
ag2
(g6
S's\x00'
p838
tp839
Rp840
ag2
(g6
S't\x00'
p841
tp842
Rp843
ag2
(g6
S'u\x00'
p844
tp845
Rp846
ag2
(g6
S'v\x00'
p847
tp848
Rp849
ag2
(g6
S'w\x00'
p850
tp851
Rp852
ag2
(g6
S'x\x00'
p853
tp854
Rp855
ag2
(g6
S'y\x00'
p856
tp857
Rp858
ag2
(g6
S'z\x00'
p859
tp860
Rp861
ag2
(g6
S'{\x00'
p862
tp863
Rp864
ag2
(g6
S'|\x00'
p865
tp866
Rp867
ag2
(g6
S'}\x00'
p868
tp869
Rp870
ag2
(g6
S'\x86\x00'
p871
tp872
Rp873
ag2
(g6
S'\x87\x00'
p874
tp875
Rp876
ag2
(g6
S'\x88\x00'
p877
tp878
Rp879
ag2
(g6
S'\x89\x00'
p880
tp881
Rp882
ag2
(g6
S'\x8a\x00'
p883
tp884
Rp885
ag2
(g6
S'\x8b\x00'
p886
tp887
Rp888
ag2
(g6
S'\x8c\x00'
p889
tp890
Rp891
ag2
(g6
S'\x8d\x00'
p892
tp893
Rp894
ag2
(g6
S'\x8e\x00'
p895
tp896
Rp897
ag2
(g6
S'\x8f\x00'
p898
tp899
Rp900
ag2
(g6
S'\x9a\x00'
p901
tp902
Rp903
ag2
(g6
S'\x9b\x00'
p904
tp905
Rp906
ag2
(g6
S'\x9c\x00'
p907
tp908
Rp909
ag2
(g6
S'\x9d\x00'
p910
tp911
Rp912
ag2
(g6
S'\xae\x00'
p913
tp914
Rp915
ag2
(g6
S'\xaf\x00'
p916
tp917
Rp918
ag2
(g6
S'\xb0\x00'
p919
tp920
Rp921
ag2
(g6
S'\xa5\x02'
p922
tp923
Rp924
ag2
(g6
S'\xa6\x02'
p925
tp926
Rp927
ag2
(g6
S'\xa7\x02'
p928
tp929
Rp930
ag2
(g6
S'\xab\x02'
p931
tp932
Rp933
ag2
(g6
S'\xac\x02'
p934
tp935
Rp936
ag2
(g6
S'\xad\x02'
p937
tp938
Rp939
ag2
(g6
S'\xae\x02'
p940
tp941
Rp942
ag2
(g6
S'\xb3\x02'
p943
tp944
Rp945
ag2
(g6
S'\xb4\x02'
p946
tp947
Rp948
ag2
(g6
S'\xb5\x02'
p949
tp950
Rp951
ag2
(g6
S'\xb6\x02'
p952
tp953
Rp954
ag2
(g6
S'\xb7\x02'
p955
tp956
Rp957
ag2
(g6
S'\xbd\x02'
p958
tp959
Rp960
ag2
(g6
S'\xbe\x02'
p961
tp962
Rp963
ag2
(g6
S'\xbf\x02'
p964
tp965
Rp966
ag2
(g6
S'\xc0\x02'
p967
tp968
Rp969
ag2
(g6
S'\xc1\x02'
p970
tp971
Rp972
ag2
(g6
S'\xc2\x02'
p973
tp974
Rp975
ag2
(g6
S'\xc9\x02'
p976
tp977
Rp978
ag2
(g6
S'\xca\x02'
p979
tp980
Rp981
ag2
(g6
S'\xcb\x02'
p982
tp983
Rp984
ag2
(g6
S'\xcc\x02'
p985
tp986
Rp987
ag2
(g6
S'\xcd\x02'
p988
tp989
Rp990
ag2
(g6
S'\xce\x02'
p991
tp992
Rp993
ag2
(g6
S'\xd6\x02'
p994
tp995
Rp996
ag2
(g6
S'\xd7\x02'
p997
tp998
Rp999
ag2
(g6
S'\xd8\x02'
p1000
tp1001
Rp1002
ag2
(g6
S'\xd9\x02'
p1003
tp1004
Rp1005
ag2
(g6
S'\xda\x02'
p1006
tp1007
Rp1008
ag2
(g6
S'\xdb\x02'
p1009
tp1010
Rp1011
ag2
(g6
S'\xdc\x02'
p1012
tp1013
Rp1014
ag2
(g6
S'\xe5\x02'
p1015
tp1016
Rp1017
ag2
(g6
S'\xe6\x02'
p1018
tp1019
Rp1020
ag2
(g6
S'\xe7\x02'
p1021
tp1022
Rp1023
ag2
(g6
S'\xe8\x02'
p1024
tp1025
Rp1026
ag2
(g6
S'\xe9\x02'
p1027
tp1028
Rp1029
ag2
(g6
S'\xea\x02'
p1030
tp1031
Rp1032
ag2
(g6
S'\xeb\x02'
p1033
tp1034
Rp1035
ag2
(g6
S'\xec\x02'
p1036
tp1037
Rp1038
ag2
(g6
S'\xf6\x02'
p1039
tp1040
Rp1041
ag2
(g6
S'\xf7\x02'
p1042
tp1043
Rp1044
ag2
(g6
S'\xf8\x02'
p1045
tp1046
Rp1047
ag2
(g6
S'\xf9\x02'
p1048
tp1049
Rp1050
ag2
(g6
S'\xfa\x02'
p1051
tp1052
Rp1053
ag2
(g6
S'\xfb\x02'
p1054
tp1055
Rp1056
ag2
(g6
S'\xfc\x02'
p1057
tp1058
Rp1059
ag2
(g6
S'\xfd\x02'
p1060
tp1061
Rp1062
ag2
(g6
S'\xfe\x02'
p1063
tp1064
Rp1065
ag2
(g6
S'\x08\x03'
p1066
tp1067
Rp1068
ag2
(g6
S'\t\x03'
p1069
tp1070
Rp1071
ag2
(g6
S'\n\x03'
p1072
tp1073
Rp1074
ag2
(g6
S'\x0b\x03'
p1075
tp1076
Rp1077
ag2
(g6
S'\x0c\x03'
p1078
tp1079
Rp1080
ag2
(g6
S'\r\x03'
p1081
tp1082
Rp1083
ag2
(g6
S'\x0e\x03'
p1084
tp1085
Rp1086
ag2
(g6
S'\x0f\x03'
p1087
tp1088
Rp1089
ag2
(g6
S'\x10\x03'
p1090
tp1091
Rp1092
ag2
(g6
S'\x1a\x03'
p1093
tp1094
Rp1095
ag2
(g6
S'\x1b\x03'
p1096
tp1097
Rp1098
ag2
(g6
S'\x1c\x03'
p1099
tp1100
Rp1101
ag2
(g6
S'\x1d\x03'
p1102
tp1103
Rp1104
ag2
(g6
S'\x1e\x03'
p1105
tp1106
Rp1107
ag2
(g6
S'\x1f\x03'
p1108
tp1109
Rp1110
ag2
(g6
S' \x03'
p1111
tp1112
Rp1113
ag2
(g6
S'!\x03'
p1114
tp1115
Rp1116
ag2
(g6
S'"\x03'
p1117
tp1118
Rp1119
ag2
(g6
S'+\x03'
p1120
tp1121
Rp1122
ag2
(g6
S',\x03'
p1123
tp1124
Rp1125
ag2
(g6
S'-\x03'
p1126
tp1127
Rp1128
ag2
(g6
S'.\x03'
p1129
tp1130
Rp1131
ag2
(g6
S'/\x03'
p1132
tp1133
Rp1134
ag2
(g6
S'0\x03'
p1135
tp1136
Rp1137
ag2
(g6
S'1\x03'
p1138
tp1139
Rp1140
ag2
(g6
S'2\x03'
p1141
tp1142
Rp1143
ag2
(g6
S'3\x03'
p1144
tp1145
Rp1146
ag2
(g6
S'=\x03'
p1147
tp1148
Rp1149
ag2
(g6
S'>\x03'
p1150
tp1151
Rp1152
ag2
(g6
S'?\x03'
p1153
tp1154
Rp1155
ag2
(g6
S'@\x03'
p1156
tp1157
Rp1158
ag2
(g6
S'A\x03'
p1159
tp1160
Rp1161
ag2
(g6
S'M\x03'
p1162
tp1163
Rp1164
ag2
(g6
S'N\x03'
p1165
tp1166
Rp1167
ag2
(g6
S'G\x05'
p1168
tp1169
Rp1170
ag2
(g6
S'J\x05'
p1171
tp1172
Rp1173
ag2
(g6
S'K\x05'
p1174
tp1175
Rp1176
ag2
(g6
S'L\x05'
p1177
tp1178
Rp1179
ag2
(g6
S'P\x05'
p1180
tp1181
Rp1182
ag2
(g6
S'Q\x05'
p1183
tp1184
Rp1185
ag2
(g6
S'R\x05'
p1186
tp1187
Rp1188
ag2
(g6
S'W\x05'
p1189
tp1190
Rp1191
ag2
(g6
S'X\x05'
p1192
tp1193
Rp1194
ag2
(g6
S'Y\x05'
p1195
tp1196
Rp1197
ag2
(g6
S'Z\x05'
p1198
tp1199
Rp1200
ag2
(g6
S'`\x05'
p1201
tp1202
Rp1203
ag2
(g6
S'a\x05'
p1204
tp1205
Rp1206
ag2
(g6
S'b\x05'
p1207
tp1208
Rp1209
ag2
(g6
S'c\x05'
p1210
tp1211
Rp1212
ag2
(g6
S'd\x05'
p1213
tp1214
Rp1215
ag2
(g6
S'k\x05'
p1216
tp1217
Rp1218
ag2
(g6
S'l\x05'
p1219
tp1220
Rp1221
ag2
(g6
S'm\x05'
p1222
tp1223
Rp1224
ag2
(g6
S'n\x05'
p1225
tp1226
Rp1227
ag2
(g6
S'o\x05'
p1228
tp1229
Rp1230
ag2
(g6
S'p\x05'
p1231
tp1232
Rp1233
ag2
(g6
S'w\x05'
p1234
tp1235
Rp1236
ag2
(g6
S'x\x05'
p1237
tp1238
Rp1239
ag2
(g6
S'y\x05'
p1240
tp1241
Rp1242
ag2
(g6
S'z\x05'
p1243
tp1244
Rp1245
ag2
(g6
S'{\x05'
p1246
tp1247
Rp1248
ag2
(g6
S'|\x05'
p1249
tp1250
Rp1251
ag2
(g6
S'}\x05'
p1252
tp1253
Rp1254
ag2
(g6
S'\x85\x05'
p1255
tp1256
Rp1257
ag2
(g6
S'\x86\x05'
p1258
tp1259
Rp1260
ag2
(g6
S'\x87\x05'
p1261
tp1262
Rp1263
ag2
(g6
S'\x88\x05'
p1264
tp1265
Rp1266
ag2
(g6
S'\x89\x05'
p1267
tp1268
Rp1269
ag2
(g6
S'\x8a\x05'
p1270
tp1271
Rp1272
ag2
(g6
S'\x8b\x05'
p1273
tp1274
Rp1275
ag2
(g6
S'\x93\x05'
p1276
tp1277
Rp1278
ag2
(g6
S'\x94\x05'
p1279
tp1280
Rp1281
ag2
(g6
S'\x95\x05'
p1282
tp1283
Rp1284
ag2
(g6
S'\x96\x05'
p1285
tp1286
Rp1287
ag2
(g6
S'\x97\x05'
p1288
tp1289
Rp1290
ag2
(g6
S'\x98\x05'
p1291
tp1292
Rp1293
ag2
(g6
S'\x99\x05'
p1294
tp1295
Rp1296
ag2
(g6
S'\xa1\x05'
p1297
tp1298
Rp1299
ag2
(g6
S'\xa2\x05'
p1300
tp1301
Rp1302
ag2
(g6
S'\xa3\x05'
p1303
tp1304
Rp1305
ag2
(g6
S'\xa4\x05'
p1306
tp1307
Rp1308
ag2
(g6
S'\xa5\x05'
p1309
tp1310
Rp1311
ag2
(g6
S'\xa6\x05'
p1312
tp1313
Rp1314
ag2
(g6
S'\xa7\x05'
p1315
tp1316
Rp1317
ag2
(g6
S'\xa8\x05'
p1318
tp1319
Rp1320
ag2
(g6
S'\xb0\x05'
p1321
tp1322
Rp1323
ag2
(g6
S'\xb1\x05'
p1324
tp1325
Rp1326
ag2
(g6
S'\xb2\x05'
p1327
tp1328
Rp1329
ag2
(g6
S'\xb3\x05'
p1330
tp1331
Rp1332
ag2
(g6
S'\xb4\x05'
p1333
tp1334
Rp1335
ag2
(g6
S'\xb5\x05'
p1336
tp1337
Rp1338
ag2
(g6
S'\xb6\x05'
p1339
tp1340
Rp1341
ag2
(g6
S'\xb7\x05'
p1342
tp1343
Rp1344
ag2
(g6
S'\xb8\x05'
p1345
tp1346
Rp1347
ag2
(g6
S'\xbf\x05'
p1348
tp1349
Rp1350
ag2
(g6
S'\xc0\x05'
p1351
tp1352
Rp1353
ag2
(g6
S'\xc1\x05'
p1354
tp1355
Rp1356
ag2
(g6
S'\xc2\x05'
p1357
tp1358
Rp1359
ag2
(g6
S'\xc3\x05'
p1360
tp1361
Rp1362
ag2
(g6
S'\xc4\x05'
p1363
tp1364
Rp1365
ag2
(g6
S'\xc5\x05'
p1366
tp1367
Rp1368
ag2
(g6
S'\xc6\x05'
p1369
tp1370
Rp1371
ag2
(g6
S'\xc7\x05'
p1372
tp1373
Rp1374
ag2
(g6
S'\xce\x05'
p1375
tp1376
Rp1377
ag2
(g6
S'\xcf\x05'
p1378
tp1379
Rp1380
ag2
(g6
S'\xd0\x05'
p1381
tp1382
Rp1383
ag2
(g6
S'\xd1\x05'
p1384
tp1385
Rp1386
ag2
(g6
S'\xd2\x05'
p1387
tp1388
Rp1389
ag2
(g6
S'\xd3\x05'
p1390
tp1391
Rp1392
ag2
(g6
S'\xd4\x05'
p1393
tp1394
Rp1395
ag2
(g6
S'\xd5\x05'
p1396
tp1397
Rp1398
ag2
(g6
S'\xa5\x07'
p1399
tp1400
Rp1401
ag2
(g6
S'\xa7\x07'
p1402
tp1403
Rp1404
ag2
(g6
S'\xa8\x07'
p1405
tp1406
Rp1407
ag2
(g6
S'\xa9\x07'
p1408
tp1409
Rp1410
ag2
(g6
S'\xaa\x07'
p1411
tp1412
Rp1413
ag2
(g6
S'\xae\x07'
p1414
tp1415
Rp1416
ag2
(g6
S'\xaf\x07'
p1417
tp1418
Rp1419
ag2
(g6
S'\xb0\x07'
p1420
tp1421
Rp1422
ag2
(g6
S'\xb1\x07'
p1423
tp1424
Rp1425
ag2
(g6
S'\xb2\x07'
p1426
tp1427
Rp1428
ag2
(g6
S'\xb3\x07'
p1429
tp1430
Rp1431
ag2
(g6
S'\xb8\x07'
p1432
tp1433
Rp1434
ag2
(g6
S'\xb9\x07'
p1435
tp1436
Rp1437
ag2
(g6
S'\xba\x07'
p1438
tp1439
Rp1440
ag2
(g6
S'\xbb\x07'
p1441
tp1442
Rp1443
ag2
(g6
S'\xbc\x07'
p1444
tp1445
Rp1446
ag2
(g6
S'\xbd\x07'
p1447
tp1448
Rp1449
ag2
(g6
S'\xbe\x07'
p1450
tp1451
Rp1452
ag2
(g6
S'\xc4\x07'
p1453
tp1454
Rp1455
ag2
(g6
S'\xc5\x07'
p1456
tp1457
Rp1458
ag2
(g6
S'\xc6\x07'
p1459
tp1460
Rp1461
ag2
(g6
S'\xc7\x07'
p1462
tp1463
Rp1464
ag2
(g6
S'\xc8\x07'
p1465
tp1466
Rp1467
ag2
(g6
S'\xc9\x07'
p1468
tp1469
Rp1470
ag2
(g6
S'\xca\x07'
p1471
tp1472
Rp1473
ag2
(g6
S'\xcb\x07'
p1474
tp1475
Rp1476
ag2
(g6
S'\xd2\x07'
p1477
tp1478
Rp1479
ag2
(g6
S'\xd3\x07'
p1480
tp1481
Rp1482
ag2
(g6
S'\xd4\x07'
p1483
tp1484
Rp1485
ag2
(g6
S'\xd5\x07'
p1486
tp1487
Rp1488
ag2
(g6
S'\xd6\x07'
p1489
tp1490
Rp1491
ag2
(g6
S'\xd7\x07'
p1492
tp1493
Rp1494
ag2
(g6
S'\xd8\x07'
p1495
tp1496
Rp1497
ag2
(g6
S'\xd9\x07'
p1498
tp1499
Rp1500
ag2
(g6
S'\xdf\x07'
p1501
tp1502
Rp1503
ag2
(g6
S'\xe0\x07'
p1504
tp1505
Rp1506
ag2
(g6
S'\xe1\x07'
p1507
tp1508
Rp1509
ag2
(g6
S'\xe2\x07'
p1510
tp1511
Rp1512
ag2
(g6
S'\xe3\x07'
p1513
tp1514
Rp1515
ag2
(g6
S'\xe4\x07'
p1516
tp1517
Rp1518
ag2
(g6
S'\xe5\x07'
p1519
tp1520
Rp1521
ag2
(g6
S'\xe6\x07'
p1522
tp1523
Rp1524
ag2
(g6
S'\xec\x07'
p1525
tp1526
Rp1527
ag2
(g6
S'\xed\x07'
p1528
tp1529
Rp1530
ag2
(g6
S'\xee\x07'
p1531
tp1532
Rp1533
ag2
(g6
S'\xef\x07'
p1534
tp1535
Rp1536
ag2
(g6
S'\xf0\x07'
p1537
tp1538
Rp1539
ag2
(g6
S'\xf1\x07'
p1540
tp1541
Rp1542
ag2
(g6
S'\xf2\x07'
p1543
tp1544
Rp1545
ag2
(g6
S'\xf3\x07'
p1546
tp1547
Rp1548
ag2
(g6
S'\xfa\x07'
p1549
tp1550
Rp1551
ag2
(g6
S'\xfb\x07'
p1552
tp1553
Rp1554
ag2
(g6
S'\xfc\x07'
p1555
tp1556
Rp1557
ag2
(g6
S'\xfd\x07'
p1558
tp1559
Rp1560
ag2
(g6
S'\xfe\x07'
p1561
tp1562
Rp1563
ag2
(g6
S'\xff\x07'
p1564
tp1565
Rp1566
ag2
(g6
S'\x00\x08'
p1567
tp1568
Rp1569
ag2
(g6
S'\x01\x08'
p1570
tp1571
Rp1572
ag2
(g6
S'\x02\x08'
p1573
tp1574
Rp1575
ag2
(g6
S'\t\x08'
p1576
tp1577
Rp1578
ag2
(g6
S'\n\x08'
p1579
tp1580
Rp1581
ag2
(g6
S'\x0b\x08'
p1582
tp1583
Rp1584
ag2
(g6
S'\x0c\x08'
p1585
tp1586
Rp1587
ag2
(g6
S'\r\x08'
p1588
tp1589
Rp1590
ag2
(g6
S'\x0e\x08'
p1591
tp1592
Rp1593
ag2
(g6
S'\x0f\x08'
p1594
tp1595
Rp1596
ag2
(g6
S'\x10\x08'
p1597
tp1598
Rp1599
ag2
(g6
S'\x11\x08'
p1600
tp1601
Rp1602
ag2
(g6
S'\x19\x08'
p1603
tp1604
Rp1605
ag2
(g6
S'\x1a\x08'
p1606
tp1607
Rp1608
ag2
(g6
S'\x1b\x08'
p1609
tp1610
Rp1611
ag2
(g6
S'\x1c\x08'
p1612
tp1613
Rp1614
ag2
(g6
S'\x1d\x08'
p1615
tp1616
Rp1617
ag2
(g6
S'\x1e\x08'
p1618
tp1619
Rp1620
ag2
(g6
S'\x1f\x08'
p1621
tp1622
Rp1623
ag2
(g6
S' \x08'
p1624
tp1625
Rp1626
ag2
(g6
S'!\x08'
p1627
tp1628
Rp1629
ag2
(g6
S'"\x08'
p1630
tp1631
Rp1632
ag2
(g6
S'+\x08'
p1633
tp1634
Rp1635
ag2
(g6
S',\x08'
p1636
tp1637
Rp1638
ag2
(g6
S'-\x08'
p1639
tp1640
Rp1641
ag2
(g6
S'.\x08'
p1642
tp1643
Rp1644
ag2
(g6
S'/\x08'
p1645
tp1646
Rp1647
ag2
(g6
S'0\x08'
p1648
tp1649
Rp1650
ag2
(g6
S'1\x08'
p1651
tp1652
Rp1653
ag2
(g6
S'2\x08'
p1654
tp1655
Rp1656
ag2
(g6
S'3\x08'
p1657
tp1658
Rp1659
ag2
(g6
S'4\x08'
p1660
tp1661
Rp1662
ag2
(g6
S'=\x08'
p1663
tp1664
Rp1665
ag2
(g6
S'>\x08'
p1666
tp1667
Rp1668
ag2
(g6
S'?\x08'
p1669
tp1670
Rp1671
ag2
(g6
S'@\x08'
p1672
tp1673
Rp1674
ag2
(g6
S'A\x08'
p1675
tp1676
Rp1677
ag2
(g6
S'B\x08'
p1678
tp1679
Rp1680
ag2
(g6
S'C\x08'
p1681
tp1682
Rp1683
ag2
(g6
S'D\x08'
p1684
tp1685
Rp1686
ag2
(g6
S'E\x08'
p1687
tp1688
Rp1689
ag2
(g6
S'\xc0\t'
p1690
tp1691
Rp1692
ag2
(g6
S'\xc4\t'
p1693
tp1694
Rp1695
ag2
(g6
S'\xc5\t'
p1696
tp1697
Rp1698
ag2
(g6
S'\xc6\t'
p1699
tp1700
Rp1701
ag2
(g6
S'\xc7\t'
p1702
tp1703
Rp1704
ag2
(g6
S'\xcc\t'
p1705
tp1706
Rp1707
ag2
(g6
S'\xcd\t'
p1708
tp1709
Rp1710
ag2
(g6
S'\xce\t'
p1711
tp1712
Rp1713
ag2
(g6
S'\xcf\t'
p1714
tp1715
Rp1716
ag2
(g6
S'\xd0\t'
p1717
tp1718
Rp1719
ag2
(g6
S'\xd9\t'
p1720
tp1721
Rp1722
ag2
(g6
S'\xda\t'
p1723
tp1724
Rp1725
ag2
(g6
S'\xdb\t'
p1726
tp1727
Rp1728
ag2
(g6
S'\xdc\t'
p1729
tp1730
Rp1731
ag2
(g6
S'\xdd\t'
p1732
tp1733
Rp1734
ag2
(g6
S'\xde\t'
p1735
tp1736
Rp1737
ag2
(g6
S'\xe7\t'
p1738
tp1739
Rp1740
ag2
(g6
S'\xe8\t'
p1741
tp1742
Rp1743
ag2
(g6
S'\xe9\t'
p1744
tp1745
Rp1746
ag2
(g6
S'\xea\t'
p1747
tp1748
Rp1749
ag2
(g6
S'\xeb\t'
p1750
tp1751
Rp1752
ag2
(g6
S'\xec\t'
p1753
tp1754
Rp1755
ag2
(g6
S'\xed\t'
p1756
tp1757
Rp1758
ag2
(g6
S'\xf6\t'
p1759
tp1760
Rp1761
ag2
(g6
S'\xf7\t'
p1762
tp1763
Rp1764
ag2
(g6
S'\xf8\t'
p1765
tp1766
Rp1767
ag2
(g6
S'\xf9\t'
p1768
tp1769
Rp1770
ag2
(g6
S'\xfa\t'
p1771
tp1772
Rp1773
ag2
(g6
S'\xfb\t'
p1774
tp1775
Rp1776
ag2
(g6
S'\xfc\t'
p1777
tp1778
Rp1779
ag2
(g6
S'\xfd\t'
p1780
tp1781
Rp1782
ag2
(g6
S'\x05\n'
p1783
tp1784
Rp1785
ag2
(g6
S'\x06\n'
p1786
tp1787
Rp1788
ag2
(g6
S'\x07\n'
p1789
tp1790
Rp1791
ag2
(g6
S'\x08\n'
p1792
tp1793
Rp1794
ag2
(g6
S'\t\n'
p1795
tp1796
Rp1797
ag2
(g6
S'\n\n'
p1798
tp1799
Rp1800
ag2
(g6
S'\x0b\n'
p1801
tp1802
Rp1803
ag2
(g6
S'\x11\n'
p1804
tp1805
Rp1806
ag2
(g6
S'\x12\n'
p1807
tp1808
Rp1809
ag2
(g6
S'\x13\n'
p1810
tp1811
Rp1812
ag2
(g6
S'\x14\n'
p1813
tp1814
Rp1815
ag2
(g6
S'\x15\n'
p1816
tp1817
Rp1818
ag2
(g6
S'\x16\n'
p1819
tp1820
Rp1821
ag2
(g6
S'\x17\n'
p1822
tp1823
Rp1824
ag2
(g6
S'\x1d\n'
p1825
tp1826
Rp1827
ag2
(g6
S'\x1e\n'
p1828
tp1829
Rp1830
ag2
(g6
S'\x1f\n'
p1831
tp1832
Rp1833
ag2
(g6
S' \n'
p1834
tp1835
Rp1836
ag2
(g6
S'!\n'
p1837
tp1838
Rp1839
ag2
(g6
S'"\n'
p1840
tp1841
Rp1842
ag2
(g6
S'#\n'
p1843
tp1844
Rp1845
ag2
(g6
S'X\x0c'
p1846
tp1847
Rp1848
ag2
(g6
S'Y\x0c'
p1849
tp1850
Rp1851
ag2
(g6
S'\\\x0c'
p1852
tp1853
Rp1854
ag2
(g6
S']\x0c'
p1855
tp1856
Rp1857
ag2
(g6
S'^\x0c'
p1858
tp1859
Rp1860
ag2
(g6
S'_\x0c'
p1861
tp1862
Rp1863
ag2
(g6
S'f\x0c'
p1864
tp1865
Rp1866
ag2
(g6
S'g\x0c'
p1867
tp1868
Rp1869
ag2
(g6
S'h\x0c'
p1870
tp1871
Rp1872
ag2
(g6
S'i\x0c'
p1873
tp1874
Rp1875
ag2
(g6
S'j\x0c'
p1876
tp1877
Rp1878
ag2
(g6
S'k\x0c'
p1879
tp1880
Rp1881
ag2
(g6
S't\x0c'
p1882
tp1883
Rp1884
ag2
(g6
S'u\x0c'
p1885
tp1886
Rp1887
ag2
(g6
S'v\x0c'
p1888
tp1889
Rp1890
ag2
(g6
S'w\x0c'
p1891
tp1892
Rp1893
ag2
(g6
S'x\x0c'
p1894
tp1895
Rp1896
ag2
(g6
S'y\x0c'
p1897
tp1898
Rp1899
ag2
(g6
S'z\x0c'
p1900
tp1901
Rp1902
ag2
(g6
S'{\x0c'
p1903
tp1904
Rp1905
ag2
(g6
S'|\x0c'
p1906
tp1907
Rp1908
ag2
(g6
S'}\x0c'
p1909
tp1910
Rp1911
ag2
(g6
S'\x87\x0c'
p1912
tp1913
Rp1914
ag2
(g6
S'\x88\x0c'
p1915
tp1916
Rp1917
ag2
(g6
S'\x89\x0c'
p1918
tp1919
Rp1920
ag2
(g6
S'\x8a\x0c'
p1921
tp1922
Rp1923
ag2
(g6
S'\x8b\x0c'
p1924
tp1925
Rp1926
ag2
(g6
S'\x8c\x0c'
p1927
tp1928
Rp1929
ag2
(g6
S'\x8d\x0c'
p1930
tp1931
Rp1932
ag2
(g6
S'\x8e\x0c'
p1933
tp1934
Rp1935
ag2
(g6
S'\x8f\x0c'
p1936
tp1937
Rp1938
ag2
(g6
S'\x90\x0c'
p1939
tp1940
Rp1941
ag2
(g6
S'\x98\x0c'
p1942
tp1943
Rp1944
ag2
(g6
S'\x99\x0c'
p1945
tp1946
Rp1947
ag2
(g6
S'\x9a\x0c'
p1948
tp1949
Rp1950
ag2
(g6
S'\x9b\x0c'
p1951
tp1952
Rp1953
ag2
(g6
S'\x9c\x0c'
p1954
tp1955
Rp1956
ag2
(g6
S'\x9d\x0c'
p1957
tp1958
Rp1959
ag2
(g6
S'\x9e\x0c'
p1960
tp1961
Rp1962
ag2
(g6
S'\x9f\x0c'
p1963
tp1964
Rp1965
ag2
(g6
S'\xa0\x0c'
p1966
tp1967
Rp1968
ag2
(g6
S'\xa1\x0c'
p1969
tp1970
Rp1971
ag2
(g6
S'\xaa\x0c'
p1972
tp1973
Rp1974
ag2
(g6
S'\xab\x0c'
p1975
tp1976
Rp1977
ag2
(g6
S'\xac\x0c'
p1978
tp1979
Rp1980
ag2
(g6
S'\xad\x0c'
p1981
tp1982
Rp1983
ag2
(g6
S'\xae\x0c'
p1984
tp1985
Rp1986
ag2
(g6
S'\xaf\x0c'
p1987
tp1988
Rp1989
ag2
(g6
S'\xb0\x0c'
p1990
tp1991
Rp1992
ag2
(g6
S'\xb5\x0e'
p1993
tp1994
Rp1995
ag2
(g6
S'\xb6\x0e'
p1996
tp1997
Rp1998
ag2
(g6
S'\xbc\x0e'
p1999
tp2000
Rp2001
ag2
(g6
S'\xbd\x0e'
p2002
tp2003
Rp2004
ag2
(g6
S'\xc6\x0e'
p2005
tp2006
Rp2007
ag2
(g6
S'\xc7\x0e'
p2008
tp2009
Rp2010
ag2
(g6
S'\xc8\x0e'
p2011
tp2012
Rp2013
ag2
(g6
S'\xc9\x0e'
p2014
tp2015
Rp2016
ag2
(g6
S'\xca\x0e'
p2017
tp2018
Rp2019
ag2
(g6
S'\xcb\x0e'
p2020
tp2021
Rp2022
ag2
(g6
S'\xcc\x0e'
p2023
tp2024
Rp2025
ag2
(g6
S'\xd7\x0e'
p2026
tp2027
Rp2028
ag2
(g6
S'\xd8\x0e'
p2029
tp2030
Rp2031
ag2
(g6
S'\xd9\x0e'
p2032
tp2033
Rp2034
ag2
(g6
S'\xda\x0e'
p2035
tp2036
Rp2037
ag2
(g6
S'\xdb\x0e'
p2038
tp2039
Rp2040
ag2
(g6
S'\xdc\x0e'
p2041
tp2042
Rp2043
ag2
(g6
S'\xdd\x0e'
p2044
tp2045
Rp2046
ag2
(g6
S'\xde\x0e'
p2047
tp2048
Rp2049
ag2
(g6
S'\xdf\x0e'
p2050
tp2051
Rp2052
ag2
(g6
S'\xea\x0e'
p2053
tp2054
Rp2055
ag2
(g6
S'\xeb\x0e'
p2056
tp2057
Rp2058
ag2
(g6
S'\xec\x0e'
p2059
tp2060
Rp2061
ag2
(g6
S'\xed\x0e'
p2062
tp2063
Rp2064
ag2
(g6
S'\xee\x0e'
p2065
tp2066
Rp2067
ag2
(g6
S'\xef\x0e'
p2068
tp2069
Rp2070
ag2
(g6
S'\xf0\x0e'
p2071
tp2072
Rp2073
ag2
(g6
S'\xf1\x0e'
p2074
tp2075
Rp2076
ag2
(g6
S'\xf2\x0e'
p2077
tp2078
Rp2079
ag2
(g6
S'\xfb\x0e'
p2080
tp2081
Rp2082
ag2
(g6
S'\xfc\x0e'
p2083
tp2084
Rp2085
ag2
(g6
S'\xfd\x0e'
p2086
tp2087
Rp2088
ag2
(g6
S'\xfe\x0e'
p2089
tp2090
Rp2091
ag2
(g6
S'\xff\x0e'
p2092
tp2093
Rp2094
ag2
(g6
S'\x00\x0f'
p2095
tp2096
Rp2097
ag2
(g6
S'\x01\x0f'
p2098
tp2099
Rp2100
aa(lp2101
g2
(g6
S'\x90\x00'
p2102
tp2103
Rp2104
ag2
(g6
S'\x9e\x00'
p2105
tp2106
Rp2107
ag2
(g6
S'\x9f\x00'
p2108
tp2109
Rp2110
ag2
(g6
S'\xa0\x00'
p2111
tp2112
Rp2113
ag2
(g6
S'\xa1\x00'
p2114
tp2115
Rp2116
ag2
(g6
S'\xa2\x00'
p2117
tp2118
Rp2119
ag2
(g6
S'\xa3\x00'
p2120
tp2121
Rp2122
ag2
(g6
S'\xa4\x00'
p2123
tp2124
Rp2125
ag2
(g6
S'\xb1\x00'
p2126
tp2127
Rp2128
ag2
(g6
S'\xb2\x00'
p2129
tp2130
Rp2131
ag2
(g6
S'\xb3\x00'
p2132
tp2133
Rp2134
ag2
(g6
S'\xb4\x00'
p2135
tp2136
Rp2137
ag2
(g6
S'\xb5\x00'
p2138
tp2139
Rp2140
ag2
(g6
S'\xb6\x00'
p2141
tp2142
Rp2143
ag2
(g6
S'\xb7\x00'
p2144
tp2145
Rp2146
ag2
(g6
S'\xc8\x00'
p2147
tp2148
Rp2149
ag2
(g6
S'\xc9\x00'
p2150
tp2151
Rp2152
ag2
(g6
S'\xca\x00'
p2153
tp2154
Rp2155
ag2
(g6
S'\xcb\x00'
p2156
tp2157
Rp2158
ag2
(g6
S'\xcc\x00'
p2159
tp2160
Rp2161
ag2
(g6
S'\xcd\x00'
p2162
tp2163
Rp2164
ag2
(g6
S'4\x03'
p2165
tp2166
Rp2167
ag2
(g6
S'5\x03'
p2168
tp2169
Rp2170
ag2
(g6
S'B\x03'
p2171
tp2172
Rp2173
ag2
(g6
S'C\x03'
p2174
tp2175
Rp2176
ag2
(g6
S'D\x03'
p2177
tp2178
Rp2179
ag2
(g6
S'E\x03'
p2180
tp2181
Rp2182
ag2
(g6
S'F\x03'
p2183
tp2184
Rp2185
ag2
(g6
S'O\x03'
p2186
tp2187
Rp2188
ag2
(g6
S'P\x03'
p2189
tp2190
Rp2191
ag2
(g6
S'Q\x03'
p2192
tp2193
Rp2194
ag2
(g6
S'R\x03'
p2195
tp2196
Rp2197
ag2
(g6
S'S\x03'
p2198
tp2199
Rp2200
ag2
(g6
S'T\x03'
p2201
tp2202
Rp2203
ag2
(g6
S'U\x03'
p2204
tp2205
Rp2206
ag2
(g6
S'Z\x03'
p2207
tp2208
Rp2209
ag2
(g6
S'[\x03'
p2210
tp2211
Rp2212
ag2
(g6
S'\\\x03'
p2213
tp2214
Rp2215
ag2
(g6
S']\x03'
p2216
tp2217
Rp2218
ag2
(g6
S'^\x03'
p2219
tp2220
Rp2221
ag2
(g6
S'_\x03'
p2222
tp2223
Rp2224
ag2
(g6
S'`\x03'
p2225
tp2226
Rp2227
ag2
(g6
S'a\x03'
p2228
tp2229
Rp2230
ag2
(g6
S'o\x03'
p2231
tp2232
Rp2233
ag2
(g6
S'p\x03'
p2234
tp2235
Rp2236
ag2
(g6
S'q\x03'
p2237
tp2238
Rp2239
ag2
(g6
S'r\x03'
p2240
tp2241
Rp2242
ag2
(g6
S's\x03'
p2243
tp2244
Rp2245
ag2
(g6
S't\x03'
p2246
tp2247
Rp2248
ag2
(g6
S'\x86\x03'
p2249
tp2250
Rp2251
ag2
(g6
S'\x87\x03'
p2252
tp2253
Rp2254
ag2
(g6
S'\x88\x03'
p2255
tp2256
Rp2257
ag2
(g6
S'\x89\x03'
p2258
tp2259
Rp2260
ag2
(g6
S'\xdd\x05'
p2261
tp2262
Rp2263
ag2
(g6
S'\xde\x05'
p2264
tp2265
Rp2266
ag2
(g6
S'\xdf\x05'
p2267
tp2268
Rp2269
ag2
(g6
S'\xe0\x05'
p2270
tp2271
Rp2272
ag2
(g6
S'\xe1\x05'
p2273
tp2274
Rp2275
ag2
(g6
S'\xe2\x05'
p2276
tp2277
Rp2278
ag2
(g6
S'\xe6\x05'
p2279
tp2280
Rp2281
ag2
(g6
S'\xe7\x05'
p2282
tp2283
Rp2284
ag2
(g6
S'\xe8\x05'
p2285
tp2286
Rp2287
ag2
(g6
S'\xe9\x05'
p2288
tp2289
Rp2290
ag2
(g6
S'\xea\x05'
p2291
tp2292
Rp2293
ag2
(g6
S'\xeb\x05'
p2294
tp2295
Rp2296
ag2
(g6
S'\xec\x05'
p2297
tp2298
Rp2299
ag2
(g6
S'\xf1\x05'
p2300
tp2301
Rp2302
ag2
(g6
S'\xf2\x05'
p2303
tp2304
Rp2305
ag2
(g6
S'\xf3\x05'
p2306
tp2307
Rp2308
ag2
(g6
S'\xf4\x05'
p2309
tp2310
Rp2311
ag2
(g6
S'\xf5\x05'
p2312
tp2313
Rp2314
ag2
(g6
S'\xf6\x05'
p2315
tp2316
Rp2317
ag2
(g6
S'\xf7\x05'
p2318
tp2319
Rp2320
ag2
(g6
S'\xfd\x05'
p2321
tp2322
Rp2323
ag2
(g6
S'\xfe\x05'
p2324
tp2325
Rp2326
ag2
(g6
S'\xff\x05'
p2327
tp2328
Rp2329
ag2
(g6
S'\x00\x06'
p2330
tp2331
Rp2332
ag2
(g6
S'\x01\x06'
p2333
tp2334
Rp2335
ag2
(g6
S'\x02\x06'
p2336
tp2337
Rp2338
ag2
(g6
S'\t\x06'
p2339
tp2340
Rp2341
ag2
(g6
S'\n\x06'
p2342
tp2343
Rp2344
ag2
(g6
S'\x0b\x06'
p2345
tp2346
Rp2347
ag2
(g6
S'\x0c\x06'
p2348
tp2349
Rp2350
ag2
(g6
S'\r\x06'
p2351
tp2352
Rp2353
ag2
(g6
S'\x18\x06'
p2354
tp2355
Rp2356
ag2
(g6
S'\x19\x06'
p2357
tp2358
Rp2359
ag2
(g6
S'O\x08'
p2360
tp2361
Rp2362
ag2
(g6
S'P\x08'
p2363
tp2364
Rp2365
ag2
(g6
S'Q\x08'
p2366
tp2367
Rp2368
ag2
(g6
S'R\x08'
p2369
tp2370
Rp2371
ag2
(g6
S'S\x08'
p2372
tp2373
Rp2374
ag2
(g6
S'T\x08'
p2375
tp2376
Rp2377
ag2
(g6
S'U\x08'
p2378
tp2379
Rp2380
ag2
(g6
S'V\x08'
p2381
tp2382
Rp2383
ag2
(g6
S'`\x08'
p2384
tp2385
Rp2386
ag2
(g6
S'a\x08'
p2387
tp2388
Rp2389
ag2
(g6
S'b\x08'
p2390
tp2391
Rp2392
ag2
(g6
S'c\x08'
p2393
tp2394
Rp2395
ag2
(g6
S'd\x08'
p2396
tp2397
Rp2398
ag2
(g6
S'e\x08'
p2399
tp2400
Rp2401
ag2
(g6
S'f\x08'
p2402
tp2403
Rp2404
ag2
(g6
S'g\x08'
p2405
tp2406
Rp2407
ag2
(g6
S'h\x08'
p2408
tp2409
Rp2410
ag2
(g6
S'q\x08'
p2411
tp2412
Rp2413
ag2
(g6
S'r\x08'
p2414
tp2415
Rp2416
ag2
(g6
S's\x08'
p2417
tp2418
Rp2419
ag2
(g6
S't\x08'
p2420
tp2421
Rp2422
ag2
(g6
S'u\x08'
p2423
tp2424
Rp2425
ag2
(g6
S'v\x08'
p2426
tp2427
Rp2428
ag2
(g6
S'w\x08'
p2429
tp2430
Rp2431
ag2
(g6
S'x\x08'
p2432
tp2433
Rp2434
ag2
(g6
S'y\x08'
p2435
tp2436
Rp2437
ag2
(g6
S'\x82\x08'
p2438
tp2439
Rp2440
ag2
(g6
S'\x83\x08'
p2441
tp2442
Rp2443
ag2
(g6
S'\x84\x08'
p2444
tp2445
Rp2446
ag2
(g6
S'\x85\x08'
p2447
tp2448
Rp2449
ag2
(g6
S'\x86\x08'
p2450
tp2451
Rp2452
ag2
(g6
S'\x87\x08'
p2453
tp2454
Rp2455
ag2
(g6
S'\x88\x08'
p2456
tp2457
Rp2458
ag2
(g6
S'\x91\x08'
p2459
tp2460
Rp2461
ag2
(g6
S'\x92\x08'
p2462
tp2463
Rp2464
ag2
(g6
S'\x93\x08'
p2465
tp2466
Rp2467
ag2
(g6
S'\x94\x08'
p2468
tp2469
Rp2470
ag2
(g6
S'\x95\x08'
p2471
tp2472
Rp2473
aa(lp2474
g2
(g6
S')\n'
p2475
tp2476
Rp2477
ag2
(g6
S'*\n'
p2478
tp2479
Rp2480
ag2
(g6
S'+\n'
p2481
tp2482
Rp2483
ag2
(g6
S',\n'
p2484
tp2485
Rp2486
ag2
(g6
S'-\n'
p2487
tp2488
Rp2489
ag2
(g6
S'.\n'
p2490
tp2491
Rp2492
ag2
(g6
S'/\n'
p2493
tp2494
Rp2495
ag2
(g6
S'6\n'
p2496
tp2497
Rp2498
ag2
(g6
S'7\n'
p2499
tp2500
Rp2501
ag2
(g6
S'8\n'
p2502
tp2503
Rp2504
ag2
(g6
S'9\n'
p2505
tp2506
Rp2507
ag2
(g6
S':\n'
p2508
tp2509
Rp2510
ag2
(g6
S';\n'
p2511
tp2512
Rp2513
ag2
(g6
S'<\n'
p2514
tp2515
Rp2516
ag2
(g6
S'=\n'
p2517
tp2518
Rp2519
ag2
(g6
S'E\n'
p2520
tp2521
Rp2522
ag2
(g6
S'F\n'
p2523
tp2524
Rp2525
ag2
(g6
S'G\n'
p2526
tp2527
Rp2528
ag2
(g6
S'H\n'
p2529
tp2530
Rp2531
ag2
(g6
S'I\n'
p2532
tp2533
Rp2534
ag2
(g6
S'J\n'
p2535
tp2536
Rp2537
ag2
(g6
S'K\n'
p2538
tp2539
Rp2540
ag2
(g6
S'L\n'
p2541
tp2542
Rp2543
ag2
(g6
S'S\n'
p2544
tp2545
Rp2546
ag2
(g6
S'T\n'
p2547
tp2548
Rp2549
ag2
(g6
S'U\n'
p2550
tp2551
Rp2552
ag2
(g6
S'V\n'
p2553
tp2554
Rp2555
ag2
(g6
S'W\n'
p2556
tp2557
Rp2558
ag2
(g6
S'X\n'
p2559
tp2560
Rp2561
ag2
(g6
S'Y\n'
p2562
tp2563
Rp2564
ag2
(g6
S'`\n'
p2565
tp2566
Rp2567
ag2
(g6
S'a\n'
p2568
tp2569
Rp2570
ag2
(g6
S'b\n'
p2571
tp2572
Rp2573
ag2
(g6
S'c\n'
p2574
tp2575
Rp2576
ag2
(g6
S'd\n'
p2577
tp2578
Rp2579
ag2
(g6
S'k\n'
p2580
tp2581
Rp2582
ag2
(g6
S'l\n'
p2583
tp2584
Rp2585
ag2
(g6
S'm\n'
p2586
tp2587
Rp2588
ag2
(g6
S'n\n'
p2589
tp2590
Rp2591
ag2
(g6
S'o\n'
p2592
tp2593
Rp2594
ag2
(g6
S'p\n'
p2595
tp2596
Rp2597
ag2
(g6
S'q\n'
p2598
tp2599
Rp2600
ag2
(g6
S'r\n'
p2601
tp2602
Rp2603
ag2
(g6
S's\n'
p2604
tp2605
Rp2606
ag2
(g6
S'z\n'
p2607
tp2608
Rp2609
ag2
(g6
S'{\n'
p2610
tp2611
Rp2612
ag2
(g6
S'|\n'
p2613
tp2614
Rp2615
ag2
(g6
S'}\n'
p2616
tp2617
Rp2618
ag2
(g6
S'~\n'
p2619
tp2620
Rp2621
ag2
(g6
S'\x7f\n'
p2622
tp2623
Rp2624
ag2
(g6
S'\x80\n'
p2625
tp2626
Rp2627
ag2
(g6
S'\x81\n'
p2628
tp2629
Rp2630
ag2
(g6
S'\x82\n'
p2631
tp2632
Rp2633
ag2
(g6
S'\x87\n'
p2634
tp2635
Rp2636
ag2
(g6
S'\x88\n'
p2637
tp2638
Rp2639
ag2
(g6
S'\x89\n'
p2640
tp2641
Rp2642
ag2
(g6
S'\x8a\n'
p2643
tp2644
Rp2645
ag2
(g6
S'\x8b\n'
p2646
tp2647
Rp2648
ag2
(g6
S'\x8c\n'
p2649
tp2650
Rp2651
ag2
(g6
S'\x8d\n'
p2652
tp2653
Rp2654
ag2
(g6
S'\x8e\n'
p2655
tp2656
Rp2657
ag2
(g6
S'\x8f\n'
p2658
tp2659
Rp2660
ag2
(g6
S'\x90\n'
p2661
tp2662
Rp2663
ag2
(g6
S'\x91\n'
p2664
tp2665
Rp2666
ag2
(g6
S'\x92\n'
p2667
tp2668
Rp2669
ag2
(g6
S'\x93\n'
p2670
tp2671
Rp2672
ag2
(g6
S'\x94\n'
p2673
tp2674
Rp2675
ag2
(g6
S'\x95\n'
p2676
tp2677
Rp2678
ag2
(g6
S'\x96\n'
p2679
tp2680
Rp2681
ag2
(g6
S'\x97\n'
p2682
tp2683
Rp2684
ag2
(g6
S'\x98\n'
p2685
tp2686
Rp2687
ag2
(g6
S'\x99\n'
p2688
tp2689
Rp2690
ag2
(g6
S'\xb9\x0c'
p2691
tp2692
Rp2693
ag2
(g6
S'\xba\x0c'
p2694
tp2695
Rp2696
ag2
(g6
S'\xbb\x0c'
p2697
tp2698
Rp2699
ag2
(g6
S'\xbc\x0c'
p2700
tp2701
Rp2702
ag2
(g6
S'\xbd\x0c'
p2703
tp2704
Rp2705
ag2
(g6
S'\xbe\x0c'
p2706
tp2707
Rp2708
ag2
(g6
S'\xbf\x0c'
p2709
tp2710
Rp2711
ag2
(g6
S'\xc0\x0c'
p2712
tp2713
Rp2714
ag2
(g6
S'\xc8\x0c'
p2715
tp2716
Rp2717
ag2
(g6
S'\xc9\x0c'
p2718
tp2719
Rp2720
ag2
(g6
S'\xca\x0c'
p2721
tp2722
Rp2723
ag2
(g6
S'\xcb\x0c'
p2724
tp2725
Rp2726
ag2
(g6
S'\xcc\x0c'
p2727
tp2728
Rp2729
ag2
(g6
S'\xcd\x0c'
p2730
tp2731
Rp2732
ag2
(g6
S'\xce\x0c'
p2733
tp2734
Rp2735
ag2
(g6
S'\xcf\x0c'
p2736
tp2737
Rp2738
ag2
(g6
S'\xd6\x0c'
p2739
tp2740
Rp2741
ag2
(g6
S'\xd7\x0c'
p2742
tp2743
Rp2744
ag2
(g6
S'\xd8\x0c'
p2745
tp2746
Rp2747
ag2
(g6
S'\xd9\x0c'
p2748
tp2749
Rp2750
ag2
(g6
S'\xda\x0c'
p2751
tp2752
Rp2753
ag2
(g6
S'\xdb\x0c'
p2754
tp2755
Rp2756
ag2
(g6
S'\xdc\x0c'
p2757
tp2758
Rp2759
ag2
(g6
S'\xdd\x0c'
p2760
tp2761
Rp2762
ag2
(g6
S'\xe3\x0c'
p2763
tp2764
Rp2765
ag2
(g6
S'\xe4\x0c'
p2766
tp2767
Rp2768
ag2
(g6
S'\xe5\x0c'
p2769
tp2770
Rp2771
ag2
(g6
S'\xe6\x0c'
p2772
tp2773
Rp2774
ag2
(g6
S'\xe7\x0c'
p2775
tp2776
Rp2777
ag2
(g6
S'\xe8\x0c'
p2778
tp2779
Rp2780
ag2
(g6
S'\xe9\x0c'
p2781
tp2782
Rp2783
ag2
(g6
S'\xea\x0c'
p2784
tp2785
Rp2786
ag2
(g6
S'\xf0\x0c'
p2787
tp2788
Rp2789
ag2
(g6
S'\xf1\x0c'
p2790
tp2791
Rp2792
ag2
(g6
S'\xf2\x0c'
p2793
tp2794
Rp2795
ag2
(g6
S'\xf3\x0c'
p2796
tp2797
Rp2798
ag2
(g6
S'\xf4\x0c'
p2799
tp2800
Rp2801
ag2
(g6
S'\xf5\x0c'
p2802
tp2803
Rp2804
ag2
(g6
S'\xf6\x0c'
p2805
tp2806
Rp2807
ag2
(g6
S'\xf7\x0c'
p2808
tp2809
Rp2810
ag2
(g6
S'\xf8\x0c'
p2811
tp2812
Rp2813
ag2
(g6
S'\xfe\x0c'
p2814
tp2815
Rp2816
ag2
(g6
S'\xff\x0c'
p2817
tp2818
Rp2819
ag2
(g6
S'\x00\r'
p2820
tp2821
Rp2822
ag2
(g6
S'\x01\r'
p2823
tp2824
Rp2825
ag2
(g6
S'\x02\r'
p2826
tp2827
Rp2828
ag2
(g6
S'\x03\r'
p2829
tp2830
Rp2831
ag2
(g6
S'\x04\r'
p2832
tp2833
Rp2834
ag2
(g6
S'\x05\r'
p2835
tp2836
Rp2837
ag2
(g6
S'\x06\r'
p2838
tp2839
Rp2840
ag2
(g6
S'\x0c\r'
p2841
tp2842
Rp2843
ag2
(g6
S'\r\r'
p2844
tp2845
Rp2846
ag2
(g6
S'\x0e\r'
p2847
tp2848
Rp2849
ag2
(g6
S'\x0f\r'
p2850
tp2851
Rp2852
ag2
(g6
S'\x10\r'
p2853
tp2854
Rp2855
ag2
(g6
S'\x11\r'
p2856
tp2857
Rp2858
ag2
(g6
S'\x12\r'
p2859
tp2860
Rp2861
ag2
(g6
S'\x13\r'
p2862
tp2863
Rp2864
ag2
(g6
S'\x14\r'
p2865
tp2866
Rp2867
ag2
(g6
S'\x15\r'
p2868
tp2869
Rp2870
ag2
(g6
S'\x16\r'
p2871
tp2872
Rp2873
ag2
(g6
S'\x17\r'
p2874
tp2875
Rp2876
ag2
(g6
S'\x18\r'
p2877
tp2878
Rp2879
ag2
(g6
S'\x19\r'
p2880
tp2881
Rp2882
ag2
(g6
S'\x1a\r'
p2883
tp2884
Rp2885
ag2
(g6
S'\x1b\r'
p2886
tp2887
Rp2888
ag2
(g6
S'\x1c\r'
p2889
tp2890
Rp2891
ag2
(g6
S'\x1d\r'
p2892
tp2893
Rp2894
ag2
(g6
S'\x1e\r'
p2895
tp2896
Rp2897
ag2
(g6
S'\x1f\r'
p2898
tp2899
Rp2900
ag2
(g6
S' \r'
p2901
tp2902
Rp2903
ag2
(g6
S'!\r'
p2904
tp2905
Rp2906
ag2
(g6
S'"\r'
p2907
tp2908
Rp2909
ag2
(g6
S'#\r'
p2910
tp2911
Rp2912
ag2
(g6
S'$\r'
p2913
tp2914
Rp2915
ag2
(g6
S'%\r'
p2916
tp2917
Rp2918
ag2
(g6
S'&\r'
p2919
tp2920
Rp2921
ag2
(g6
S"'\r"
p2922
tp2923
Rp2924
ag2
(g6
S'(\r'
p2925
tp2926
Rp2927
ag2
(g6
S')\r'
p2928
tp2929
Rp2930
ag2
(g6
S'*\r'
p2931
tp2932
Rp2933
ag2
(g6
S'\n\x0f'
p2934
tp2935
Rp2936
ag2
(g6
S'\x0b\x0f'
p2937
tp2938
Rp2939
ag2
(g6
S'\x0c\x0f'
p2940
tp2941
Rp2942
ag2
(g6
S'\r\x0f'
p2943
tp2944
Rp2945
ag2
(g6
S'\x0e\x0f'
p2946
tp2947
Rp2948
ag2
(g6
S'\x0f\x0f'
p2949
tp2950
Rp2951
ag2
(g6
S'\x10\x0f'
p2952
tp2953
Rp2954
ag2
(g6
S'\x11\x0f'
p2955
tp2956
Rp2957
ag2
(g6
S'\x12\x0f'
p2958
tp2959
Rp2960
ag2
(g6
S'\x1b\x0f'
p2961
tp2962
Rp2963
ag2
(g6
S'\x1c\x0f'
p2964
tp2965
Rp2966
ag2
(g6
S'\x1d\x0f'
p2967
tp2968
Rp2969
ag2
(g6
S'\x1e\x0f'
p2970
tp2971
Rp2972
ag2
(g6
S'\x1f\x0f'
p2973
tp2974
Rp2975
ag2
(g6
S' \x0f'
p2976
tp2977
Rp2978
ag2
(g6
S'!\x0f'
p2979
tp2980
Rp2981
ag2
(g6
S'"\x0f'
p2982
tp2983
Rp2984
ag2
(g6
S'#\x0f'
p2985
tp2986
Rp2987
ag2
(g6
S',\x0f'
p2988
tp2989
Rp2990
ag2
(g6
S'-\x0f'
p2991
tp2992
Rp2993
ag2
(g6
S'.\x0f'
p2994
tp2995
Rp2996
ag2
(g6
S'/\x0f'
p2997
tp2998
Rp2999
ag2
(g6
S'0\x0f'
p3000
tp3001
Rp3002
ag2
(g6
S'1\x0f'
p3003
tp3004
Rp3005
ag2
(g6
S'2\x0f'
p3006
tp3007
Rp3008
ag2
(g6
S'3\x0f'
p3009
tp3010
Rp3011
ag2
(g6
S'4\x0f'
p3012
tp3013
Rp3014
ag2
(g6
S'9\x0f'
p3015
tp3016
Rp3017
ag2
(g6
S':\x0f'
p3018
tp3019
Rp3020
ag2
(g6
S';\x0f'
p3021
tp3022
Rp3023
ag2
(g6
S'<\x0f'
p3024
tp3025
Rp3026
ag2
(g6
S'=\x0f'
p3027
tp3028
Rp3029
ag2
(g6
S'>\x0f'
p3030
tp3031
Rp3032
ag2
(g6
S'?\x0f'
p3033
tp3034
Rp3035
ag2
(g6
S'@\x0f'
p3036
tp3037
Rp3038
ag2
(g6
S'A\x0f'
p3039
tp3040
Rp3041
ag2
(g6
S'G\x0f'
p3042
tp3043
Rp3044
ag2
(g6
S'H\x0f'
p3045
tp3046
Rp3047
ag2
(g6
S'I\x0f'
p3048
tp3049
Rp3050
ag2
(g6
S'J\x0f'
p3051
tp3052
Rp3053
ag2
(g6
S'K\x0f'
p3054
tp3055
Rp3056
ag2
(g6
S'L\x0f'
p3057
tp3058
Rp3059
ag2
(g6
S'M\x0f'
p3060
tp3061
Rp3062
ag2
(g6
S'T\x0f'
p3063
tp3064
Rp3065
ag2
(g6
S'U\x0f'
p3066
tp3067
Rp3068
ag2
(g6
S'V\x0f'
p3069
tp3070
Rp3071
ag2
(g6
S'W\x0f'
p3072
tp3073
Rp3074
ag2
(g6
S'X\x0f'
p3075
tp3076
Rp3077
ag2
(g6
S'a\x0f'
p3078
tp3079
Rp3080
ag2
(g6
S'b\x0f'
p3081
tp3082
Rp3083
ag2
(g6
S'c\x0f'
p3084
tp3085
Rp3086
ag2
(g6
S'l\x0f'
p3087
tp3088
Rp3089
ag2
(g6
S'm\x0f'
p3090
tp3091
Rp3092
ag2
(g6
S'n\x0f'
p3093
tp3094
Rp3095
ag2
(g6
S'o\x0f'
p3096
tp3097
Rp3098
ag2
(g6
S'x\x0f'
p3099
tp3100
Rp3101
ag2
(g6
S'y\x0f'
p3102
tp3103
Rp3104
ag2
(g6
S'z\x0f'
p3105
tp3106
Rp3107
ag2
(g6
S'{\x0f'
p3108
tp3109
Rp3110
ag2
(g6
S'|\x0f'
p3111
tp3112
Rp3113
ag2
(g6
S'\x84\x0f'
p3114
tp3115
Rp3116
ag2
(g6
S'\x85\x0f'
p3117
tp3118
Rp3119
ag2
(g6
S'\x86\x0f'
p3120
tp3121
Rp3122
ag2
(g6
S'\x8f\x0f'
p3123
tp3124
Rp3125
ag2
(g6
S'\x90\x0f'
p3126
tp3127
Rp3128
ag2
(g6
S'\x91\x0f'
p3129
tp3130
Rp3131
ag2
(g6
S'\x96\x0f'
p3132
tp3133
Rp3134
ag2
(g6
S'\x97\x0f'
p3135
tp3136
Rp3137
ag2
(g6
S'\x98\x0f'
p3138
tp3139
Rp3140
ag2
(g6
S'\xcd\x10'
p3141
tp3142
Rp3143
ag2
(g6
S'\xce\x10'
p3144
tp3145
Rp3146
ag2
(g6
S'\xcf\x10'
p3147
tp3148
Rp3149
ag2
(g6
S'\xd0\x10'
p3150
tp3151
Rp3152
ag2
(g6
S'\xd1\x10'
p3153
tp3154
Rp3155
ag2
(g6
S'\xd3\x10'
p3156
tp3157
Rp3158
ag2
(g6
S'\xd4\x10'
p3159
tp3160
Rp3161
ag2
(g6
S'\xd5\x10'
p3162
tp3163
Rp3164
ag2
(g6
S'\xd6\x10'
p3165
tp3166
Rp3167
ag2
(g6
S'\xd8\x10'
p3168
tp3169
Rp3170
ag2
(g6
S'\xd9\x10'
p3171
tp3172
Rp3173
ag2
(g6
S'\xda\x10'
p3174
tp3175
Rp3176
ag2
(g6
S'\xdb\x10'
p3177
tp3178
Rp3179
ag2
(g6
S'\xde\x10'
p3180
tp3181
Rp3182
ag2
(g6
S'\xdf\x10'
p3183
tp3184
Rp3185
ag2
(g6
S'\xe0\x10'
p3186
tp3187
Rp3188
ag2
(g6
S'\xe1\x10'
p3189
tp3190
Rp3191
ag2
(g6
S'\xe4\x10'
p3192
tp3193
Rp3194
ag2
(g6
S'\xe5\x10'
p3195
tp3196
Rp3197
ag2
(g6
S'\xe9\x10'
p3198
tp3199
Rp3200
ag2
(g6
S'\xea\x10'
p3201
tp3202
Rp3203
ag2
(g6
S'\xf0\x10'
p3204
tp3205
Rp3206
ag2
(g6
S'\xf1\x10'
p3207
tp3208
Rp3209
ag2
(g6
S'\xfa\x10'
p3210
tp3211
Rp3212
ag2
(g6
S'\xfb\x10'
p3213
tp3214
Rp3215
ag2
(g6
S'\x05\x11'
p3216
tp3217
Rp3218
ag2
(g6
S'\x06\x11'
p3219
tp3220
Rp3221
ag2
(g6
S'\x0f\x11'
p3222
tp3223
Rp3224
ag2
(g6
S'\x10\x11'
p3225
tp3226
Rp3227
aa(lp3228
g2
(g6
S'\xb2\x01'
p3229
tp3230
Rp3231
ag2
(g6
S'\xb3\x01'
p3232
tp3233
Rp3234
ag2
(g6
S'\xb4\x01'
p3235
tp3236
Rp3237
ag2
(g6
S'\xb5\x01'
p3238
tp3239
Rp3240
ag2
(g6
S'\xcb\x01'
p3241
tp3242
Rp3243
ag2
(g6
S'\xcc\x01'
p3244
tp3245
Rp3246
ag2
(g6
S'\xcd\x01'
p3247
tp3248
Rp3249
ag2
(g6
S'\xce\x01'
p3250
tp3251
Rp3252
ag2
(g6
S'\xe5\x01'
p3253
tp3254
Rp3255
ag2
(g6
S'\xe6\x01'
p3256
tp3257
Rp3258
ag2
(g6
S'\xe7\x01'
p3259
tp3260
Rp3261
ag2
(g6
S'\x00\x02'
p3262
tp3263
Rp3264
ag2
(g6
S'\x01\x02'
p3265
tp3266
Rp3267
ag2
(g6
S'\x02\x02'
p3268
tp3269
Rp3270
ag2
(g6
S'\x1c\x02'
p3271
tp3272
Rp3273
ag2
(g6
S'\x1d\x02'
p3274
tp3275
Rp3276
ag2
(g6
S'\x1e\x02'
p3277
tp3278
Rp3279
ag2
(g6
S'\x1f\x02'
p3280
tp3281
Rp3282
ag2
(g6
S'6\x02'
p3283
tp3284
Rp3285
ag2
(g6
S'7\x02'
p3286
tp3287
Rp3288
ag2
(g6
S'8\x02'
p3289
tp3290
Rp3291
ag2
(g6
S'9\x02'
p3292
tp3293
Rp3294
ag2
(g6
S':\x02'
p3295
tp3296
Rp3297
ag2
(g6
S'O\x02'
p3298
tp3299
Rp3300
ag2
(g6
S'P\x02'
p3301
tp3302
Rp3303
ag2
(g6
S'Q\x02'
p3304
tp3305
Rp3306
ag2
(g6
S'R\x02'
p3307
tp3308
Rp3309
ag2
(g6
S'S\x02'
p3310
tp3311
Rp3312
ag2
(g6
S'T\x02'
p3313
tp3314
Rp3315
ag2
(g6
S'f\x02'
p3316
tp3317
Rp3318
ag2
(g6
S'g\x02'
p3319
tp3320
Rp3321
ag2
(g6
S'h\x02'
p3322
tp3323
Rp3324
ag2
(g6
S'i\x02'
p3325
tp3326
Rp3327
ag2
(g6
S'j\x02'
p3328
tp3329
Rp3330
ag2
(g6
S'k\x02'
p3331
tp3332
Rp3333
ag2
(g6
S'}\x02'
p3334
tp3335
Rp3336
ag2
(g6
S'~\x02'
p3337
tp3338
Rp3339
ag2
(g6
S'\x7f\x02'
p3340
tp3341
Rp3342
ag2
(g6
S'\x80\x02'
p3343
tp3344
Rp3345
ag2
(g6
S'\x8e\x02'
p3346
tp3347
Rp3348
ag2
(g6
S'\x8f\x02'
p3349
tp3350
Rp3351
ag2
(g6
S'\x90\x02'
p3352
tp3353
Rp3354
ag2
(g6
S'\x98\x02'
p3355
tp3356
Rp3357
ag2
(g6
S'\x99\x02'
p3358
tp3359
Rp3360
ag2
(g6
S'\xa1\x02'
p3361
tp3362
Rp3363
ag2
(g6
S'\xa2\x02'
p3364
tp3365
Rp3366
ag2
(g6
S'G\x04'
p3367
tp3368
Rp3369
ag2
(g6
S'H\x04'
p3370
tp3371
Rp3372
ag2
(g6
S'I\x04'
p3373
tp3374
Rp3375
ag2
(g6
S'J\x04'
p3376
tp3377
Rp3378
ag2
(g6
S'b\x04'
p3379
tp3380
Rp3381
ag2
(g6
S'c\x04'
p3382
tp3383
Rp3384
ag2
(g6
S'd\x04'
p3385
tp3386
Rp3387
ag2
(g6
S'e\x04'
p3388
tp3389
Rp3390
ag2
(g6
S'f\x04'
p3391
tp3392
Rp3393
ag2
(g6
S'~\x04'
p3394
tp3395
Rp3396
ag2
(g6
S'\x7f\x04'
p3397
tp3398
Rp3399
ag2
(g6
S'\x80\x04'
p3400
tp3401
Rp3402
ag2
(g6
S'\x81\x04'
p3403
tp3404
Rp3405
ag2
(g6
S'\x82\x04'
p3406
tp3407
Rp3408
ag2
(g6
S'\x9a\x04'
p3409
tp3410
Rp3411
ag2
(g6
S'\x9b\x04'
p3412
tp3413
Rp3414
ag2
(g6
S'\x9c\x04'
p3415
tp3416
Rp3417
ag2
(g6
S'\x9d\x04'
p3418
tp3419
Rp3420
ag2
(g6
S'\x9e\x04'
p3421
tp3422
Rp3423
ag2
(g6
S'\x9f\x04'
p3424
tp3425
Rp3426
ag2
(g6
S'\xb9\x04'
p3427
tp3428
Rp3429
ag2
(g6
S'\xba\x04'
p3430
tp3431
Rp3432
ag2
(g6
S'\xbb\x04'
p3433
tp3434
Rp3435
ag2
(g6
S'\xbc\x04'
p3436
tp3437
Rp3438
ag2
(g6
S'\xbd\x04'
p3439
tp3440
Rp3441
ag2
(g6
S'\xd6\x04'
p3442
tp3443
Rp3444
ag2
(g6
S'\xd7\x04'
p3445
tp3446
Rp3447
ag2
(g6
S'\xd8\x04'
p3448
tp3449
Rp3450
ag2
(g6
S'\xd9\x04'
p3451
tp3452
Rp3453
ag2
(g6
S'\xda\x04'
p3454
tp3455
Rp3456
ag2
(g6
S'\xdb\x04'
p3457
tp3458
Rp3459
ag2
(g6
S'\xf0\x04'
p3460
tp3461
Rp3462
ag2
(g6
S'\xf1\x04'
p3463
tp3464
Rp3465
ag2
(g6
S'\xf2\x04'
p3466
tp3467
Rp3468
ag2
(g6
S'\xf3\x04'
p3469
tp3470
Rp3471
ag2
(g6
S'\xf4\x04'
p3472
tp3473
Rp3474
ag2
(g6
S'\xf5\x04'
p3475
tp3476
Rp3477
ag2
(g6
S'\xf6\x04'
p3478
tp3479
Rp3480
ag2
(g6
S'\n\x05'
p3481
tp3482
Rp3483
ag2
(g6
S'\x0b\x05'
p3484
tp3485
Rp3486
ag2
(g6
S'\x0c\x05'
p3487
tp3488
Rp3489
ag2
(g6
S'\r\x05'
p3490
tp3491
Rp3492
ag2
(g6
S'\x0e\x05'
p3493
tp3494
Rp3495
ag2
(g6
S'\x0f\x05'
p3496
tp3497
Rp3498
ag2
(g6
S'\x10\x05'
p3499
tp3500
Rp3501
ag2
(g6
S'!\x05'
p3502
tp3503
Rp3504
ag2
(g6
S'"\x05'
p3505
tp3506
Rp3507
ag2
(g6
S'#\x05'
p3508
tp3509
Rp3510
ag2
(g6
S'$\x05'
p3511
tp3512
Rp3513
ag2
(g6
S'%\x05'
p3514
tp3515
Rp3516
ag2
(g6
S'&\x05'
p3517
tp3518
Rp3519
ag2
(g6
S"'\x05"
p3520
tp3521
Rp3522
ag2
(g6
S'4\x05'
p3523
tp3524
Rp3525
ag2
(g6
S'5\x05'
p3526
tp3527
Rp3528
ag2
(g6
S'6\x05'
p3529
tp3530
Rp3531
ag2
(g6
S'7\x05'
p3532
tp3533
Rp3534
ag2
(g6
S'8\x05'
p3535
tp3536
Rp3537
ag2
(g6
S'?\x05'
p3538
tp3539
Rp3540
ag2
(g6
S'@\x05'
p3541
tp3542
Rp3543
ag2
(g6
S'A\x05'
p3544
tp3545
Rp3546
ag2
(g6
S'B\x05'
p3547
tp3548
Rp3549
ag2
(g6
S'C\x05'
p3550
tp3551
Rp3552
ag2
(g6
S'\x94\x06'
p3553
tp3554
Rp3555
ag2
(g6
S'\x95\x06'
p3556
tp3557
Rp3558
ag2
(g6
S'\x96\x06'
p3559
tp3560
Rp3561
ag2
(g6
S'\x97\x06'
p3562
tp3563
Rp3564
ag2
(g6
S'\x98\x06'
p3565
tp3566
Rp3567
ag2
(g6
S'\xae\x06'
p3568
tp3569
Rp3570
ag2
(g6
S'\xaf\x06'
p3571
tp3572
Rp3573
ag2
(g6
S'\xb0\x06'
p3574
tp3575
Rp3576
ag2
(g6
S'\xb1\x06'
p3577
tp3578
Rp3579
ag2
(g6
S'\xb2\x06'
p3580
tp3581
Rp3582
ag2
(g6
S'\xb3\x06'
p3583
tp3584
Rp3585
ag2
(g6
S'\xb4\x06'
p3586
tp3587
Rp3588
ag2
(g6
S'\xcc\x06'
p3589
tp3590
Rp3591
ag2
(g6
S'\xcd\x06'
p3592
tp3593
Rp3594
ag2
(g6
S'\xce\x06'
p3595
tp3596
Rp3597
ag2
(g6
S'\xcf\x06'
p3598
tp3599
Rp3600
ag2
(g6
S'\xd0\x06'
p3601
tp3602
Rp3603
ag2
(g6
S'\xd1\x06'
p3604
tp3605
Rp3606
ag2
(g6
S'\xd2\x06'
p3607
tp3608
Rp3609
ag2
(g6
S'\xe7\x06'
p3610
tp3611
Rp3612
ag2
(g6
S'\xe8\x06'
p3613
tp3614
Rp3615
ag2
(g6
S'\xe9\x06'
p3616
tp3617
Rp3618
ag2
(g6
S'\xea\x06'
p3619
tp3620
Rp3621
ag2
(g6
S'\xeb\x06'
p3622
tp3623
Rp3624
ag2
(g6
S'\xec\x06'
p3625
tp3626
Rp3627
ag2
(g6
S'\xed\x06'
p3628
tp3629
Rp3630
ag2
(g6
S'\xee\x06'
p3631
tp3632
Rp3633
ag2
(g6
S'\x05\x07'
p3634
tp3635
Rp3636
ag2
(g6
S'\x06\x07'
p3637
tp3638
Rp3639
ag2
(g6
S'\x07\x07'
p3640
tp3641
Rp3642
ag2
(g6
S'\x08\x07'
p3643
tp3644
Rp3645
ag2
(g6
S'\t\x07'
p3646
tp3647
Rp3648
ag2
(g6
S'\n\x07'
p3649
tp3650
Rp3651
ag2
(g6
S'\x0b\x07'
p3652
tp3653
Rp3654
ag2
(g6
S'#\x07'
p3655
tp3656
Rp3657
ag2
(g6
S'$\x07'
p3658
tp3659
Rp3660
ag2
(g6
S'%\x07'
p3661
tp3662
Rp3663
ag2
(g6
S'&\x07'
p3664
tp3665
Rp3666
ag2
(g6
S"'\x07"
p3667
tp3668
Rp3669
ag2
(g6
S'(\x07'
p3670
tp3671
Rp3672
ag2
(g6
S')\x07'
p3673
tp3674
Rp3675
ag2
(g6
S'?\x07'
p3676
tp3677
Rp3678
ag2
(g6
S'@\x07'
p3679
tp3680
Rp3681
ag2
(g6
S'A\x07'
p3682
tp3683
Rp3684
ag2
(g6
S'B\x07'
p3685
tp3686
Rp3687
ag2
(g6
S'C\x07'
p3688
tp3689
Rp3690
ag2
(g6
S'D\x07'
p3691
tp3692
Rp3693
ag2
(g6
S'E\x07'
p3694
tp3695
Rp3696
ag2
(g6
S'\\\x07'
p3697
tp3698
Rp3699
ag2
(g6
S']\x07'
p3700
tp3701
Rp3702
ag2
(g6
S'^\x07'
p3703
tp3704
Rp3705
ag2
(g6
S'_\x07'
p3706
tp3707
Rp3708
ag2
(g6
S'`\x07'
p3709
tp3710
Rp3711
ag2
(g6
S'a\x07'
p3712
tp3713
Rp3714
ag2
(g6
S't\x07'
p3715
tp3716
Rp3717
ag2
(g6
S'u\x07'
p3718
tp3719
Rp3720
ag2
(g6
S'v\x07'
p3721
tp3722
Rp3723
ag2
(g6
S'w\x07'
p3724
tp3725
Rp3726
ag2
(g6
S'x\x07'
p3727
tp3728
Rp3729
ag2
(g6
S'\x89\x07'
p3730
tp3731
Rp3732
ag2
(g6
S'\x8a\x07'
p3733
tp3734
Rp3735
ag2
(g6
S'\x8b\x07'
p3736
tp3737
Rp3738
ag2
(g6
S'\x97\x07'
p3739
tp3740
Rp3741
ag2
(g6
S'\x98\x07'
p3742
tp3743
Rp3744
ag2
(g6
S'\x99\x07'
p3745
tp3746
Rp3747
ag2
(g6
S'\x9a\x07'
p3748
tp3749
Rp3750
ag2
(g6
S'\xa2\x07'
p3751
tp3752
Rp3753
ag2
(g6
S'\xa3\x07'
p3754
tp3755
Rp3756
ag2
(g6
S'\xa4\x07'
p3757
tp3758
Rp3759
ag2
(g6
S'\xf4\x08'
p3760
tp3761
Rp3762
ag2
(g6
S'\xf5\x08'
p3763
tp3764
Rp3765
ag2
(g6
S'\xf6\x08'
p3766
tp3767
Rp3768
ag2
(g6
S'\xf7\x08'
p3769
tp3770
Rp3771
ag2
(g6
S'\xf8\x08'
p3772
tp3773
Rp3774
ag2
(g6
S'\xf9\x08'
p3775
tp3776
Rp3777
ag2
(g6
S'\xfa\x08'
p3778
tp3779
Rp3780
ag2
(g6
S'\xfb\x08'
p3781
tp3782
Rp3783
ag2
(g6
S'\x02\t'
p3784
tp3785
Rp3786
ag2
(g6
S'\x03\t'
p3787
tp3788
Rp3789
ag2
(g6
S'\x04\t'
p3790
tp3791
Rp3792
ag2
(g6
S'\x05\t'
p3793
tp3794
Rp3795
ag2
(g6
S'\x06\t'
p3796
tp3797
Rp3798
ag2
(g6
S'\x07\t'
p3799
tp3800
Rp3801
ag2
(g6
S'\x08\t'
p3802
tp3803
Rp3804
ag2
(g6
S'\t\t'
p3805
tp3806
Rp3807
ag2
(g6
S'\n\t'
p3808
tp3809
Rp3810
ag2
(g6
S'\x13\t'
p3811
tp3812
Rp3813
ag2
(g6
S'\x14\t'
p3814
tp3815
Rp3816
ag2
(g6
S'\x15\t'
p3817
tp3818
Rp3819
ag2
(g6
S'\x16\t'
p3820
tp3821
Rp3822
ag2
(g6
S'\x17\t'
p3823
tp3824
Rp3825
ag2
(g6
S'\x18\t'
p3826
tp3827
Rp3828
ag2
(g6
S'\x19\t'
p3829
tp3830
Rp3831
ag2
(g6
S'\x1a\t'
p3832
tp3833
Rp3834
ag2
(g6
S'\x1b\t'
p3835
tp3836
Rp3837
ag2
(g6
S'(\t'
p3838
tp3839
Rp3840
ag2
(g6
S')\t'
p3841
tp3842
Rp3843
ag2
(g6
S'*\t'
p3844
tp3845
Rp3846
ag2
(g6
S'+\t'
p3847
tp3848
Rp3849
ag2
(g6
S',\t'
p3850
tp3851
Rp3852
ag2
(g6
S'-\t'
p3853
tp3854
Rp3855
ag2
(g6
S'.\t'
p3856
tp3857
Rp3858
ag2
(g6
S'/\t'
p3859
tp3860
Rp3861
ag2
(g6
S'0\t'
p3862
tp3863
Rp3864
ag2
(g6
S'<\t'
p3865
tp3866
Rp3867
ag2
(g6
S'=\t'
p3868
tp3869
Rp3870
ag2
(g6
S'>\t'
p3871
tp3872
Rp3873
ag2
(g6
S'?\t'
p3874
tp3875
Rp3876
ag2
(g6
S'@\t'
p3877
tp3878
Rp3879
ag2
(g6
S'A\t'
p3880
tp3881
Rp3882
ag2
(g6
S'B\t'
p3883
tp3884
Rp3885
ag2
(g6
S'C\t'
p3886
tp3887
Rp3888
ag2
(g6
S'D\t'
p3889
tp3890
Rp3891
ag2
(g6
S'T\t'
p3892
tp3893
Rp3894
ag2
(g6
S'U\t'
p3895
tp3896
Rp3897
ag2
(g6
S'V\t'
p3898
tp3899
Rp3900
ag2
(g6
S'W\t'
p3901
tp3902
Rp3903
ag2
(g6
S'X\t'
p3904
tp3905
Rp3906
ag2
(g6
S'Y\t'
p3907
tp3908
Rp3909
ag2
(g6
S'Z\t'
p3910
tp3911
Rp3912
ag2
(g6
S'[\t'
p3913
tp3914
Rp3915
ag2
(g6
S'j\t'
p3916
tp3917
Rp3918
ag2
(g6
S'k\t'
p3919
tp3920
Rp3921
ag2
(g6
S'l\t'
p3922
tp3923
Rp3924
ag2
(g6
S'm\t'
p3925
tp3926
Rp3927
ag2
(g6
S'n\t'
p3928
tp3929
Rp3930
ag2
(g6
S'o\t'
p3931
tp3932
Rp3933
ag2
(g6
S'p\t'
p3934
tp3935
Rp3936
ag2
(g6
S'q\t'
p3937
tp3938
Rp3939
ag2
(g6
S'\x80\t'
p3940
tp3941
Rp3942
ag2
(g6
S'\x81\t'
p3943
tp3944
Rp3945
ag2
(g6
S'\x82\t'
p3946
tp3947
Rp3948
ag2
(g6
S'\x83\t'
p3949
tp3950
Rp3951
ag2
(g6
S'\x84\t'
p3952
tp3953
Rp3954
ag2
(g6
S'\x85\t'
p3955
tp3956
Rp3957
ag2
(g6
S'\x86\t'
p3958
tp3959
Rp3960
ag2
(g6
S'\x95\t'
p3961
tp3962
Rp3963
ag2
(g6
S'\x96\t'
p3964
tp3965
Rp3966
ag2
(g6
S'\x97\t'
p3967
tp3968
Rp3969
ag2
(g6
S'\x98\t'
p3970
tp3971
Rp3972
ag2
(g6
S'\x99\t'
p3973
tp3974
Rp3975
ag2
(g6
S'\x9a\t'
p3976
tp3977
Rp3978
ag2
(g6
S'\xa5\t'
p3979
tp3980
Rp3981
ag2
(g6
S'\xa6\t'
p3982
tp3983
Rp3984
ag2
(g6
S'\xa7\t'
p3985
tp3986
Rp3987
ag2
(g6
S'\xa8\t'
p3988
tp3989
Rp3990
ag2
(g6
S'\xa9\t'
p3991
tp3992
Rp3993
ag2
(g6
S'\xaa\t'
p3994
tp3995
Rp3996
ag2
(g6
S'\xb3\t'
p3997
tp3998
Rp3999
ag2
(g6
S'\xb4\t'
p4000
tp4001
Rp4002
ag2
(g6
S'\xb5\t'
p4003
tp4004
Rp4005
ag2
(g6
S'\xb6\t'
p4006
tp4007
Rp4008
ag2
(g6
S'\xb7\t'
p4009
tp4010
Rp4011
ag2
(g6
S'\xbc\t'
p4012
tp4013
Rp4014
ag2
(g6
S'\xbd\t'
p4015
tp4016
Rp4017
ag2
(g6
S'\xbe\t'
p4018
tp4019
Rp4020
aa(lp4021
g2
(g6
S'\x94\x01'
p4022
tp4023
Rp4024
ag2
(g6
S'\x95\x01'
p4025
tp4026
Rp4027
ag2
(g6
S'\x96\x01'
p4028
tp4029
Rp4030
ag2
(g6
S'\x97\x01'
p4031
tp4032
Rp4033
ag2
(g6
S'\x98\x01'
p4034
tp4035
Rp4036
ag2
(g6
S'\x99\x01'
p4037
tp4038
Rp4039
ag2
(g6
S'\xac\x01'
p4040
tp4041
Rp4042
ag2
(g6
S'\xad\x01'
p4043
tp4044
Rp4045
ag2
(g6
S'\xae\x01'
p4046
tp4047
Rp4048
ag2
(g6
S'\xaf\x01'
p4049
tp4050
Rp4051
ag2
(g6
S'\xb0\x01'
p4052
tp4053
Rp4054
ag2
(g6
S'\xb1\x01'
p4055
tp4056
Rp4057
ag2
(g6
S'\xc4\x01'
p4058
tp4059
Rp4060
ag2
(g6
S'\xc5\x01'
p4061
tp4062
Rp4063
ag2
(g6
S'\xc6\x01'
p4064
tp4065
Rp4066
ag2
(g6
S'\xc7\x01'
p4067
tp4068
Rp4069
ag2
(g6
S'\xc8\x01'
p4070
tp4071
Rp4072
ag2
(g6
S'\xc9\x01'
p4073
tp4074
Rp4075
ag2
(g6
S'\xca\x01'
p4076
tp4077
Rp4078
ag2
(g6
S'\xdd\x01'
p4079
tp4080
Rp4081
ag2
(g6
S'\xde\x01'
p4082
tp4083
Rp4084
ag2
(g6
S'\xdf\x01'
p4085
tp4086
Rp4087
ag2
(g6
S'\xe0\x01'
p4088
tp4089
Rp4090
ag2
(g6
S'\xe1\x01'
p4091
tp4092
Rp4093
ag2
(g6
S'\xe2\x01'
p4094
tp4095
Rp4096
ag2
(g6
S'\xe3\x01'
p4097
tp4098
Rp4099
ag2
(g6
S'\xe4\x01'
p4100
tp4101
Rp4102
ag2
(g6
S'\xf7\x01'
p4103
tp4104
Rp4105
ag2
(g6
S'\xf8\x01'
p4106
tp4107
Rp4108
ag2
(g6
S'\xf9\x01'
p4109
tp4110
Rp4111
ag2
(g6
S'\xfa\x01'
p4112
tp4113
Rp4114
ag2
(g6
S'\xfb\x01'
p4115
tp4116
Rp4117
ag2
(g6
S'\xfc\x01'
p4118
tp4119
Rp4120
ag2
(g6
S'\xfd\x01'
p4121
tp4122
Rp4123
ag2
(g6
S'\xfe\x01'
p4124
tp4125
Rp4126
ag2
(g6
S'\xff\x01'
p4127
tp4128
Rp4129
ag2
(g6
S'\x14\x02'
p4130
tp4131
Rp4132
ag2
(g6
S'\x15\x02'
p4133
tp4134
Rp4135
ag2
(g6
S'\x16\x02'
p4136
tp4137
Rp4138
ag2
(g6
S'\x17\x02'
p4139
tp4140
Rp4141
ag2
(g6
S'\x18\x02'
p4142
tp4143
Rp4144
ag2
(g6
S'\x19\x02'
p4145
tp4146
Rp4147
ag2
(g6
S'\x1a\x02'
p4148
tp4149
Rp4150
ag2
(g6
S'\x1b\x02'
p4151
tp4152
Rp4153
ag2
(g6
S'/\x02'
p4154
tp4155
Rp4156
ag2
(g6
S'0\x02'
p4157
tp4158
Rp4159
ag2
(g6
S'1\x02'
p4160
tp4161
Rp4162
ag2
(g6
S'2\x02'
p4163
tp4164
Rp4165
ag2
(g6
S'3\x02'
p4166
tp4167
Rp4168
ag2
(g6
S'4\x02'
p4169
tp4170
Rp4171
ag2
(g6
S'5\x02'
p4172
tp4173
Rp4174
ag2
(g6
S'J\x02'
p4175
tp4176
Rp4177
ag2
(g6
S'K\x02'
p4178
tp4179
Rp4180
ag2
(g6
S'L\x02'
p4181
tp4182
Rp4183
ag2
(g6
S'M\x02'
p4184
tp4185
Rp4186
ag2
(g6
S'N\x02'
p4187
tp4188
Rp4189
ag2
(g6
S'b\x02'
p4190
tp4191
Rp4192
ag2
(g6
S'c\x02'
p4193
tp4194
Rp4195
ag2
(g6
S'd\x02'
p4196
tp4197
Rp4198
ag2
(g6
S'e\x02'
p4199
tp4200
Rp4201
ag2
(g6
S'y\x02'
p4202
tp4203
Rp4204
ag2
(g6
S'z\x02'
p4205
tp4206
Rp4207
ag2
(g6
S'{\x02'
p4208
tp4209
Rp4210
ag2
(g6
S'|\x02'
p4211
tp4212
Rp4213
ag2
(g6
S'\x8a\x02'
p4214
tp4215
Rp4216
ag2
(g6
S'\x8b\x02'
p4217
tp4218
Rp4219
ag2
(g6
S'\x8c\x02'
p4220
tp4221
Rp4222
ag2
(g6
S'\x8d\x02'
p4223
tp4224
Rp4225
ag2
(g6
S'\x95\x02'
p4226
tp4227
Rp4228
ag2
(g6
S'\x96\x02'
p4229
tp4230
Rp4231
ag2
(g6
S'\x97\x02'
p4232
tp4233
Rp4234
ag2
(g6
S'\x9e\x02'
p4235
tp4236
Rp4237
ag2
(g6
S'\x9f\x02'
p4238
tp4239
Rp4240
ag2
(g6
S'\xa0\x02'
p4241
tp4242
Rp4243
ag2
(g6
S'\x0f\x04'
p4244
tp4245
Rp4246
ag2
(g6
S'\x10\x04'
p4247
tp4248
Rp4249
ag2
(g6
S'\x11\x04'
p4250
tp4251
Rp4252
ag2
(g6
S'(\x04'
p4253
tp4254
Rp4255
ag2
(g6
S')\x04'
p4256
tp4257
Rp4258
ag2
(g6
S'*\x04'
p4259
tp4260
Rp4261
ag2
(g6
S'+\x04'
p4262
tp4263
Rp4264
ag2
(g6
S',\x04'
p4265
tp4266
Rp4267
ag2
(g6
S'A\x04'
p4268
tp4269
Rp4270
ag2
(g6
S'B\x04'
p4271
tp4272
Rp4273
ag2
(g6
S'C\x04'
p4274
tp4275
Rp4276
ag2
(g6
S'D\x04'
p4277
tp4278
Rp4279
ag2
(g6
S'E\x04'
p4280
tp4281
Rp4282
ag2
(g6
S'F\x04'
p4283
tp4284
Rp4285
ag2
(g6
S'[\x04'
p4286
tp4287
Rp4288
ag2
(g6
S'\\\x04'
p4289
tp4290
Rp4291
ag2
(g6
S']\x04'
p4292
tp4293
Rp4294
ag2
(g6
S'^\x04'
p4295
tp4296
Rp4297
ag2
(g6
S'_\x04'
p4298
tp4299
Rp4300
ag2
(g6
S'`\x04'
p4301
tp4302
Rp4303
ag2
(g6
S'a\x04'
p4304
tp4305
Rp4306
ag2
(g6
S'w\x04'
p4307
tp4308
Rp4309
ag2
(g6
S'x\x04'
p4310
tp4311
Rp4312
ag2
(g6
S'y\x04'
p4313
tp4314
Rp4315
ag2
(g6
S'z\x04'
p4316
tp4317
Rp4318
ag2
(g6
S'{\x04'
p4319
tp4320
Rp4321
ag2
(g6
S'|\x04'
p4322
tp4323
Rp4324
ag2
(g6
S'}\x04'
p4325
tp4326
Rp4327
ag2
(g6
S'\x93\x04'
p4328
tp4329
Rp4330
ag2
(g6
S'\x94\x04'
p4331
tp4332
Rp4333
ag2
(g6
S'\x95\x04'
p4334
tp4335
Rp4336
ag2
(g6
S'\x96\x04'
p4337
tp4338
Rp4339
ag2
(g6
S'\x97\x04'
p4340
tp4341
Rp4342
ag2
(g6
S'\x98\x04'
p4343
tp4344
Rp4345
ag2
(g6
S'\x99\x04'
p4346
tp4347
Rp4348
ag2
(g6
S'\xb2\x04'
p4349
tp4350
Rp4351
ag2
(g6
S'\xb3\x04'
p4352
tp4353
Rp4354
ag2
(g6
S'\xb4\x04'
p4355
tp4356
Rp4357
ag2
(g6
S'\xb5\x04'
p4358
tp4359
Rp4360
ag2
(g6
S'\xb6\x04'
p4361
tp4362
Rp4363
ag2
(g6
S'\xb7\x04'
p4364
tp4365
Rp4366
ag2
(g6
S'\xb8\x04'
p4367
tp4368
Rp4369
ag2
(g6
S'\xd0\x04'
p4370
tp4371
Rp4372
ag2
(g6
S'\xd1\x04'
p4373
tp4374
Rp4375
ag2
(g6
S'\xd2\x04'
p4376
tp4377
Rp4378
ag2
(g6
S'\xd3\x04'
p4379
tp4380
Rp4381
ag2
(g6
S'\xd4\x04'
p4382
tp4383
Rp4384
ag2
(g6
S'\xd5\x04'
p4385
tp4386
Rp4387
ag2
(g6
S'\xec\x04'
p4388
tp4389
Rp4390
ag2
(g6
S'\xed\x04'
p4391
tp4392
Rp4393
ag2
(g6
S'\xee\x04'
p4394
tp4395
Rp4396
ag2
(g6
S'\xef\x04'
p4397
tp4398
Rp4399
ag2
(g6
S'\x06\x05'
p4400
tp4401
Rp4402
ag2
(g6
S'\x07\x05'
p4403
tp4404
Rp4405
ag2
(g6
S'\x08\x05'
p4406
tp4407
Rp4408
ag2
(g6
S'\t\x05'
p4409
tp4410
Rp4411
ag2
(g6
S'\x1e\x05'
p4412
tp4413
Rp4414
ag2
(g6
S'\x1f\x05'
p4415
tp4416
Rp4417
ag2
(g6
S' \x05'
p4418
tp4419
Rp4420
ag2
(g6
S'1\x05'
p4421
tp4422
Rp4423
ag2
(g6
S'2\x05'
p4424
tp4425
Rp4426
ag2
(g6
S'3\x05'
p4427
tp4428
Rp4429
ag2
(g6
S'<\x05'
p4430
tp4431
Rp4432
ag2
(g6
S'=\x05'
p4433
tp4434
Rp4435
ag2
(g6
S'>\x05'
p4436
tp4437
Rp4438
ag2
(g6
S'D\x05'
p4439
tp4440
Rp4441
ag2
(g6
S'E\x05'
p4442
tp4443
Rp4444
ag2
(g6
S'F\x05'
p4445
tp4446
Rp4447
ag2
(g6
S'\x90\x06'
p4448
tp4449
Rp4450
ag2
(g6
S'\x91\x06'
p4451
tp4452
Rp4453
ag2
(g6
S'\x92\x06'
p4454
tp4455
Rp4456
ag2
(g6
S'\x93\x06'
p4457
tp4458
Rp4459
ag2
(g6
S'\xa9\x06'
p4460
tp4461
Rp4462
ag2
(g6
S'\xaa\x06'
p4463
tp4464
Rp4465
ag2
(g6
S'\xab\x06'
p4466
tp4467
Rp4468
ag2
(g6
S'\xac\x06'
p4469
tp4470
Rp4471
ag2
(g6
S'\xad\x06'
p4472
tp4473
Rp4474
ag2
(g6
S'\xc6\x06'
p4475
tp4476
Rp4477
ag2
(g6
S'\xc7\x06'
p4478
tp4479
Rp4480
ag2
(g6
S'\xc8\x06'
p4481
tp4482
Rp4483
ag2
(g6
S'\xc9\x06'
p4484
tp4485
Rp4486
ag2
(g6
S'\xca\x06'
p4487
tp4488
Rp4489
ag2
(g6
S'\xcb\x06'
p4490
tp4491
Rp4492
ag2
(g6
S'\xe2\x06'
p4493
tp4494
Rp4495
ag2
(g6
S'\xe3\x06'
p4496
tp4497
Rp4498
ag2
(g6
S'\xe4\x06'
p4499
tp4500
Rp4501
ag2
(g6
S'\xe5\x06'
p4502
tp4503
Rp4504
ag2
(g6
S'\xe6\x06'
p4505
tp4506
Rp4507
ag2
(g6
S'\x00\x07'
p4508
tp4509
Rp4510
ag2
(g6
S'\x01\x07'
p4511
tp4512
Rp4513
ag2
(g6
S'\x02\x07'
p4514
tp4515
Rp4516
ag2
(g6
S'\x03\x07'
p4517
tp4518
Rp4519
ag2
(g6
S'\x04\x07'
p4520
tp4521
Rp4522
ag2
(g6
S'\x1e\x07'
p4523
tp4524
Rp4525
ag2
(g6
S'\x1f\x07'
p4526
tp4527
Rp4528
ag2
(g6
S' \x07'
p4529
tp4530
Rp4531
ag2
(g6
S'!\x07'
p4532
tp4533
Rp4534
ag2
(g6
S'"\x07'
p4535
tp4536
Rp4537
ag2
(g6
S':\x07'
p4538
tp4539
Rp4540
ag2
(g6
S';\x07'
p4541
tp4542
Rp4543
ag2
(g6
S'<\x07'
p4544
tp4545
Rp4546
ag2
(g6
S'=\x07'
p4547
tp4548
Rp4549
ag2
(g6
S'>\x07'
p4550
tp4551
Rp4552
ag2
(g6
S'V\x07'
p4553
tp4554
Rp4555
ag2
(g6
S'W\x07'
p4556
tp4557
Rp4558
ag2
(g6
S'X\x07'
p4559
tp4560
Rp4561
ag2
(g6
S'Y\x07'
p4562
tp4563
Rp4564
ag2
(g6
S'Z\x07'
p4565
tp4566
Rp4567
ag2
(g6
S'[\x07'
p4568
tp4569
Rp4570
ag2
(g6
S'n\x07'
p4571
tp4572
Rp4573
ag2
(g6
S'o\x07'
p4574
tp4575
Rp4576
ag2
(g6
S'p\x07'
p4577
tp4578
Rp4579
ag2
(g6
S'q\x07'
p4580
tp4581
Rp4582
ag2
(g6
S'r\x07'
p4583
tp4584
Rp4585
ag2
(g6
S's\x07'
p4586
tp4587
Rp4588
ag2
(g6
S'\x83\x07'
p4589
tp4590
Rp4591
ag2
(g6
S'\x84\x07'
p4592
tp4593
Rp4594
ag2
(g6
S'\x85\x07'
p4595
tp4596
Rp4597
ag2
(g6
S'\x86\x07'
p4598
tp4599
Rp4600
ag2
(g6
S'\x87\x07'
p4601
tp4602
Rp4603
ag2
(g6
S'\x88\x07'
p4604
tp4605
Rp4606
ag2
(g6
S'\x92\x07'
p4607
tp4608
Rp4609
ag2
(g6
S'\x93\x07'
p4610
tp4611
Rp4612
ag2
(g6
S'\x94\x07'
p4613
tp4614
Rp4615
ag2
(g6
S'\x95\x07'
p4616
tp4617
Rp4618
ag2
(g6
S'\x96\x07'
p4619
tp4620
Rp4621
ag2
(g6
S'\x9e\x07'
p4622
tp4623
Rp4624
ag2
(g6
S'\x9f\x07'
p4625
tp4626
Rp4627
ag2
(g6
S'\xa0\x07'
p4628
tp4629
Rp4630
ag2
(g6
S'\xa1\x07'
p4631
tp4632
Rp4633
ag2
(g6
S'Q\t'
p4634
tp4635
Rp4636
ag2
(g6
S'R\t'
p4637
tp4638
Rp4639
ag2
(g6
S'S\t'
p4640
tp4641
Rp4642
ag2
(g6
S'g\t'
p4643
tp4644
Rp4645
ag2
(g6
S'h\t'
p4646
tp4647
Rp4648
ag2
(g6
S'i\t'
p4649
tp4650
Rp4651
ag2
(g6
S'}\t'
p4652
tp4653
Rp4654
ag2
(g6
S'~\t'
p4655
tp4656
Rp4657
ag2
(g6
S'\x7f\t'
p4658
tp4659
Rp4660
ag2
(g6
S'\x92\t'
p4661
tp4662
Rp4663
ag2
(g6
S'\x93\t'
p4664
tp4665
Rp4666
ag2
(g6
S'\x94\t'
p4667
tp4668
Rp4669
ag2
(g6
S'\xa2\t'
p4670
tp4671
Rp4672
ag2
(g6
S'\xa3\t'
p4673
tp4674
Rp4675
ag2
(g6
S'\xa4\t'
p4676
tp4677
Rp4678
ag2
(g6
S'\xb0\t'
p4679
tp4680
Rp4681
ag2
(g6
S'\xb1\t'
p4682
tp4683
Rp4684
ag2
(g6
S'\xb2\t'
p4685
tp4686
Rp4687
ag2
(g6
S'\xb9\t'
p4688
tp4689
Rp4690
ag2
(g6
S'\xba\t'
p4691
tp4692
Rp4693
ag2
(g6
S'\xbb\t'
p4694
tp4695
Rp4696
ag2
(g6
S'\xbf\t'
p4697
tp4698
Rp4699
aa(lp4700
g2
(g6
S'\xd9\x0b'
p4701
tp4702
Rp4703
ag2
(g6
S'\xda\x0b'
p4704
tp4705
Rp4706
ag2
(g6
S'\xdb\x0b'
p4707
tp4708
Rp4709
ag2
(g6
S'\xf1\x0b'
p4710
tp4711
Rp4712
ag2
(g6
S'\xf2\x0b'
p4713
tp4714
Rp4715
ag2
(g6
S'\xf3\x0b'
p4716
tp4717
Rp4718
ag2
(g6
S'\xf4\x0b'
p4719
tp4720
Rp4721
ag2
(g6
S'\xf5\x0b'
p4722
tp4723
Rp4724
ag2
(g6
S'\xf6\x0b'
p4725
tp4726
Rp4727
ag2
(g6
S'\xf7\x0b'
p4728
tp4729
Rp4730
ag2
(g6
S'\x08\x0c'
p4731
tp4732
Rp4733
ag2
(g6
S'\t\x0c'
p4734
tp4735
Rp4736
ag2
(g6
S'\n\x0c'
p4737
tp4738
Rp4739
ag2
(g6
S'\x0b\x0c'
p4740
tp4741
Rp4742
ag2
(g6
S'\x0c\x0c'
p4743
tp4744
Rp4745
ag2
(g6
S'\r\x0c'
p4746
tp4747
Rp4748
ag2
(g6
S'\x0e\x0c'
p4749
tp4750
Rp4751
ag2
(g6
S'\x1a\x0c'
p4752
tp4753
Rp4754
ag2
(g6
S'\x1b\x0c'
p4755
tp4756
Rp4757
ag2
(g6
S'\x1c\x0c'
p4758
tp4759
Rp4760
ag2
(g6
S'\x1d\x0c'
p4761
tp4762
Rp4763
ag2
(g6
S'\x1e\x0c'
p4764
tp4765
Rp4766
ag2
(g6
S'*\x0c'
p4767
tp4768
Rp4769
ag2
(g6
S'+\x0c'
p4770
tp4771
Rp4772
ag2
(g6
S',\x0c'
p4773
tp4774
Rp4775
ag2
(g6
S'-\x0c'
p4776
tp4777
Rp4778
ag2
(g6
S'.\x0c'
p4779
tp4780
Rp4781
ag2
(g6
S'\x1f\x0e'
p4782
tp4783
Rp4784
ag2
(g6
S' \x0e'
p4785
tp4786
Rp4787
ag2
(g6
S'3\x0e'
p4788
tp4789
Rp4790
ag2
(g6
S'4\x0e'
p4791
tp4792
Rp4793
ag2
(g6
S'5\x0e'
p4794
tp4795
Rp4796
ag2
(g6
S'6\x0e'
p4797
tp4798
Rp4799
ag2
(g6
S'7\x0e'
p4800
tp4801
Rp4802
ag2
(g6
S'F\x0e'
p4803
tp4804
Rp4805
ag2
(g6
S'G\x0e'
p4806
tp4807
Rp4808
ag2
(g6
S'H\x0e'
p4809
tp4810
Rp4811
ag2
(g6
S'I\x0e'
p4812
tp4813
Rp4814
ag2
(g6
S'J\x0e'
p4815
tp4816
Rp4817
ag2
(g6
S'K\x0e'
p4818
tp4819
Rp4820
ag2
(g6
S'L\x0e'
p4821
tp4822
Rp4823
ag2
(g6
S'M\x0e'
p4824
tp4825
Rp4826
ag2
(g6
S'Y\x0e'
p4827
tp4828
Rp4829
ag2
(g6
S'Z\x0e'
p4830
tp4831
Rp4832
ag2
(g6
S'[\x0e'
p4833
tp4834
Rp4835
ag2
(g6
S'\\\x0e'
p4836
tp4837
Rp4838
ag2
(g6
S']\x0e'
p4839
tp4840
Rp4841
ag2
(g6
S'^\x0e'
p4842
tp4843
Rp4844
ag2
(g6
S'_\x0e'
p4845
tp4846
Rp4847
ag2
(g6
S'`\x0e'
p4848
tp4849
Rp4850
ag2
(g6
S'k\x0e'
p4851
tp4852
Rp4853
ag2
(g6
S'l\x0e'
p4854
tp4855
Rp4856
ag2
(g6
S'm\x0e'
p4857
tp4858
Rp4859
ag2
(g6
S'n\x0e'
p4860
tp4861
Rp4862
ag2
(g6
S'o\x0e'
p4863
tp4864
Rp4865
ag2
(g6
S'p\x0e'
p4866
tp4867
Rp4868
ag2
(g6
S'q\x0e'
p4869
tp4870
Rp4871
ag2
(g6
S'r\x0e'
p4872
tp4873
Rp4874
ag2
(g6
S'|\x0e'
p4875
tp4876
Rp4877
ag2
(g6
S'}\x0e'
p4878
tp4879
Rp4880
ag2
(g6
S'~\x0e'
p4881
tp4882
Rp4883
ag2
(g6
S'\x7f\x0e'
p4884
tp4885
Rp4886
ag2
(g6
S'\x80\x0e'
p4887
tp4888
Rp4889
ag2
(g6
S'\x81\x0e'
p4890
tp4891
Rp4892
ag2
(g6
S'\x89\x0e'
p4893
tp4894
Rp4895
ag2
(g6
S'\x8a\x0e'
p4896
tp4897
Rp4898
ag2
(g6
S'\x8b\x0e'
p4899
tp4900
Rp4901
ag2
(g6
S'\x8c\x0e'
p4902
tp4903
Rp4904
ag2
(g6
S'\x8d\x0e'
p4905
tp4906
Rp4907
ag2
(g6
S'\x93\x0e'
p4908
tp4909
Rp4910
ag2
(g6
S'\x94\x0e'
p4911
tp4912
Rp4913
ag2
(g6
S'\x95\x0e'
p4914
tp4915
Rp4916
ag2
(g6
S'(\x10'
p4917
tp4918
Rp4919
ag2
(g6
S')\x10'
p4920
tp4921
Rp4922
ag2
(g6
S'6\x10'
p4923
tp4924
Rp4925
ag2
(g6
S'7\x10'
p4926
tp4927
Rp4928
ag2
(g6
S'8\x10'
p4929
tp4930
Rp4931
ag2
(g6
S'E\x10'
p4932
tp4933
Rp4934
ag2
(g6
S'F\x10'
p4935
tp4936
Rp4937
ag2
(g6
S'G\x10'
p4938
tp4939
Rp4940
ag2
(g6
S'T\x10'
p4941
tp4942
Rp4943
ag2
(g6
S'U\x10'
p4944
tp4945
Rp4946
ag2
(g6
S'V\x10'
p4947
tp4948
Rp4949
ag2
(g6
S'W\x10'
p4950
tp4951
Rp4952
ag2
(g6
S'd\x10'
p4953
tp4954
Rp4955
ag2
(g6
S'e\x10'
p4956
tp4957
Rp4958
ag2
(g6
S'f\x10'
p4959
tp4960
Rp4961
ag2
(g6
S'g\x10'
p4962
tp4963
Rp4964
ag2
(g6
S's\x10'
p4965
tp4966
Rp4967
ag2
(g6
S't\x10'
p4968
tp4969
Rp4970
ag2
(g6
S'u\x10'
p4971
tp4972
Rp4973
ag2
(g6
S'v\x10'
p4974
tp4975
Rp4976
ag2
(g6
S'w\x10'
p4977
tp4978
Rp4979
ag2
(g6
S'\x82\x10'
p4980
tp4981
Rp4982
ag2
(g6
S'\x83\x10'
p4983
tp4984
Rp4985
ag2
(g6
S'\x84\x10'
p4986
tp4987
Rp4988
ag2
(g6
S'\x85\x10'
p4989
tp4990
Rp4991
ag2
(g6
S'\x86\x10'
p4992
tp4993
Rp4994
ag2
(g6
S'\x87\x10'
p4995
tp4996
Rp4997
ag2
(g6
S'\x88\x10'
p4998
tp4999
Rp5000
ag2
(g6
S'\x8f\x10'
p5001
tp5002
Rp5003
ag2
(g6
S'\x90\x10'
p5004
tp5005
Rp5006
ag2
(g6
S'\x91\x10'
p5007
tp5008
Rp5009
ag2
(g6
S'\x92\x10'
p5010
tp5011
Rp5012
ag2
(g6
S'\x93\x10'
p5013
tp5014
Rp5015
ag2
(g6
S'\x94\x10'
p5016
tp5017
Rp5018
ag2
(g6
S'\x95\x10'
p5019
tp5020
Rp5021
ag2
(g6
S'\x9a\x10'
p5022
tp5023
Rp5024
ag2
(g6
S'\x9b\x10'
p5025
tp5026
Rp5027
ag2
(g6
S'\x9c\x10'
p5028
tp5029
Rp5030
ag2
(g6
S'\x9d\x10'
p5031
tp5032
Rp5033
ag2
(g6
S'\x9e\x10'
p5034
tp5035
Rp5036
ag2
(g6
S'\x9f\x10'
p5037
tp5038
Rp5039
ag2
(g6
S'\xa0\x10'
p5040
tp5041
Rp5042
ag2
(g6
S'\xa3\x10'
p5043
tp5044
Rp5045
ag2
(g6
S'\xa4\x10'
p5046
tp5047
Rp5048
ag2
(g6
S'\xa5\x10'
p5049
tp5050
Rp5051
ag2
(g6
S'\xa6\x10'
p5052
tp5053
Rp5054
ag2
(g6
S'\xa7\x10'
p5055
tp5056
Rp5057
ag2
(g6
S'\xa8\x10'
p5058
tp5059
Rp5060
ag2
(g6
S'\xaa\x10'
p5061
tp5062
Rp5063
ag2
(g6
S'\xab\x10'
p5064
tp5065
Rp5066
ag2
(g6
S'\xac\x10'
p5067
tp5068
Rp5069
ag2
(g6
S'\xad\x10'
p5070
tp5071
Rp5072
ag2
(g6
S'\xae\x10'
p5073
tp5074
Rp5075
ag2
(g6
S'\xaf\x10'
p5076
tp5077
Rp5078
ag2
(g6
S'\xb0\x10'
p5079
tp5080
Rp5081
ag2
(g6
S'\xb1\x10'
p5082
tp5083
Rp5084
ag2
(g6
S'\xb2\x10'
p5085
tp5086
Rp5087
ag2
(g6
S'\x9a\x11'
p5088
tp5089
Rp5090
ag2
(g6
S'\x9b\x11'
p5091
tp5092
Rp5093
ag2
(g6
S'\xaa\x11'
p5094
tp5095
Rp5096
ag2
(g6
S'\xab\x11'
p5097
tp5098
Rp5099
ag2
(g6
S'\xac\x11'
p5100
tp5101
Rp5102
ag2
(g6
S'\xad\x11'
p5103
tp5104
Rp5105
ag2
(g6
S'\xba\x11'
p5106
tp5107
Rp5108
ag2
(g6
S'\xbb\x11'
p5109
tp5110
Rp5111
ag2
(g6
S'\xbc\x11'
p5112
tp5113
Rp5114
ag2
(g6
S'\xbd\x11'
p5115
tp5116
Rp5117
ag2
(g6
S'\xca\x11'
p5118
tp5119
Rp5120
ag2
(g6
S'\xcb\x11'
p5121
tp5122
Rp5123
ag2
(g6
S'\xcc\x11'
p5124
tp5125
Rp5126
ag2
(g6
S'\xcd\x11'
p5127
tp5128
Rp5129
ag2
(g6
S'\xce\x11'
p5130
tp5131
Rp5132
ag2
(g6
S'\xcf\x11'
p5133
tp5134
Rp5135
ag2
(g6
S'\xd9\x11'
p5136
tp5137
Rp5138
ag2
(g6
S'\xda\x11'
p5139
tp5140
Rp5141
ag2
(g6
S'\xdb\x11'
p5142
tp5143
Rp5144
ag2
(g6
S'\xdc\x11'
p5145
tp5146
Rp5147
ag2
(g6
S'\xdd\x11'
p5148
tp5149
Rp5150
ag2
(g6
S'\xde\x11'
p5151
tp5152
Rp5153
ag2
(g6
S'\xdf\x11'
p5154
tp5155
Rp5156
ag2
(g6
S'\xe6\x11'
p5157
tp5158
Rp5159
ag2
(g6
S'\xe7\x11'
p5160
tp5161
Rp5162
ag2
(g6
S'\xe8\x11'
p5163
tp5164
Rp5165
ag2
(g6
S'\xe9\x11'
p5166
tp5167
Rp5168
ag2
(g6
S'\xea\x11'
p5169
tp5170
Rp5171
ag2
(g6
S'\xeb\x11'
p5172
tp5173
Rp5174
ag2
(g6
S'\xec\x11'
p5175
tp5176
Rp5177
ag2
(g6
S'\xf2\x11'
p5178
tp5179
Rp5180
ag2
(g6
S'\xf3\x11'
p5181
tp5182
Rp5183
ag2
(g6
S'\xf4\x11'
p5184
tp5185
Rp5186
ag2
(g6
S'\xf5\x11'
p5187
tp5188
Rp5189
ag2
(g6
S'\xf6\x11'
p5190
tp5191
Rp5192
ag2
(g6
S'\xf7\x11'
p5193
tp5194
Rp5195
ag2
(g6
S'\xf8\x11'
p5196
tp5197
Rp5198
ag2
(g6
S'\xfc\x11'
p5199
tp5200
Rp5201
ag2
(g6
S'\xfd\x11'
p5202
tp5203
Rp5204
ag2
(g6
S'\xfe\x11'
p5205
tp5206
Rp5207
ag2
(g6
S'\xff\x11'
p5208
tp5209
Rp5210
ag2
(g6
S'\x00\x12'
p5211
tp5212
Rp5213
ag2
(g6
S'\x01\x12'
p5214
tp5215
Rp5216
ag2
(g6
S'\x02\x12'
p5217
tp5218
Rp5219
ag2
(g6
S'\x03\x12'
p5220
tp5221
Rp5222
ag2
(g6
S'\x04\x12'
p5223
tp5224
Rp5225
ag2
(g6
S'\x05\x12'
p5226
tp5227
Rp5228
ag2
(g6
S'\x06\x12'
p5229
tp5230
Rp5231
ag2
(g6
S'\x07\x12'
p5232
tp5233
Rp5234
ag2
(g6
S'\x08\x12'
p5235
tp5236
Rp5237
ag2
(g6
S'\t\x12'
p5238
tp5239
Rp5240
ag2
(g6
S'\n\x12'
p5241
tp5242
Rp5243
ag2
(g6
S'\x0b\x12'
p5244
tp5245
Rp5246
ag2
(g6
S'\x0c\x12'
p5247
tp5248
Rp5249
ag2
(g6
S'\r\x12'
p5250
tp5251
Rp5252
ag2
(g6
S'\x0e\x12'
p5253
tp5254
Rp5255
ag2
(g6
S'\x0f\x12'
p5256
tp5257
Rp5258
ag2
(g6
S'\x10\x12'
p5259
tp5260
Rp5261
ag2
(g6
S'\x11\x12'
p5262
tp5263
Rp5264
ag2
(g6
S'\x12\x12'
p5265
tp5266
Rp5267
ag2
(g6
S'\x13\x12'
p5268
tp5269
Rp5270
ag2
(g6
S'\x14\x12'
p5271
tp5272
Rp5273
ag2
(g6
S'\x15\x12'
p5274
tp5275
Rp5276
ag2
(g6
S'\x16\x12'
p5277
tp5278
Rp5279
ag2
(g6
S'\x17\x12'
p5280
tp5281
Rp5282
ag2
(g6
S'\x18\x12'
p5283
tp5284
Rp5285
ag2
(g6
S'\x19\x12'
p5286
tp5287
Rp5288
ag2
(g6
S'\x1a\x12'
p5289
tp5290
Rp5291
aa(lp5292
g2
(g6
S'k\n'
p5293
tp5294
Rp5295
ag2
(g6
S'l\n'
p5296
tp5297
Rp5298
ag2
(g6
S'm\n'
p5299
tp5300
Rp5301
ag2
(g6
S'z\n'
p5302
tp5303
Rp5304
ag2
(g6
S'{\n'
p5305
tp5306
Rp5307
ag2
(g6
S'|\n'
p5308
tp5309
Rp5310
ag2
(g6
S'}\n'
p5311
tp5312
Rp5313
ag2
(g6
S'~\n'
p5314
tp5315
Rp5316
ag2
(g6
S'\x7f\n'
p5317
tp5318
Rp5319
ag2
(g6
S'\x80\n'
p5320
tp5321
Rp5322
ag2
(g6
S'\x87\n'
p5323
tp5324
Rp5325
ag2
(g6
S'\x88\n'
p5326
tp5327
Rp5328
ag2
(g6
S'\x89\n'
p5329
tp5330
Rp5331
ag2
(g6
S'\x8a\n'
p5332
tp5333
Rp5334
ag2
(g6
S'\x8b\n'
p5335
tp5336
Rp5337
ag2
(g6
S'\x8c\n'
p5338
tp5339
Rp5340
ag2
(g6
S'\x8d\n'
p5341
tp5342
Rp5343
ag2
(g6
S'\x8e\n'
p5344
tp5345
Rp5346
ag2
(g6
S'\x8f\n'
p5347
tp5348
Rp5349
ag2
(g6
S'\x90\n'
p5350
tp5351
Rp5352
ag2
(g6
S'\x91\n'
p5353
tp5354
Rp5355
ag2
(g6
S'\x92\n'
p5356
tp5357
Rp5358
ag2
(g6
S'\x93\n'
p5359
tp5360
Rp5361
ag2
(g6
S'\x94\n'
p5362
tp5363
Rp5364
ag2
(g6
S'\x95\n'
p5365
tp5366
Rp5367
ag2
(g6
S'\x96\n'
p5368
tp5369
Rp5370
ag2
(g6
S'\x97\n'
p5371
tp5372
Rp5373
ag2
(g6
S'\x98\n'
p5374
tp5375
Rp5376
ag2
(g6
S'\x99\n'
p5377
tp5378
Rp5379
ag2
(g6
S'\xf0\x0c'
p5380
tp5381
Rp5382
ag2
(g6
S'\xfe\x0c'
p5383
tp5384
Rp5385
ag2
(g6
S'\xff\x0c'
p5386
tp5387
Rp5388
ag2
(g6
S'\x00\r'
p5389
tp5390
Rp5391
ag2
(g6
S'\x01\r'
p5392
tp5393
Rp5394
ag2
(g6
S'\x0c\r'
p5395
tp5396
Rp5397
ag2
(g6
S'\r\r'
p5398
tp5399
Rp5400
ag2
(g6
S'\x0e\r'
p5401
tp5402
Rp5403
ag2
(g6
S'\x0f\r'
p5404
tp5405
Rp5406
ag2
(g6
S'\x10\r'
p5407
tp5408
Rp5409
ag2
(g6
S'\x11\r'
p5410
tp5411
Rp5412
ag2
(g6
S'\x12\r'
p5413
tp5414
Rp5415
ag2
(g6
S'\x13\r'
p5416
tp5417
Rp5418
ag2
(g6
S'\x14\r'
p5419
tp5420
Rp5421
ag2
(g6
S'\x15\r'
p5422
tp5423
Rp5424
ag2
(g6
S'\x16\r'
p5425
tp5426
Rp5427
ag2
(g6
S'\x17\r'
p5428
tp5429
Rp5430
ag2
(g6
S'\x18\r'
p5431
tp5432
Rp5433
ag2
(g6
S'\x19\r'
p5434
tp5435
Rp5436
ag2
(g6
S'\x1a\r'
p5437
tp5438
Rp5439
ag2
(g6
S'\x1b\r'
p5440
tp5441
Rp5442
ag2
(g6
S'\x1c\r'
p5443
tp5444
Rp5445
ag2
(g6
S'\x1d\r'
p5446
tp5447
Rp5448
ag2
(g6
S'\x1e\r'
p5449
tp5450
Rp5451
ag2
(g6
S'\x1f\r'
p5452
tp5453
Rp5454
ag2
(g6
S' \r'
p5455
tp5456
Rp5457
ag2
(g6
S'!\r'
p5458
tp5459
Rp5460
ag2
(g6
S'"\r'
p5461
tp5462
Rp5463
ag2
(g6
S'#\r'
p5464
tp5465
Rp5466
ag2
(g6
S'$\r'
p5467
tp5468
Rp5469
ag2
(g6
S'%\r'
p5470
tp5471
Rp5472
ag2
(g6
S'&\r'
p5473
tp5474
Rp5475
ag2
(g6
S"'\r"
p5476
tp5477
Rp5478
ag2
(g6
S'(\r'
p5479
tp5480
Rp5481
ag2
(g6
S')\r'
p5482
tp5483
Rp5484
ag2
(g6
S'*\r'
p5485
tp5486
Rp5487
ag2
(g6
S'T\x0f'
p5488
tp5489
Rp5490
ag2
(g6
S'U\x0f'
p5491
tp5492
Rp5493
ag2
(g6
S'V\x0f'
p5494
tp5495
Rp5496
ag2
(g6
S'a\x0f'
p5497
tp5498
Rp5499
ag2
(g6
S'b\x0f'
p5500
tp5501
Rp5502
ag2
(g6
S'c\x0f'
p5503
tp5504
Rp5505
ag2
(g6
S'l\x0f'
p5506
tp5507
Rp5508
ag2
(g6
S'm\x0f'
p5509
tp5510
Rp5511
ag2
(g6
S'n\x0f'
p5512
tp5513
Rp5514
ag2
(g6
S'o\x0f'
p5515
tp5516
Rp5517
ag2
(g6
S'x\x0f'
p5518
tp5519
Rp5520
ag2
(g6
S'y\x0f'
p5521
tp5522
Rp5523
ag2
(g6
S'z\x0f'
p5524
tp5525
Rp5526
ag2
(g6
S'{\x0f'
p5527
tp5528
Rp5529
ag2
(g6
S'|\x0f'
p5530
tp5531
Rp5532
ag2
(g6
S'\x84\x0f'
p5533
tp5534
Rp5535
ag2
(g6
S'\x85\x0f'
p5536
tp5537
Rp5538
ag2
(g6
S'\x86\x0f'
p5539
tp5540
Rp5541
ag2
(g6
S'\x8f\x0f'
p5542
tp5543
Rp5544
ag2
(g6
S'\x90\x0f'
p5545
tp5546
Rp5547
ag2
(g6
S'\x91\x0f'
p5548
tp5549
Rp5550
ag2
(g6
S'\x96\x0f'
p5551
tp5552
Rp5553
ag2
(g6
S'\x97\x0f'
p5554
tp5555
Rp5556
ag2
(g6
S'\x98\x0f'
p5557
tp5558
Rp5559
ag2
(g6
S'\xe4\x10'
p5560
tp5561
Rp5562
ag2
(g6
S'\xe5\x10'
p5563
tp5564
Rp5565
ag2
(g6
S'\xe9\x10'
p5566
tp5567
Rp5568
ag2
(g6
S'\xea\x10'
p5569
tp5570
Rp5571
ag2
(g6
S'\xf0\x10'
p5572
tp5573
Rp5574
ag2
(g6
S'\xf1\x10'
p5575
tp5576
Rp5577
ag2
(g6
S'\xfa\x10'
p5578
tp5579
Rp5580
ag2
(g6
S'\xfb\x10'
p5581
tp5582
Rp5583
ag2
(g6
S'\x05\x11'
p5584
tp5585
Rp5586
ag2
(g6
S'\x06\x11'
p5587
tp5588
Rp5589
ag2
(g6
S'\x0f\x11'
p5590
tp5591
Rp5592
ag2
(g6
S'\x10\x11'
p5593
tp5594
Rp5595
aa(lp5596
g2
(g6
S'\xce\x00'
p5597
tp5598
Rp5599
ag2
(g6
S'\xe2\x00'
p5600
tp5601
Rp5602
ag2
(g6
S'\xe3\x00'
p5603
tp5604
Rp5605
ag2
(g6
S'\xe4\x00'
p5606
tp5607
Rp5608
ag2
(g6
S'\xe5\x00'
p5609
tp5610
Rp5611
ag2
(g6
S'\xe6\x00'
p5612
tp5613
Rp5614
ag2
(g6
S'\xf9\x00'
p5615
tp5616
Rp5617
ag2
(g6
S'\xfa\x00'
p5618
tp5619
Rp5620
ag2
(g6
S'\xfb\x00'
p5621
tp5622
Rp5623
ag2
(g6
S'\xfc\x00'
p5624
tp5625
Rp5626
ag2
(g6
S'\xfd\x00'
p5627
tp5628
Rp5629
ag2
(g6
S'\xfe\x00'
p5630
tp5631
Rp5632
ag2
(g6
S'\r\x01'
p5633
tp5634
Rp5635
ag2
(g6
S'\x0e\x01'
p5636
tp5637
Rp5638
ag2
(g6
S'\x0f\x01'
p5639
tp5640
Rp5641
ag2
(g6
S'\x10\x01'
p5642
tp5643
Rp5644
ag2
(g6
S'\x11\x01'
p5645
tp5646
Rp5647
ag2
(g6
S'\x12\x01'
p5648
tp5649
Rp5650
ag2
(g6
S'\x13\x01'
p5651
tp5652
Rp5653
ag2
(g6
S'"\x01'
p5654
tp5655
Rp5656
ag2
(g6
S'#\x01'
p5657
tp5658
Rp5659
ag2
(g6
S'$\x01'
p5660
tp5661
Rp5662
ag2
(g6
S'%\x01'
p5663
tp5664
Rp5665
ag2
(g6
S'&\x01'
p5666
tp5667
Rp5668
ag2
(g6
S'1\x01'
p5669
tp5670
Rp5671
ag2
(g6
S'2\x01'
p5672
tp5673
Rp5674
ag2
(g6
S'=\x01'
p5675
tp5676
Rp5677
ag2
(g6
S'u\x03'
p5678
tp5679
Rp5680
ag2
(g6
S'v\x03'
p5681
tp5682
Rp5683
ag2
(g6
S'w\x03'
p5684
tp5685
Rp5686
ag2
(g6
S'\x8a\x03'
p5687
tp5688
Rp5689
ag2
(g6
S'\x8b\x03'
p5690
tp5691
Rp5692
ag2
(g6
S'\x8c\x03'
p5693
tp5694
Rp5695
ag2
(g6
S'\x8d\x03'
p5696
tp5697
Rp5698
ag2
(g6
S'\x9a\x03'
p5699
tp5700
Rp5701
ag2
(g6
S'\x9b\x03'
p5702
tp5703
Rp5704
ag2
(g6
S'\x9c\x03'
p5705
tp5706
Rp5707
ag2
(g6
S'\x9d\x03'
p5708
tp5709
Rp5710
ag2
(g6
S'\x9e\x03'
p5711
tp5712
Rp5713
ag2
(g6
S'\xa7\x03'
p5714
tp5715
Rp5716
ag2
(g6
S'\xa8\x03'
p5717
tp5718
Rp5719
ag2
(g6
S'\xa9\x03'
p5720
tp5721
Rp5722
ag2
(g6
S'\xaa\x03'
p5723
tp5724
Rp5725
ag2
(g6
S'\xab\x03'
p5726
tp5727
Rp5728
ag2
(g6
S'\xac\x03'
p5729
tp5730
Rp5731
ag2
(g6
S'\xb5\x03'
p5732
tp5733
Rp5734
ag2
(g6
S'\xb6\x03'
p5735
tp5736
Rp5737
ag2
(g6
S'\xb7\x03'
p5738
tp5739
Rp5740
ag2
(g6
S'\xb8\x03'
p5741
tp5742
Rp5743
ag2
(g6
S'\xb9\x03'
p5744
tp5745
Rp5746
ag2
(g6
S'\xba\x03'
p5747
tp5748
Rp5749
ag2
(g6
S'\xbb\x03'
p5750
tp5751
Rp5752
ag2
(g6
S'\xc4\x03'
p5753
tp5754
Rp5755
ag2
(g6
S'\xc5\x03'
p5756
tp5757
Rp5758
ag2
(g6
S'\x0e\x06'
p5759
tp5760
Rp5761
ag2
(g6
S'\x0f\x06'
p5762
tp5763
Rp5764
ag2
(g6
S'\x10\x06'
p5765
tp5766
Rp5767
ag2
(g6
S'\x1a\x06'
p5768
tp5769
Rp5770
ag2
(g6
S'\x1b\x06'
p5771
tp5772
Rp5773
ag2
(g6
S'\x1c\x06'
p5774
tp5775
Rp5776
ag2
(g6
S'\x1d\x06'
p5777
tp5778
Rp5779
ag2
(g6
S'\x1e\x06'
p5780
tp5781
Rp5782
ag2
(g6
S'\x1f\x06'
p5783
tp5784
Rp5785
ag2
(g6
S'"\x06'
p5786
tp5787
Rp5788
ag2
(g6
S'#\x06'
p5789
tp5790
Rp5791
ag2
(g6
S'$\x06'
p5792
tp5793
Rp5794
ag2
(g6
S'%\x06'
p5795
tp5796
Rp5797
ag2
(g6
S'&\x06'
p5798
tp5799
Rp5800
ag2
(g6
S"'\x06"
p5801
tp5802
Rp5803
ag2
(g6
S'(\x06'
p5804
tp5805
Rp5806
ag2
(g6
S')\x06'
p5807
tp5808
Rp5809
ag2
(g6
S'*\x06'
p5810
tp5811
Rp5812
ag2
(g6
S'+\x06'
p5813
tp5814
Rp5815
ag2
(g6
S',\x06'
p5816
tp5817
Rp5818
ag2
(g6
S'-\x06'
p5819
tp5820
Rp5821
ag2
(g6
S'.\x06'
p5822
tp5823
Rp5824
ag2
(g6
S'/\x06'
p5825
tp5826
Rp5827
ag2
(g6
S'0\x06'
p5828
tp5829
Rp5830
ag2
(g6
S'\x96\x08'
p5831
tp5832
Rp5833
ag2
(g6
S'\x97\x08'
p5834
tp5835
Rp5836
ag2
(g6
S'\x9f\x08'
p5837
tp5838
Rp5839
ag2
(g6
S'\xa0\x08'
p5840
tp5841
Rp5842
ag2
(g6
S'\xa1\x08'
p5843
tp5844
Rp5845
ag2
(g6
S'\xa2\x08'
p5846
tp5847
Rp5848
ag2
(g6
S'\xa3\x08'
p5849
tp5850
Rp5851
ag2
(g6
S'\xa4\x08'
p5852
tp5853
Rp5854
ag2
(g6
S'\xa5\x08'
p5855
tp5856
Rp5857
ag2
(g6
S'\xa6\x08'
p5858
tp5859
Rp5860
ag2
(g6
S'\xa9\x08'
p5861
tp5862
Rp5863
ag2
(g6
S'\xaa\x08'
p5864
tp5865
Rp5866
ag2
(g6
S'\xab\x08'
p5867
tp5868
Rp5869
ag2
(g6
S'\xac\x08'
p5870
tp5871
Rp5872
ag2
(g6
S'\xad\x08'
p5873
tp5874
Rp5875
ag2
(g6
S'\xae\x08'
p5876
tp5877
Rp5878
ag2
(g6
S'\xaf\x08'
p5879
tp5880
Rp5881
ag2
(g6
S'\xb0\x08'
p5882
tp5883
Rp5884
ag2
(g6
S'\xb1\x08'
p5885
tp5886
Rp5887
ag2
(g6
S'\xb2\x08'
p5888
tp5889
Rp5890
ag2
(g6
S'\xb3\x08'
p5891
tp5892
Rp5893
ag2
(g6
S'\xb4\x08'
p5894
tp5895
Rp5896
ag2
(g6
S'\xb5\x08'
p5897
tp5898
Rp5899
ag2
(g6
S'\xb6\x08'
p5900
tp5901
Rp5902
ag2
(g6
S'\xb7\x08'
p5903
tp5904
Rp5905
ag2
(g6
S'\xb8\x08'
p5906
tp5907
Rp5908
ag2
(g6
S'\xb9\x08'
p5909
tp5910
Rp5911
ag2
(g6
S'\xba\x08'
p5912
tp5913
Rp5914
ag2
(g6
S'\xbb\x08'
p5915
tp5916
Rp5917
ag2
(g6
S'\xbc\x08'
p5918
tp5919
Rp5920
ag2
(g6
S'\xbd\x08'
p5921
tp5922
Rp5923
ag2
(g6
S'\xbe\x08'
p5924
tp5925
Rp5926
aa(lp5927
g2
(g6
S'X\x01'
p5928
tp5929
Rp5930
ag2
(g6
S'Y\x01'
p5931
tp5932
Rp5933
ag2
(g6
S'Z\x01'
p5934
tp5935
Rp5936
ag2
(g6
S'a\x01'
p5937
tp5938
Rp5939
ag2
(g6
S'b\x01'
p5940
tp5941
Rp5942
ag2
(g6
S'c\x01'
p5943
tp5944
Rp5945
ag2
(g6
S'd\x01'
p5946
tp5947
Rp5948
ag2
(g6
S'e\x01'
p5949
tp5950
Rp5951
ag2
(g6
S'l\x01'
p5952
tp5953
Rp5954
ag2
(g6
S'm\x01'
p5955
tp5956
Rp5957
ag2
(g6
S'n\x01'
p5958
tp5959
Rp5960
ag2
(g6
S'o\x01'
p5961
tp5962
Rp5963
ag2
(g6
S'p\x01'
p5964
tp5965
Rp5966
ag2
(g6
S'q\x01'
p5967
tp5968
Rp5969
ag2
(g6
S'r\x01'
p5970
tp5971
Rp5972
ag2
(g6
S's\x01'
p5973
tp5974
Rp5975
ag2
(g6
S't\x01'
p5976
tp5977
Rp5978
ag2
(g6
S'u\x01'
p5979
tp5980
Rp5981
ag2
(g6
S'~\x01'
p5982
tp5983
Rp5984
ag2
(g6
S'\x7f\x01'
p5985
tp5986
Rp5987
ag2
(g6
S'\x80\x01'
p5988
tp5989
Rp5990
ag2
(g6
S'\x81\x01'
p5991
tp5992
Rp5993
ag2
(g6
S'\x82\x01'
p5994
tp5995
Rp5996
ag2
(g6
S'\x83\x01'
p5997
tp5998
Rp5999
ag2
(g6
S'\x84\x01'
p6000
tp6001
Rp6002
ag2
(g6
S'\x85\x01'
p6003
tp6004
Rp6005
ag2
(g6
S'\x86\x01'
p6006
tp6007
Rp6008
ag2
(g6
S'\x87\x01'
p6009
tp6010
Rp6011
ag2
(g6
S'\x9a\x01'
p6012
tp6013
Rp6014
ag2
(g6
S'\x9b\x01'
p6015
tp6016
Rp6017
ag2
(g6
S'\x9c\x01'
p6018
tp6019
Rp6020
ag2
(g6
S'\x9d\x01'
p6021
tp6022
Rp6023
ag2
(g6
S'\xef\x03'
p6024
tp6025
Rp6026
ag2
(g6
S'\xf0\x03'
p6027
tp6028
Rp6029
ag2
(g6
S'\xf1\x03'
p6030
tp6031
Rp6032
ag2
(g6
S'\xf2\x03'
p6033
tp6034
Rp6035
ag2
(g6
S'\xf3\x03'
p6036
tp6037
Rp6038
ag2
(g6
S'\xfa\x03'
p6039
tp6040
Rp6041
ag2
(g6
S'\xfb\x03'
p6042
tp6043
Rp6044
ag2
(g6
S'\xfc\x03'
p6045
tp6046
Rp6047
ag2
(g6
S'\xfd\x03'
p6048
tp6049
Rp6050
ag2
(g6
S'\xfe\x03'
p6051
tp6052
Rp6053
ag2
(g6
S'\xff\x03'
p6054
tp6055
Rp6056
ag2
(g6
S'\x00\x04'
p6057
tp6058
Rp6059
ag2
(g6
S'\x01\x04'
p6060
tp6061
Rp6062
ag2
(g6
S'\x02\x04'
p6063
tp6064
Rp6065
ag2
(g6
S'\x12\x04'
p6066
tp6067
Rp6068
ag2
(g6
S'\x13\x04'
p6069
tp6070
Rp6071
ag2
(g6
S'\x14\x04'
p6072
tp6073
Rp6074
ag2
(g6
S'\x15\x04'
p6075
tp6076
Rp6077
ag2
(g6
S'\x16\x04'
p6078
tp6079
Rp6080
ag2
(g6
S'\x17\x04'
p6081
tp6082
Rp6083
ag2
(g6
S'\x18\x04'
p6084
tp6085
Rp6086
ag2
(g6
S'-\x04'
p6087
tp6088
Rp6089
ag2
(g6
S'.\x04'
p6090
tp6091
Rp6092
ag2
(g6
S'/\x04'
p6093
tp6094
Rp6095
ag2
(g6
S'0\x04'
p6096
tp6097
Rp6098
ag2
(g6
S'1\x04'
p6099
tp6100
Rp6101
ag2
(g6
S'8\x06'
p6102
tp6103
Rp6104
ag2
(g6
S'9\x06'
p6105
tp6106
Rp6107
ag2
(g6
S':\x06'
p6108
tp6109
Rp6110
ag2
(g6
S';\x06'
p6111
tp6112
Rp6113
ag2
(g6
S'<\x06'
p6114
tp6115
Rp6116
ag2
(g6
S'D\x06'
p6117
tp6118
Rp6119
ag2
(g6
S'E\x06'
p6120
tp6121
Rp6122
ag2
(g6
S'F\x06'
p6123
tp6124
Rp6125
ag2
(g6
S'G\x06'
p6126
tp6127
Rp6128
ag2
(g6
S'H\x06'
p6129
tp6130
Rp6131
ag2
(g6
S'I\x06'
p6132
tp6133
Rp6134
ag2
(g6
S'J\x06'
p6135
tp6136
Rp6137
ag2
(g6
S'S\x06'
p6138
tp6139
Rp6140
ag2
(g6
S'T\x06'
p6141
tp6142
Rp6143
ag2
(g6
S'U\x06'
p6144
tp6145
Rp6146
ag2
(g6
S'V\x06'
p6147
tp6148
Rp6149
ag2
(g6
S'W\x06'
p6150
tp6151
Rp6152
ag2
(g6
S'X\x06'
p6153
tp6154
Rp6155
ag2
(g6
S'Y\x06'
p6156
tp6157
Rp6158
ag2
(g6
S'd\x06'
p6159
tp6160
Rp6161
ag2
(g6
S'e\x06'
p6162
tp6163
Rp6164
ag2
(g6
S'f\x06'
p6165
tp6166
Rp6167
ag2
(g6
S'g\x06'
p6168
tp6169
Rp6170
ag2
(g6
S'h\x06'
p6171
tp6172
Rp6173
ag2
(g6
S'i\x06'
p6174
tp6175
Rp6176
ag2
(g6
S'j\x06'
p6177
tp6178
Rp6179
ag2
(g6
S'k\x06'
p6180
tp6181
Rp6182
ag2
(g6
S'y\x06'
p6183
tp6184
Rp6185
ag2
(g6
S'z\x06'
p6186
tp6187
Rp6188
ag2
(g6
S'{\x06'
p6189
tp6190
Rp6191
ag2
(g6
S'|\x06'
p6192
tp6193
Rp6194
ag2
(g6
S'}\x06'
p6195
tp6196
Rp6197
ag2
(g6
S'~\x06'
p6198
tp6199
Rp6200
ag2
(g6
S'\x7f\x06'
p6201
tp6202
Rp6203
ag2
(g6
S'\x80\x06'
p6204
tp6205
Rp6206
ag2
(g6
S'\xbf\x08'
p6207
tp6208
Rp6209
ag2
(g6
S'\xc0\x08'
p6210
tp6211
Rp6212
ag2
(g6
S'\xc1\x08'
p6213
tp6214
Rp6215
ag2
(g6
S'\xc2\x08'
p6216
tp6217
Rp6218
ag2
(g6
S'\xc3\x08'
p6219
tp6220
Rp6221
ag2
(g6
S'\xc4\x08'
p6222
tp6223
Rp6224
ag2
(g6
S'\xc5\x08'
p6225
tp6226
Rp6227
ag2
(g6
S'\xc6\x08'
p6228
tp6229
Rp6230
ag2
(g6
S'\xc7\x08'
p6231
tp6232
Rp6233
ag2
(g6
S'\xc8\x08'
p6234
tp6235
Rp6236
ag2
(g6
S'\xc9\x08'
p6237
tp6238
Rp6239
ag2
(g6
S'\xca\x08'
p6240
tp6241
Rp6242
ag2
(g6
S'\xcb\x08'
p6243
tp6244
Rp6245
ag2
(g6
S'\xcc\x08'
p6246
tp6247
Rp6248
ag2
(g6
S'\xcd\x08'
p6249
tp6250
Rp6251
ag2
(g6
S'\xce\x08'
p6252
tp6253
Rp6254
ag2
(g6
S'\xcf\x08'
p6255
tp6256
Rp6257
ag2
(g6
S'\xd0\x08'
p6258
tp6259
Rp6260
ag2
(g6
S'\xd1\x08'
p6261
tp6262
Rp6263
ag2
(g6
S'\xd2\x08'
p6264
tp6265
Rp6266
ag2
(g6
S'\xd3\x08'
p6267
tp6268
Rp6269
ag2
(g6
S'\xd4\x08'
p6270
tp6271
Rp6272
ag2
(g6
S'\xdb\x08'
p6273
tp6274
Rp6275
ag2
(g6
S'\xdc\x08'
p6276
tp6277
Rp6278
ag2
(g6
S'\xdd\x08'
p6279
tp6280
Rp6281
ag2
(g6
S'\xde\x08'
p6282
tp6283
Rp6284
ag2
(g6
S'\xdf\x08'
p6285
tp6286
Rp6287
ag2
(g6
S'\xe0\x08'
p6288
tp6289
Rp6290
ag2
(g6
S'\xe8\x08'
p6291
tp6292
Rp6293
ag2
(g6
S'\xe9\x08'
p6294
tp6295
Rp6296
ag2
(g6
S'\xea\x08'
p6297
tp6298
Rp6299
ag2
(g6
S'\xeb\x08'
p6300
tp6301
Rp6302
ag2
(g6
S'\xec\x08'
p6303
tp6304
Rp6305
ag2
(g6
S'\xed\x08'
p6306
tp6307
Rp6308
aa(lp6309
g2
(g6
S'\x93\x01'
p6310
tp6311
Rp6312
ag2
(g6
S'\xa9\x01'
p6313
tp6314
Rp6315
ag2
(g6
S'\xaa\x01'
p6316
tp6317
Rp6318
ag2
(g6
S'\xab\x01'
p6319
tp6320
Rp6321
ag2
(g6
S'\xc2\x01'
p6322
tp6323
Rp6324
ag2
(g6
S'\xc3\x01'
p6325
tp6326
Rp6327
ag2
(g6
S'\xdb\x01'
p6328
tp6329
Rp6330
ag2
(g6
S'\xdc\x01'
p6331
tp6332
Rp6333
ag2
(g6
S'\xf5\x01'
p6334
tp6335
Rp6336
ag2
(g6
S'\xf6\x01'
p6337
tp6338
Rp6339
ag2
(g6
S'\x11\x02'
p6340
tp6341
Rp6342
ag2
(g6
S'\x12\x02'
p6343
tp6344
Rp6345
ag2
(g6
S'\x13\x02'
p6346
tp6347
Rp6348
ag2
(g6
S'+\x02'
p6349
tp6350
Rp6351
ag2
(g6
S',\x02'
p6352
tp6353
Rp6354
ag2
(g6
S'-\x02'
p6355
tp6356
Rp6357
ag2
(g6
S'.\x02'
p6358
tp6359
Rp6360
ag2
(g6
S'E\x02'
p6361
tp6362
Rp6363
ag2
(g6
S'F\x02'
p6364
tp6365
Rp6366
ag2
(g6
S'G\x02'
p6367
tp6368
Rp6369
ag2
(g6
S'H\x02'
p6370
tp6371
Rp6372
ag2
(g6
S'I\x02'
p6373
tp6374
Rp6375
ag2
(g6
S']\x02'
p6376
tp6377
Rp6378
ag2
(g6
S'^\x02'
p6379
tp6380
Rp6381
ag2
(g6
S'_\x02'
p6382
tp6383
Rp6384
ag2
(g6
S'`\x02'
p6385
tp6386
Rp6387
ag2
(g6
S'a\x02'
p6388
tp6389
Rp6390
ag2
(g6
S's\x02'
p6391
tp6392
Rp6393
ag2
(g6
S't\x02'
p6394
tp6395
Rp6396
ag2
(g6
S'u\x02'
p6397
tp6398
Rp6399
ag2
(g6
S'v\x02'
p6400
tp6401
Rp6402
ag2
(g6
S'w\x02'
p6403
tp6404
Rp6405
ag2
(g6
S'x\x02'
p6406
tp6407
Rp6408
ag2
(g6
S'\x84\x02'
p6409
tp6410
Rp6411
ag2
(g6
S'\x85\x02'
p6412
tp6413
Rp6414
ag2
(g6
S'\x86\x02'
p6415
tp6416
Rp6417
ag2
(g6
S'\x87\x02'
p6418
tp6419
Rp6420
ag2
(g6
S'\x88\x02'
p6421
tp6422
Rp6423
ag2
(g6
S'\x89\x02'
p6424
tp6425
Rp6426
ag2
(g6
S'\x91\x02'
p6427
tp6428
Rp6429
ag2
(g6
S'\x92\x02'
p6430
tp6431
Rp6432
ag2
(g6
S'\x93\x02'
p6433
tp6434
Rp6435
ag2
(g6
S'\x94\x02'
p6436
tp6437
Rp6438
ag2
(g6
S'\x9a\x02'
p6439
tp6440
Rp6441
ag2
(g6
S'\x9b\x02'
p6442
tp6443
Rp6444
ag2
(g6
S'\x9c\x02'
p6445
tp6446
Rp6447
ag2
(g6
S'\x9d\x02'
p6448
tp6449
Rp6450
ag2
(g6
S'\xf9\x03'
p6451
tp6452
Rp6453
ag2
(g6
S'\x0e\x04'
p6454
tp6455
Rp6456
ag2
(g6
S'%\x04'
p6457
tp6458
Rp6459
ag2
(g6
S'&\x04'
p6460
tp6461
Rp6462
ag2
(g6
S"'\x04"
p6463
tp6464
Rp6465
ag2
(g6
S'?\x04'
p6466
tp6467
Rp6468
ag2
(g6
S'@\x04'
p6469
tp6470
Rp6471
ag2
(g6
S'Y\x04'
p6472
tp6473
Rp6474
ag2
(g6
S'Z\x04'
p6475
tp6476
Rp6477
ag2
(g6
S'u\x04'
p6478
tp6479
Rp6480
ag2
(g6
S'v\x04'
p6481
tp6482
Rp6483
ag2
(g6
S'\x92\x04'
p6484
tp6485
Rp6486
ag2
(g6
S'\xaf\x04'
p6487
tp6488
Rp6489
ag2
(g6
S'\xb0\x04'
p6490
tp6491
Rp6492
ag2
(g6
S'\xb1\x04'
p6493
tp6494
Rp6495
ag2
(g6
S'\xcc\x04'
p6496
tp6497
Rp6498
ag2
(g6
S'\xcd\x04'
p6499
tp6500
Rp6501
ag2
(g6
S'\xce\x04'
p6502
tp6503
Rp6504
ag2
(g6
S'\xcf\x04'
p6505
tp6506
Rp6507
ag2
(g6
S'\xe8\x04'
p6508
tp6509
Rp6510
ag2
(g6
S'\xe9\x04'
p6511
tp6512
Rp6513
ag2
(g6
S'\xea\x04'
p6514
tp6515
Rp6516
ag2
(g6
S'\xeb\x04'
p6517
tp6518
Rp6519
ag2
(g6
S'\x02\x05'
p6520
tp6521
Rp6522
ag2
(g6
S'\x03\x05'
p6523
tp6524
Rp6525
ag2
(g6
S'\x04\x05'
p6526
tp6527
Rp6528
ag2
(g6
S'\x05\x05'
p6529
tp6530
Rp6531
ag2
(g6
S'\x1a\x05'
p6532
tp6533
Rp6534
ag2
(g6
S'\x1b\x05'
p6535
tp6536
Rp6537
ag2
(g6
S'\x1c\x05'
p6538
tp6539
Rp6540
ag2
(g6
S'\x1d\x05'
p6541
tp6542
Rp6543
ag2
(g6
S'.\x05'
p6544
tp6545
Rp6546
ag2
(g6
S'/\x05'
p6547
tp6548
Rp6549
ag2
(g6
S'0\x05'
p6550
tp6551
Rp6552
ag2
(g6
S'\xc5\x06'
p6553
tp6554
Rp6555
ag2
(g6
S'\xe1\x06'
p6556
tp6557
Rp6558
ag2
(g6
S'\xfd\x06'
p6559
tp6560
Rp6561
ag2
(g6
S'\xfe\x06'
p6562
tp6563
Rp6564
ag2
(g6
S'\xff\x06'
p6565
tp6566
Rp6567
ag2
(g6
S'\x1a\x07'
p6568
tp6569
Rp6570
ag2
(g6
S'\x1b\x07'
p6571
tp6572
Rp6573
ag2
(g6
S'\x1c\x07'
p6574
tp6575
Rp6576
ag2
(g6
S'\x1d\x07'
p6577
tp6578
Rp6579
ag2
(g6
S'5\x07'
p6580
tp6581
Rp6582
ag2
(g6
S'6\x07'
p6583
tp6584
Rp6585
ag2
(g6
S'7\x07'
p6586
tp6587
Rp6588
ag2
(g6
S'8\x07'
p6589
tp6590
Rp6591
ag2
(g6
S'9\x07'
p6592
tp6593
Rp6594
ag2
(g6
S'P\x07'
p6595
tp6596
Rp6597
ag2
(g6
S'Q\x07'
p6598
tp6599
Rp6600
ag2
(g6
S'R\x07'
p6601
tp6602
Rp6603
ag2
(g6
S'S\x07'
p6604
tp6605
Rp6606
ag2
(g6
S'T\x07'
p6607
tp6608
Rp6609
ag2
(g6
S'U\x07'
p6610
tp6611
Rp6612
ag2
(g6
S'h\x07'
p6613
tp6614
Rp6615
ag2
(g6
S'i\x07'
p6616
tp6617
Rp6618
ag2
(g6
S'j\x07'
p6619
tp6620
Rp6621
ag2
(g6
S'k\x07'
p6622
tp6623
Rp6624
ag2
(g6
S'l\x07'
p6625
tp6626
Rp6627
ag2
(g6
S'm\x07'
p6628
tp6629
Rp6630
ag2
(g6
S'~\x07'
p6631
tp6632
Rp6633
ag2
(g6
S'\x7f\x07'
p6634
tp6635
Rp6636
ag2
(g6
S'\x80\x07'
p6637
tp6638
Rp6639
ag2
(g6
S'\x81\x07'
p6640
tp6641
Rp6642
ag2
(g6
S'\x82\x07'
p6643
tp6644
Rp6645
ag2
(g6
S'\x8f\x07'
p6646
tp6647
Rp6648
ag2
(g6
S'\x90\x07'
p6649
tp6650
Rp6651
ag2
(g6
S'\x91\x07'
p6652
tp6653
Rp6654
ag2
(g6
S'%\t'
p6655
tp6656
Rp6657
ag2
(g6
S'&\t'
p6658
tp6659
Rp6660
ag2
(g6
S"'\t"
p6661
tp6662
Rp6663
ag2
(g6
S'9\t'
p6664
tp6665
Rp6666
ag2
(g6
S':\t'
p6667
tp6668
Rp6669
ag2
(g6
S';\t'
p6670
tp6671
Rp6672
ag2
(g6
S'M\t'
p6673
tp6674
Rp6675
ag2
(g6
S'N\t'
p6676
tp6677
Rp6678
ag2
(g6
S'O\t'
p6679
tp6680
Rp6681
ag2
(g6
S'P\t'
p6682
tp6683
Rp6684
ag2
(g6
S'c\t'
p6685
tp6686
Rp6687
ag2
(g6
S'd\t'
p6688
tp6689
Rp6690
ag2
(g6
S'e\t'
p6691
tp6692
Rp6693
ag2
(g6
S'f\t'
p6694
tp6695
Rp6696
ag2
(g6
S'y\t'
p6697
tp6698
Rp6699
ag2
(g6
S'z\t'
p6700
tp6701
Rp6702
ag2
(g6
S'{\t'
p6703
tp6704
Rp6705
ag2
(g6
S'|\t'
p6706
tp6707
Rp6708
ag2
(g6
S'\x8e\t'
p6709
tp6710
Rp6711
ag2
(g6
S'\x8f\t'
p6712
tp6713
Rp6714
ag2
(g6
S'\x90\t'
p6715
tp6716
Rp6717
ag2
(g6
S'\x91\t'
p6718
tp6719
Rp6720
aa(lp6721
g2
(g6
S'\xa1\n'
p6722
tp6723
Rp6724
ag2
(g6
S'\xa2\n'
p6725
tp6726
Rp6727
ag2
(g6
S'\xa3\n'
p6728
tp6729
Rp6730
ag2
(g6
S'\xa4\n'
p6731
tp6732
Rp6733
ag2
(g6
S'\xab\n'
p6734
tp6735
Rp6736
ag2
(g6
S'\xac\n'
p6737
tp6738
Rp6739
ag2
(g6
S'\xad\n'
p6740
tp6741
Rp6742
ag2
(g6
S'\xae\n'
p6743
tp6744
Rp6745
ag2
(g6
S'\xaf\n'
p6746
tp6747
Rp6748
ag2
(g6
S'\xb0\n'
p6749
tp6750
Rp6751
ag2
(g6
S'\xb7\n'
p6752
tp6753
Rp6754
ag2
(g6
S'\xb8\n'
p6755
tp6756
Rp6757
ag2
(g6
S'\xb9\n'
p6758
tp6759
Rp6760
ag2
(g6
S'\xba\n'
p6761
tp6762
Rp6763
ag2
(g6
S'\xbb\n'
p6764
tp6765
Rp6766
ag2
(g6
S'\xbc\n'
p6767
tp6768
Rp6769
ag2
(g6
S'\xbd\n'
p6770
tp6771
Rp6772
ag2
(g6
S'\xc5\n'
p6773
tp6774
Rp6775
ag2
(g6
S'\xc6\n'
p6776
tp6777
Rp6778
ag2
(g6
S'\xc7\n'
p6779
tp6780
Rp6781
ag2
(g6
S'\xc8\n'
p6782
tp6783
Rp6784
ag2
(g6
S'\xc9\n'
p6785
tp6786
Rp6787
ag2
(g6
S'\xca\n'
p6788
tp6789
Rp6790
ag2
(g6
S'\xcb\n'
p6791
tp6792
Rp6793
ag2
(g6
S'\xcc\n'
p6794
tp6795
Rp6796
ag2
(g6
S'\xd4\n'
p6797
tp6798
Rp6799
ag2
(g6
S'\xd5\n'
p6800
tp6801
Rp6802
ag2
(g6
S'\xd6\n'
p6803
tp6804
Rp6805
ag2
(g6
S'\xd7\n'
p6806
tp6807
Rp6808
ag2
(g6
S'\xd8\n'
p6809
tp6810
Rp6811
ag2
(g6
S'\xd9\n'
p6812
tp6813
Rp6814
ag2
(g6
S'\xda\n'
p6815
tp6816
Rp6817
ag2
(g6
S'\xdb\n'
p6818
tp6819
Rp6820
ag2
(g6
S'\xe4\n'
p6821
tp6822
Rp6823
ag2
(g6
S'\xe5\n'
p6824
tp6825
Rp6826
ag2
(g6
S'\xe6\n'
p6827
tp6828
Rp6829
ag2
(g6
S'\xe7\n'
p6830
tp6831
Rp6832
ag2
(g6
S'\xe8\n'
p6833
tp6834
Rp6835
ag2
(g6
S'\xe9\n'
p6836
tp6837
Rp6838
ag2
(g6
S'\xea\n'
p6839
tp6840
Rp6841
ag2
(g6
S'\xeb\n'
p6842
tp6843
Rp6844
ag2
(g6
S'\xec\n'
p6845
tp6846
Rp6847
ag2
(g6
S'\xf5\n'
p6848
tp6849
Rp6850
ag2
(g6
S'\xf6\n'
p6851
tp6852
Rp6853
ag2
(g6
S'\xf7\n'
p6854
tp6855
Rp6856
ag2
(g6
S'\xf8\n'
p6857
tp6858
Rp6859
ag2
(g6
S'\xf9\n'
p6860
tp6861
Rp6862
ag2
(g6
S'\xfa\n'
p6863
tp6864
Rp6865
ag2
(g6
S'\xfb\n'
p6866
tp6867
Rp6868
ag2
(g6
S'\xfc\n'
p6869
tp6870
Rp6871
ag2
(g6
S'\xfd\n'
p6872
tp6873
Rp6874
ag2
(g6
S'\x06\x0b'
p6875
tp6876
Rp6877
ag2
(g6
S'\x07\x0b'
p6878
tp6879
Rp6880
ag2
(g6
S'\x08\x0b'
p6881
tp6882
Rp6883
ag2
(g6
S'\t\x0b'
p6884
tp6885
Rp6886
ag2
(g6
S'\n\x0b'
p6887
tp6888
Rp6889
ag2
(g6
S'\x0b\x0b'
p6890
tp6891
Rp6892
ag2
(g6
S'\x0c\x0b'
p6893
tp6894
Rp6895
ag2
(g6
S'\r\x0b'
p6896
tp6897
Rp6898
ag2
(g6
S'\x0e\x0b'
p6899
tp6900
Rp6901
ag2
(g6
S'\x17\x0b'
p6902
tp6903
Rp6904
ag2
(g6
S'\x18\x0b'
p6905
tp6906
Rp6907
ag2
(g6
S'\x19\x0b'
p6908
tp6909
Rp6910
ag2
(g6
S'\x1a\x0b'
p6911
tp6912
Rp6913
ag2
(g6
S'\x1b\x0b'
p6914
tp6915
Rp6916
ag2
(g6
S'\x1c\x0b'
p6917
tp6918
Rp6919
ag2
(g6
S'\x1d\x0b'
p6920
tp6921
Rp6922
ag2
(g6
S'\x1e\x0b'
p6923
tp6924
Rp6925
ag2
(g6
S'\x1f\x0b'
p6926
tp6927
Rp6928
ag2
(g6
S"'\x0b"
p6929
tp6930
Rp6931
ag2
(g6
S'(\x0b'
p6932
tp6933
Rp6934
ag2
(g6
S')\x0b'
p6935
tp6936
Rp6937
ag2
(g6
S'*\x0b'
p6938
tp6939
Rp6940
ag2
(g6
S'+\x0b'
p6941
tp6942
Rp6943
ag2
(g6
S',\x0b'
p6944
tp6945
Rp6946
ag2
(g6
S'-\x0b'
p6947
tp6948
Rp6949
ag2
(g6
S'.\x0b'
p6950
tp6951
Rp6952
ag2
(g6
S'/\x0b'
p6953
tp6954
Rp6955
ag2
(g6
S'7\x0b'
p6956
tp6957
Rp6958
ag2
(g6
S'8\x0b'
p6959
tp6960
Rp6961
ag2
(g6
S'9\x0b'
p6962
tp6963
Rp6964
ag2
(g6
S':\x0b'
p6965
tp6966
Rp6967
ag2
(g6
S';\x0b'
p6968
tp6969
Rp6970
ag2
(g6
S'<\x0b'
p6971
tp6972
Rp6973
ag2
(g6
S'=\x0b'
p6974
tp6975
Rp6976
ag2
(g6
S'>\x0b'
p6977
tp6978
Rp6979
ag2
(g6
S'?\x0b'
p6980
tp6981
Rp6982
ag2
(g6
S'G\x0b'
p6983
tp6984
Rp6985
ag2
(g6
S'H\x0b'
p6986
tp6987
Rp6988
ag2
(g6
S'I\x0b'
p6989
tp6990
Rp6991
ag2
(g6
S'J\x0b'
p6992
tp6993
Rp6994
ag2
(g6
S'K\x0b'
p6995
tp6996
Rp6997
ag2
(g6
S'L\x0b'
p6998
tp6999
Rp7000
ag2
(g6
S'M\x0b'
p7001
tp7002
Rp7003
ag2
(g6
S'N\x0b'
p7004
tp7005
Rp7006
ag2
(g6
S'O\x0b'
p7007
tp7008
Rp7009
ag2
(g6
S']\x0b'
p7010
tp7011
Rp7012
ag2
(g6
S'^\x0b'
p7013
tp7014
Rp7015
ag2
(g6
S'_\x0b'
p7016
tp7017
Rp7018
ag2
(g6
S'`\x0b'
p7019
tp7020
Rp7021
ag2
(g6
S'a\x0b'
p7022
tp7023
Rp7024
ag2
(g6
S'b\x0b'
p7025
tp7026
Rp7027
ag2
(g6
S'c\x0b'
p7028
tp7029
Rp7030
ag2
(g6
S'd\x0b'
p7031
tp7032
Rp7033
ag2
(g6
S'r\x0b'
p7034
tp7035
Rp7036
ag2
(g6
S's\x0b'
p7037
tp7038
Rp7039
ag2
(g6
S't\x0b'
p7040
tp7041
Rp7042
ag2
(g6
S'u\x0b'
p7043
tp7044
Rp7045
ag2
(g6
S'v\x0b'
p7046
tp7047
Rp7048
ag2
(g6
S'w\x0b'
p7049
tp7050
Rp7051
ag2
(g6
S'x\x0b'
p7052
tp7053
Rp7054
ag2
(g6
S'y\x0b'
p7055
tp7056
Rp7057
ag2
(g6
S'\x8a\x0b'
p7058
tp7059
Rp7060
ag2
(g6
S'\x8b\x0b'
p7061
tp7062
Rp7063
ag2
(g6
S'\x8c\x0b'
p7064
tp7065
Rp7066
ag2
(g6
S'\x8d\x0b'
p7067
tp7068
Rp7069
ag2
(g6
S'\x8e\x0b'
p7070
tp7071
Rp7072
ag2
(g6
S'\x8f\x0b'
p7073
tp7074
Rp7075
ag2
(g6
S'\x90\x0b'
p7076
tp7077
Rp7078
ag2
(g6
S'\x91\x0b'
p7079
tp7080
Rp7081
ag2
(g6
S'\xa4\x0b'
p7082
tp7083
Rp7084
ag2
(g6
S'\xa5\x0b'
p7085
tp7086
Rp7087
ag2
(g6
S'\xa6\x0b'
p7088
tp7089
Rp7090
ag2
(g6
S'\xa7\x0b'
p7091
tp7092
Rp7093
ag2
(g6
S'\xa8\x0b'
p7094
tp7095
Rp7096
ag2
(g6
S'\xa9\x0b'
p7097
tp7098
Rp7099
ag2
(g6
S'\xaa\x0b'
p7100
tp7101
Rp7102
ag2
(g6
S'\xab\x0b'
p7103
tp7104
Rp7105
ag2
(g6
S'\xbf\x0b'
p7106
tp7107
Rp7108
ag2
(g6
S'\xc0\x0b'
p7109
tp7110
Rp7111
ag2
(g6
S'\xc1\x0b'
p7112
tp7113
Rp7114
ag2
(g6
S'\xc2\x0b'
p7115
tp7116
Rp7117
ag2
(g6
S'\xc3\x0b'
p7118
tp7119
Rp7120
ag2
(g6
S'\xc4\x0b'
p7121
tp7122
Rp7123
ag2
(g6
S'\xc5\x0b'
p7124
tp7125
Rp7126
ag2
(g6
S'\xdc\x0b'
p7127
tp7128
Rp7129
ag2
(g6
S'\xdd\x0b'
p7130
tp7131
Rp7132
ag2
(g6
S'+\r'
p7133
tp7134
Rp7135
ag2
(g6
S',\r'
p7136
tp7137
Rp7138
ag2
(g6
S'-\r'
p7139
tp7140
Rp7141
ag2
(g6
S'.\r'
p7142
tp7143
Rp7144
ag2
(g6
S'5\r'
p7145
tp7146
Rp7147
ag2
(g6
S'6\r'
p7148
tp7149
Rp7150
ag2
(g6
S'7\r'
p7151
tp7152
Rp7153
ag2
(g6
S'8\r'
p7154
tp7155
Rp7156
ag2
(g6
S'@\r'
p7157
tp7158
Rp7159
ag2
(g6
S'A\r'
p7160
tp7161
Rp7162
ag2
(g6
S'B\r'
p7163
tp7164
Rp7165
ag2
(g6
S'C\r'
p7166
tp7167
Rp7168
ag2
(g6
S'M\r'
p7169
tp7170
Rp7171
ag2
(g6
S'N\r'
p7172
tp7173
Rp7174
ag2
(g6
S'O\r'
p7175
tp7176
Rp7177
ag2
(g6
S'P\r'
p7178
tp7179
Rp7180
ag2
(g6
S'Z\r'
p7181
tp7182
Rp7183
ag2
(g6
S'[\r'
p7184
tp7185
Rp7186
ag2
(g6
S'\\\r'
p7187
tp7188
Rp7189
ag2
(g6
S']\r'
p7190
tp7191
Rp7192
ag2
(g6
S'^\r'
p7193
tp7194
Rp7195
ag2
(g6
S'_\r'
p7196
tp7197
Rp7198
ag2
(g6
S'i\r'
p7199
tp7200
Rp7201
ag2
(g6
S'j\r'
p7202
tp7203
Rp7204
ag2
(g6
S'k\r'
p7205
tp7206
Rp7207
ag2
(g6
S'l\r'
p7208
tp7209
Rp7210
ag2
(g6
S'm\r'
p7211
tp7212
Rp7213
ag2
(g6
S'n\r'
p7214
tp7215
Rp7216
ag2
(g6
S'o\r'
p7217
tp7218
Rp7219
ag2
(g6
S'y\r'
p7220
tp7221
Rp7222
ag2
(g6
S'z\r'
p7223
tp7224
Rp7225
ag2
(g6
S'{\r'
p7226
tp7227
Rp7228
ag2
(g6
S'|\r'
p7229
tp7230
Rp7231
ag2
(g6
S'}\r'
p7232
tp7233
Rp7234
ag2
(g6
S'~\r'
p7235
tp7236
Rp7237
ag2
(g6
S'\x7f\r'
p7238
tp7239
Rp7240
ag2
(g6
S'\x89\r'
p7241
tp7242
Rp7243
ag2
(g6
S'\x8a\r'
p7244
tp7245
Rp7246
ag2
(g6
S'\x8b\r'
p7247
tp7248
Rp7249
ag2
(g6
S'\x8c\r'
p7250
tp7251
Rp7252
ag2
(g6
S'\x8d\r'
p7253
tp7254
Rp7255
ag2
(g6
S'\x8e\r'
p7256
tp7257
Rp7258
ag2
(g6
S'\x8f\r'
p7259
tp7260
Rp7261
ag2
(g6
S'\x90\r'
p7262
tp7263
Rp7264
ag2
(g6
S'\x9a\r'
p7265
tp7266
Rp7267
ag2
(g6
S'\x9b\r'
p7268
tp7269
Rp7270
ag2
(g6
S'\x9c\r'
p7271
tp7272
Rp7273
ag2
(g6
S'\x9d\r'
p7274
tp7275
Rp7276
ag2
(g6
S'\x9e\r'
p7277
tp7278
Rp7279
ag2
(g6
S'\x9f\r'
p7280
tp7281
Rp7282
ag2
(g6
S'\xa0\r'
p7283
tp7284
Rp7285
ag2
(g6
S'\xab\r'
p7286
tp7287
Rp7288
ag2
(g6
S'\xac\r'
p7289
tp7290
Rp7291
ag2
(g6
S'\xad\r'
p7292
tp7293
Rp7294
ag2
(g6
S'\xae\r'
p7295
tp7296
Rp7297
ag2
(g6
S'\xaf\r'
p7298
tp7299
Rp7300
ag2
(g6
S'\xb0\r'
p7301
tp7302
Rp7303
ag2
(g6
S'\xb1\r'
p7304
tp7305
Rp7306
ag2
(g6
S'\xbc\r'
p7307
tp7308
Rp7309
ag2
(g6
S'\xbd\r'
p7310
tp7311
Rp7312
ag2
(g6
S'\xbe\r'
p7313
tp7314
Rp7315
ag2
(g6
S'\xbf\r'
p7316
tp7317
Rp7318
ag2
(g6
S'\xc0\r'
p7319
tp7320
Rp7321
ag2
(g6
S'\xc1\r'
p7322
tp7323
Rp7324
ag2
(g6
S'\xc2\r'
p7325
tp7326
Rp7327
ag2
(g6
S'\xcc\r'
p7328
tp7329
Rp7330
ag2
(g6
S'\xcd\r'
p7331
tp7332
Rp7333
ag2
(g6
S'\xce\r'
p7334
tp7335
Rp7336
ag2
(g6
S'\xcf\r'
p7337
tp7338
Rp7339
ag2
(g6
S'\xd0\r'
p7340
tp7341
Rp7342
ag2
(g6
S'\xd1\r'
p7343
tp7344
Rp7345
ag2
(g6
S'\xd2\r'
p7346
tp7347
Rp7348
ag2
(g6
S'\xdb\r'
p7349
tp7350
Rp7351
ag2
(g6
S'\xdc\r'
p7352
tp7353
Rp7354
ag2
(g6
S'\xdd\r'
p7355
tp7356
Rp7357
ag2
(g6
S'\xde\r'
p7358
tp7359
Rp7360
ag2
(g6
S'\xdf\r'
p7361
tp7362
Rp7363
ag2
(g6
S'\xe0\r'
p7364
tp7365
Rp7366
ag2
(g6
S'\xe1\r'
p7367
tp7368
Rp7369
ag2
(g6
S'\xec\r'
p7370
tp7371
Rp7372
ag2
(g6
S'\xed\r'
p7373
tp7374
Rp7375
ag2
(g6
S'\xee\r'
p7376
tp7377
Rp7378
ag2
(g6
S'\xef\r'
p7379
tp7380
Rp7381
ag2
(g6
S'\xf0\r'
p7382
tp7383
Rp7384
ag2
(g6
S'\xf1\r'
p7385
tp7386
Rp7387
ag2
(g6
S'\xf2\r'
p7388
tp7389
Rp7390
ag2
(g6
S'\xfd\r'
p7391
tp7392
Rp7393
ag2
(g6
S'\xfe\r'
p7394
tp7395
Rp7396
ag2
(g6
S'\xff\r'
p7397
tp7398
Rp7399
ag2
(g6
S'\x00\x0e'
p7400
tp7401
Rp7402
ag2
(g6
S'\x01\x0e'
p7403
tp7404
Rp7405
ag2
(g6
S'\x02\x0e'
p7406
tp7407
Rp7408
ag2
(g6
S'\r\x0e'
p7409
tp7410
Rp7411
ag2
(g6
S'\x0e\x0e'
p7412
tp7413
Rp7414
ag2
(g6
S'\x0f\x0e'
p7415
tp7416
Rp7417
ag2
(g6
S'\x10\x0e'
p7418
tp7419
Rp7420
ag2
(g6
S'\x11\x0e'
p7421
tp7422
Rp7423
ag2
(g6
S'\x12\x0e'
p7424
tp7425
Rp7426
ag2
(g6
S'\x13\x0e'
p7427
tp7428
Rp7429
ag2
(g6
S'!\x0e'
p7430
tp7431
Rp7432
ag2
(g6
S'"\x0e'
p7433
tp7434
Rp7435
ag2
(g6
S'#\x0e'
p7436
tp7437
Rp7438
ag2
(g6
S'$\x0e'
p7439
tp7440
Rp7441
ag2
(g6
S'%\x0e'
p7442
tp7443
Rp7444
ag2
(g6
S'&\x0e'
p7445
tp7446
Rp7447
ag2
(g6
S'8\x0e'
p7448
tp7449
Rp7450
ag2
(g6
S'9\x0e'
p7451
tp7452
Rp7453
ag2
(g6
S':\x0e'
p7454
tp7455
Rp7456
ag2
(g6
S'\x99\x0f'
p7457
tp7458
Rp7459
ag2
(g6
S'\x9f\x0f'
p7460
tp7461
Rp7462
ag2
(g6
S'\xa0\x0f'
p7463
tp7464
Rp7465
ag2
(g6
S'\xa6\x0f'
p7466
tp7467
Rp7468
ag2
(g6
S'\xa7\x0f'
p7469
tp7470
Rp7471
ag2
(g6
S'\xa8\x0f'
p7472
tp7473
Rp7474
ag2
(g6
S'\xa9\x0f'
p7475
tp7476
Rp7477
ag2
(g6
S'\xaf\x0f'
p7478
tp7479
Rp7480
ag2
(g6
S'\xb0\x0f'
p7481
tp7482
Rp7483
ag2
(g6
S'\xb1\x0f'
p7484
tp7485
Rp7486
ag2
(g6
S'\xb2\x0f'
p7487
tp7488
Rp7489
ag2
(g6
S'\xb3\x0f'
p7490
tp7491
Rp7492
ag2
(g6
S'\xb4\x0f'
p7493
tp7494
Rp7495
ag2
(g6
S'\xbb\x0f'
p7496
tp7497
Rp7498
ag2
(g6
S'\xbc\x0f'
p7499
tp7500
Rp7501
ag2
(g6
S'\xbd\x0f'
p7502
tp7503
Rp7504
ag2
(g6
S'\xbe\x0f'
p7505
tp7506
Rp7507
ag2
(g6
S'\xbf\x0f'
p7508
tp7509
Rp7510
ag2
(g6
S'\xc0\x0f'
p7511
tp7512
Rp7513
ag2
(g6
S'\xc1\x0f'
p7514
tp7515
Rp7516
ag2
(g6
S'\xc8\x0f'
p7517
tp7518
Rp7519
ag2
(g6
S'\xc9\x0f'
p7520
tp7521
Rp7522
ag2
(g6
S'\xca\x0f'
p7523
tp7524
Rp7525
ag2
(g6
S'\xcb\x0f'
p7526
tp7527
Rp7528
ag2
(g6
S'\xcc\x0f'
p7529
tp7530
Rp7531
ag2
(g6
S'\xcd\x0f'
p7532
tp7533
Rp7534
ag2
(g6
S'\xce\x0f'
p7535
tp7536
Rp7537
ag2
(g6
S'\xd5\x0f'
p7538
tp7539
Rp7540
ag2
(g6
S'\xd6\x0f'
p7541
tp7542
Rp7543
ag2
(g6
S'\xd7\x0f'
p7544
tp7545
Rp7546
ag2
(g6
S'\xd8\x0f'
p7547
tp7548
Rp7549
ag2
(g6
S'\xd9\x0f'
p7550
tp7551
Rp7552
ag2
(g6
S'\xda\x0f'
p7553
tp7554
Rp7555
ag2
(g6
S'\xdb\x0f'
p7556
tp7557
Rp7558
ag2
(g6
S'\xdc\x0f'
p7559
tp7560
Rp7561
ag2
(g6
S'\xe4\x0f'
p7562
tp7563
Rp7564
ag2
(g6
S'\xe5\x0f'
p7565
tp7566
Rp7567
ag2
(g6
S'\xe6\x0f'
p7568
tp7569
Rp7570
ag2
(g6
S'\xe7\x0f'
p7571
tp7572
Rp7573
ag2
(g6
S'\xe8\x0f'
p7574
tp7575
Rp7576
ag2
(g6
S'\xe9\x0f'
p7577
tp7578
Rp7579
ag2
(g6
S'\xea\x0f'
p7580
tp7581
Rp7582
ag2
(g6
S'\xeb\x0f'
p7583
tp7584
Rp7585
ag2
(g6
S'\xf3\x0f'
p7586
tp7587
Rp7588
ag2
(g6
S'\xf4\x0f'
p7589
tp7590
Rp7591
ag2
(g6
S'\xf5\x0f'
p7592
tp7593
Rp7594
ag2
(g6
S'\xf6\x0f'
p7595
tp7596
Rp7597
ag2
(g6
S'\xf7\x0f'
p7598
tp7599
Rp7600
ag2
(g6
S'\xf8\x0f'
p7601
tp7602
Rp7603
ag2
(g6
S'\xf9\x0f'
p7604
tp7605
Rp7606
ag2
(g6
S'\xfa\x0f'
p7607
tp7608
Rp7609
ag2
(g6
S'\x02\x10'
p7610
tp7611
Rp7612
ag2
(g6
S'\x03\x10'
p7613
tp7614
Rp7615
ag2
(g6
S'\x04\x10'
p7616
tp7617
Rp7618
ag2
(g6
S'\x05\x10'
p7619
tp7620
Rp7621
ag2
(g6
S'\x06\x10'
p7622
tp7623
Rp7624
ag2
(g6
S'\x07\x10'
p7625
tp7626
Rp7627
ag2
(g6
S'\x08\x10'
p7628
tp7629
Rp7630
ag2
(g6
S'\x0f\x10'
p7631
tp7632
Rp7633
ag2
(g6
S'\x10\x10'
p7634
tp7635
Rp7636
ag2
(g6
S'\x11\x10'
p7637
tp7638
Rp7639
ag2
(g6
S'\x12\x10'
p7640
tp7641
Rp7642
ag2
(g6
S'\x13\x10'
p7643
tp7644
Rp7645
ag2
(g6
S'\x14\x10'
p7646
tp7647
Rp7648
ag2
(g6
S'\x15\x10'
p7649
tp7650
Rp7651
ag2
(g6
S'\x1c\x10'
p7652
tp7653
Rp7654
ag2
(g6
S'\x1d\x10'
p7655
tp7656
Rp7657
ag2
(g6
S'\x1e\x10'
p7658
tp7659
Rp7660
ag2
(g6
S'\x1f\x10'
p7661
tp7662
Rp7663
ag2
(g6
S' \x10'
p7664
tp7665
Rp7666
ag2
(g6
S'!\x10'
p7667
tp7668
Rp7669
ag2
(g6
S'*\x10'
p7670
tp7671
Rp7672
ag2
(g6
S'+\x10'
p7673
tp7674
Rp7675
ag2
(g6
S',\x10'
p7676
tp7677
Rp7678
ag2
(g6
S'-\x10'
p7679
tp7680
Rp7681
ag2
(g6
S'.\x10'
p7682
tp7683
Rp7684
ag2
(g6
S'/\x10'
p7685
tp7686
Rp7687
ag2
(g6
S'9\x10'
p7688
tp7689
Rp7690
ag2
(g6
S':\x10'
p7691
tp7692
Rp7693
ag2
(g6
S';\x10'
p7694
tp7695
Rp7696
ag2
(g6
S'<\x10'
p7697
tp7698
Rp7699
ag2
(g6
S'=\x10'
p7700
tp7701
Rp7702
ag2
(g6
S'>\x10'
p7703
tp7704
Rp7705
ag2
(g6
S'H\x10'
p7706
tp7707
Rp7708
ag2
(g6
S'I\x10'
p7709
tp7710
Rp7711
ag2
(g6
S'J\x10'
p7712
tp7713
Rp7714
ag2
(g6
S'K\x10'
p7715
tp7716
Rp7717
ag2
(g6
S'L\x10'
p7718
tp7719
Rp7720
ag2
(g6
S'M\x10'
p7721
tp7722
Rp7723
ag2
(g6
S'X\x10'
p7724
tp7725
Rp7726
ag2
(g6
S'Y\x10'
p7727
tp7728
Rp7729
ag2
(g6
S'Z\x10'
p7730
tp7731
Rp7732
ag2
(g6
S'[\x10'
p7733
tp7734
Rp7735
ag2
(g6
S'\\\x10'
p7736
tp7737
Rp7738
ag2
(g6
S']\x10'
p7739
tp7740
Rp7741
ag2
(g6
S'h\x10'
p7742
tp7743
Rp7744
ag2
(g6
S'i\x10'
p7745
tp7746
Rp7747
ag2
(g6
S'j\x10'
p7748
tp7749
Rp7750
ag2
(g6
S'k\x10'
p7751
tp7752
Rp7753
ag2
(g6
S'l\x10'
p7754
tp7755
Rp7756
ag2
(g6
S'x\x10'
p7757
tp7758
Rp7759
ag2
(g6
S'y\x10'
p7760
tp7761
Rp7762
ag2
(g6
S'z\x10'
p7763
tp7764
Rp7765
ag2
(g6
S'\xf2\x10'
p7766
tp7767
Rp7768
ag2
(g6
S'\xf3\x10'
p7769
tp7770
Rp7771
ag2
(g6
S'\xf4\x10'
p7772
tp7773
Rp7774
ag2
(g6
S'\xfc\x10'
p7775
tp7776
Rp7777
ag2
(g6
S'\xfd\x10'
p7778
tp7779
Rp7780
ag2
(g6
S'\xfe\x10'
p7781
tp7782
Rp7783
ag2
(g6
S'\x07\x11'
p7784
tp7785
Rp7786
ag2
(g6
S'\x08\x11'
p7787
tp7788
Rp7789
ag2
(g6
S'\t\x11'
p7790
tp7791
Rp7792
ag2
(g6
S'\n\x11'
p7793
tp7794
Rp7795
ag2
(g6
S'\x11\x11'
p7796
tp7797
Rp7798
ag2
(g6
S'\x12\x11'
p7799
tp7800
Rp7801
ag2
(g6
S'\x13\x11'
p7802
tp7803
Rp7804
ag2
(g6
S'\x14\x11'
p7805
tp7806
Rp7807
ag2
(g6
S'\x15\x11'
p7808
tp7809
Rp7810
ag2
(g6
S'\x1b\x11'
p7811
tp7812
Rp7813
ag2
(g6
S'\x1c\x11'
p7814
tp7815
Rp7816
ag2
(g6
S'\x1d\x11'
p7817
tp7818
Rp7819
ag2
(g6
S'\x1e\x11'
p7820
tp7821
Rp7822
ag2
(g6
S'\x1f\x11'
p7823
tp7824
Rp7825
ag2
(g6
S'%\x11'
p7826
tp7827
Rp7828
ag2
(g6
S'&\x11'
p7829
tp7830
Rp7831
ag2
(g6
S"'\x11"
p7832
tp7833
Rp7834
ag2
(g6
S'(\x11'
p7835
tp7836
Rp7837
ag2
(g6
S')\x11'
p7838
tp7839
Rp7840
ag2
(g6
S'*\x11'
p7841
tp7842
Rp7843
ag2
(g6
S'+\x11'
p7844
tp7845
Rp7846
ag2
(g6
S'2\x11'
p7847
tp7848
Rp7849
ag2
(g6
S'3\x11'
p7850
tp7851
Rp7852
ag2
(g6
S'4\x11'
p7853
tp7854
Rp7855
ag2
(g6
S'5\x11'
p7856
tp7857
Rp7858
ag2
(g6
S'6\x11'
p7859
tp7860
Rp7861
ag2
(g6
S'7\x11'
p7862
tp7863
Rp7864
ag2
(g6
S'8\x11'
p7865
tp7866
Rp7867
ag2
(g6
S'@\x11'
p7868
tp7869
Rp7870
ag2
(g6
S'A\x11'
p7871
tp7872
Rp7873
ag2
(g6
S'B\x11'
p7874
tp7875
Rp7876
ag2
(g6
S'C\x11'
p7877
tp7878
Rp7879
ag2
(g6
S'D\x11'
p7880
tp7881
Rp7882
ag2
(g6
S'E\x11'
p7883
tp7884
Rp7885
ag2
(g6
S'F\x11'
p7886
tp7887
Rp7888
ag2
(g6
S'G\x11'
p7889
tp7890
Rp7891
ag2
(g6
S'O\x11'
p7892
tp7893
Rp7894
ag2
(g6
S'P\x11'
p7895
tp7896
Rp7897
ag2
(g6
S'Q\x11'
p7898
tp7899
Rp7900
ag2
(g6
S'R\x11'
p7901
tp7902
Rp7903
ag2
(g6
S'S\x11'
p7904
tp7905
Rp7906
ag2
(g6
S'T\x11'
p7907
tp7908
Rp7909
ag2
(g6
S'U\x11'
p7910
tp7911
Rp7912
ag2
(g6
S'V\x11'
p7913
tp7914
Rp7915
ag2
(g6
S'^\x11'
p7916
tp7917
Rp7918
ag2
(g6
S'_\x11'
p7919
tp7920
Rp7921
ag2
(g6
S'`\x11'
p7922
tp7923
Rp7924
ag2
(g6
S'a\x11'
p7925
tp7926
Rp7927
ag2
(g6
S'b\x11'
p7928
tp7929
Rp7930
ag2
(g6
S'c\x11'
p7931
tp7932
Rp7933
ag2
(g6
S'd\x11'
p7934
tp7935
Rp7936
ag2
(g6
S'e\x11'
p7937
tp7938
Rp7939
ag2
(g6
S'l\x11'
p7940
tp7941
Rp7942
ag2
(g6
S'm\x11'
p7943
tp7944
Rp7945
ag2
(g6
S'n\x11'
p7946
tp7947
Rp7948
ag2
(g6
S'o\x11'
p7949
tp7950
Rp7951
ag2
(g6
S'p\x11'
p7952
tp7953
Rp7954
ag2
(g6
S'q\x11'
p7955
tp7956
Rp7957
ag2
(g6
S'r\x11'
p7958
tp7959
Rp7960
ag2
(g6
S's\x11'
p7961
tp7962
Rp7963
ag2
(g6
S'|\x11'
p7964
tp7965
Rp7966
ag2
(g6
S'}\x11'
p7967
tp7968
Rp7969
ag2
(g6
S'~\x11'
p7970
tp7971
Rp7972
ag2
(g6
S'\x7f\x11'
p7973
tp7974
Rp7975
ag2
(g6
S'\x80\x11'
p7976
tp7977
Rp7978
ag2
(g6
S'\x81\x11'
p7979
tp7980
Rp7981
ag2
(g6
S'\x82\x11'
p7982
tp7983
Rp7984
ag2
(g6
S'\x83\x11'
p7985
tp7986
Rp7987
ag2
(g6
S'\x8c\x11'
p7988
tp7989
Rp7990
ag2
(g6
S'\x8d\x11'
p7991
tp7992
Rp7993
ag2
(g6
S'\x8e\x11'
p7994
tp7995
Rp7996
ag2
(g6
S'\x8f\x11'
p7997
tp7998
Rp7999
ag2
(g6
S'\x90\x11'
p8000
tp8001
Rp8002
ag2
(g6
S'\x91\x11'
p8003
tp8004
Rp8005
ag2
(g6
S'\x9c\x11'
p8006
tp8007
Rp8008
ag2
(g6
S'\x9d\x11'
p8009
tp8010
Rp8011
ag2
(g6
S'\x9e\x11'
p8012
tp8013
Rp8014
ag2
(g6
S'\x9f\x11'
p8015
tp8016
Rp8017
ag2
(g6
S'\xa0\x11'
p8018
tp8019
Rp8020
ag2
(g6
S'\xa1\x11'
p8021
tp8022
Rp8023
ag2
(g6
S'\xae\x11'
p8024
tp8025
Rp8026
ag2
(g6
S'\xaf\x11'
p8027
tp8028
Rp8029
ag2
(g6
S'\xb0\x11'
p8030
tp8031
Rp8032
ag2
(g6
S'\xb1\x11'
p8033
tp8034
Rp8035
ag2
(g6
S'\xbe\x11'
p8036
tp8037
Rp8038
ag2
(g6
S'\xbf\x11'
p8039
tp8040
Rp8041
ag2
(g6
S'\xc0\x11'
p8042
tp8043
Rp8044
ag2
(g6
S'\xc1\x11'
p8045
tp8046
Rp8047
ag2
(g6
S'\xd0\x11'
p8048
tp8049
Rp8050
ag2
(g6
S'\xd1\x11'
p8051
tp8052
Rp8053
ag2
(g6
S'\xe0\x11'
p8054
tp8055
Rp8056
aa(lp8057
g2
(g6
S')\n'
p8058
tp8059
Rp8060
ag2
(g6
S'*\n'
p8061
tp8062
Rp8063
ag2
(g6
S'+\n'
p8064
tp8065
Rp8066
ag2
(g6
S',\n'
p8067
tp8068
Rp8069
ag2
(g6
S'-\n'
p8070
tp8071
Rp8072
ag2
(g6
S'.\n'
p8073
tp8074
Rp8075
ag2
(g6
S'/\n'
p8076
tp8077
Rp8078
ag2
(g6
S'6\n'
p8079
tp8080
Rp8081
ag2
(g6
S'7\n'
p8082
tp8083
Rp8084
ag2
(g6
S'8\n'
p8085
tp8086
Rp8087
ag2
(g6
S'9\n'
p8088
tp8089
Rp8090
ag2
(g6
S':\n'
p8091
tp8092
Rp8093
ag2
(g6
S';\n'
p8094
tp8095
Rp8096
ag2
(g6
S'<\n'
p8097
tp8098
Rp8099
ag2
(g6
S'=\n'
p8100
tp8101
Rp8102
ag2
(g6
S'E\n'
p8103
tp8104
Rp8105
ag2
(g6
S'F\n'
p8106
tp8107
Rp8108
ag2
(g6
S'G\n'
p8109
tp8110
Rp8111
ag2
(g6
S'H\n'
p8112
tp8113
Rp8114
ag2
(g6
S'I\n'
p8115
tp8116
Rp8117
ag2
(g6
S'J\n'
p8118
tp8119
Rp8120
ag2
(g6
S'K\n'
p8121
tp8122
Rp8123
ag2
(g6
S'L\n'
p8124
tp8125
Rp8126
ag2
(g6
S'S\n'
p8127
tp8128
Rp8129
ag2
(g6
S'T\n'
p8130
tp8131
Rp8132
ag2
(g6
S'U\n'
p8133
tp8134
Rp8135
ag2
(g6
S'V\n'
p8136
tp8137
Rp8138
ag2
(g6
S'W\n'
p8139
tp8140
Rp8141
ag2
(g6
S'X\n'
p8142
tp8143
Rp8144
ag2
(g6
S'Y\n'
p8145
tp8146
Rp8147
ag2
(g6
S'`\n'
p8148
tp8149
Rp8150
ag2
(g6
S'a\n'
p8151
tp8152
Rp8153
ag2
(g6
S'b\n'
p8154
tp8155
Rp8156
ag2
(g6
S'c\n'
p8157
tp8158
Rp8159
ag2
(g6
S'd\n'
p8160
tp8161
Rp8162
ag2
(g6
S'n\n'
p8163
tp8164
Rp8165
ag2
(g6
S'o\n'
p8166
tp8167
Rp8168
ag2
(g6
S'p\n'
p8169
tp8170
Rp8171
ag2
(g6
S'q\n'
p8172
tp8173
Rp8174
ag2
(g6
S'r\n'
p8175
tp8176
Rp8177
ag2
(g6
S's\n'
p8178
tp8179
Rp8180
ag2
(g6
S'\x81\n'
p8181
tp8182
Rp8183
ag2
(g6
S'\x82\n'
p8184
tp8185
Rp8186
ag2
(g6
S'\xb9\x0c'
p8187
tp8188
Rp8189
ag2
(g6
S'\xba\x0c'
p8190
tp8191
Rp8192
ag2
(g6
S'\xbb\x0c'
p8193
tp8194
Rp8195
ag2
(g6
S'\xbc\x0c'
p8196
tp8197
Rp8198
ag2
(g6
S'\xbd\x0c'
p8199
tp8200
Rp8201
ag2
(g6
S'\xbe\x0c'
p8202
tp8203
Rp8204
ag2
(g6
S'\xbf\x0c'
p8205
tp8206
Rp8207
ag2
(g6
S'\xc0\x0c'
p8208
tp8209
Rp8210
ag2
(g6
S'\xc8\x0c'
p8211
tp8212
Rp8213
ag2
(g6
S'\xc9\x0c'
p8214
tp8215
Rp8216
ag2
(g6
S'\xca\x0c'
p8217
tp8218
Rp8219
ag2
(g6
S'\xcb\x0c'
p8220
tp8221
Rp8222
ag2
(g6
S'\xcc\x0c'
p8223
tp8224
Rp8225
ag2
(g6
S'\xcd\x0c'
p8226
tp8227
Rp8228
ag2
(g6
S'\xce\x0c'
p8229
tp8230
Rp8231
ag2
(g6
S'\xcf\x0c'
p8232
tp8233
Rp8234
ag2
(g6
S'\xd6\x0c'
p8235
tp8236
Rp8237
ag2
(g6
S'\xd7\x0c'
p8238
tp8239
Rp8240
ag2
(g6
S'\xd8\x0c'
p8241
tp8242
Rp8243
ag2
(g6
S'\xd9\x0c'
p8244
tp8245
Rp8246
ag2
(g6
S'\xda\x0c'
p8247
tp8248
Rp8249
ag2
(g6
S'\xdb\x0c'
p8250
tp8251
Rp8252
ag2
(g6
S'\xdc\x0c'
p8253
tp8254
Rp8255
ag2
(g6
S'\xdd\x0c'
p8256
tp8257
Rp8258
ag2
(g6
S'\xe3\x0c'
p8259
tp8260
Rp8261
ag2
(g6
S'\xe4\x0c'
p8262
tp8263
Rp8264
ag2
(g6
S'\xe5\x0c'
p8265
tp8266
Rp8267
ag2
(g6
S'\xe6\x0c'
p8268
tp8269
Rp8270
ag2
(g6
S'\xe7\x0c'
p8271
tp8272
Rp8273
ag2
(g6
S'\xe8\x0c'
p8274
tp8275
Rp8276
ag2
(g6
S'\xe9\x0c'
p8277
tp8278
Rp8279
ag2
(g6
S'\xea\x0c'
p8280
tp8281
Rp8282
ag2
(g6
S'\xf1\x0c'
p8283
tp8284
Rp8285
ag2
(g6
S'\xf2\x0c'
p8286
tp8287
Rp8288
ag2
(g6
S'\xf3\x0c'
p8289
tp8290
Rp8291
ag2
(g6
S'\xf4\x0c'
p8292
tp8293
Rp8294
ag2
(g6
S'\xf5\x0c'
p8295
tp8296
Rp8297
ag2
(g6
S'\xf6\x0c'
p8298
tp8299
Rp8300
ag2
(g6
S'\xf7\x0c'
p8301
tp8302
Rp8303
ag2
(g6
S'\xf8\x0c'
p8304
tp8305
Rp8306
ag2
(g6
S'\x02\r'
p8307
tp8308
Rp8309
ag2
(g6
S'\x03\r'
p8310
tp8311
Rp8312
ag2
(g6
S'\x04\r'
p8313
tp8314
Rp8315
ag2
(g6
S'\x05\r'
p8316
tp8317
Rp8318
ag2
(g6
S'\x06\r'
p8319
tp8320
Rp8321
ag2
(g6
S'\n\x0f'
p8322
tp8323
Rp8324
ag2
(g6
S'\x0b\x0f'
p8325
tp8326
Rp8327
ag2
(g6
S'\x0c\x0f'
p8328
tp8329
Rp8330
ag2
(g6
S'\r\x0f'
p8331
tp8332
Rp8333
ag2
(g6
S'\x0e\x0f'
p8334
tp8335
Rp8336
ag2
(g6
S'\x0f\x0f'
p8337
tp8338
Rp8339
ag2
(g6
S'\x10\x0f'
p8340
tp8341
Rp8342
ag2
(g6
S'\x11\x0f'
p8343
tp8344
Rp8345
ag2
(g6
S'\x12\x0f'
p8346
tp8347
Rp8348
ag2
(g6
S'\x1b\x0f'
p8349
tp8350
Rp8351
ag2
(g6
S'\x1c\x0f'
p8352
tp8353
Rp8354
ag2
(g6
S'\x1d\x0f'
p8355
tp8356
Rp8357
ag2
(g6
S'\x1e\x0f'
p8358
tp8359
Rp8360
ag2
(g6
S'\x1f\x0f'
p8361
tp8362
Rp8363
ag2
(g6
S' \x0f'
p8364
tp8365
Rp8366
ag2
(g6
S'!\x0f'
p8367
tp8368
Rp8369
ag2
(g6
S'"\x0f'
p8370
tp8371
Rp8372
ag2
(g6
S'#\x0f'
p8373
tp8374
Rp8375
ag2
(g6
S',\x0f'
p8376
tp8377
Rp8378
ag2
(g6
S'-\x0f'
p8379
tp8380
Rp8381
ag2
(g6
S'.\x0f'
p8382
tp8383
Rp8384
ag2
(g6
S'/\x0f'
p8385
tp8386
Rp8387
ag2
(g6
S'0\x0f'
p8388
tp8389
Rp8390
ag2
(g6
S'1\x0f'
p8391
tp8392
Rp8393
ag2
(g6
S'2\x0f'
p8394
tp8395
Rp8396
ag2
(g6
S'3\x0f'
p8397
tp8398
Rp8399
ag2
(g6
S'4\x0f'
p8400
tp8401
Rp8402
ag2
(g6
S'9\x0f'
p8403
tp8404
Rp8405
ag2
(g6
S':\x0f'
p8406
tp8407
Rp8408
ag2
(g6
S';\x0f'
p8409
tp8410
Rp8411
ag2
(g6
S'<\x0f'
p8412
tp8413
Rp8414
ag2
(g6
S'=\x0f'
p8415
tp8416
Rp8417
ag2
(g6
S'>\x0f'
p8418
tp8419
Rp8420
ag2
(g6
S'?\x0f'
p8421
tp8422
Rp8423
ag2
(g6
S'@\x0f'
p8424
tp8425
Rp8426
ag2
(g6
S'A\x0f'
p8427
tp8428
Rp8429
ag2
(g6
S'G\x0f'
p8430
tp8431
Rp8432
ag2
(g6
S'H\x0f'
p8433
tp8434
Rp8435
ag2
(g6
S'I\x0f'
p8436
tp8437
Rp8438
ag2
(g6
S'J\x0f'
p8439
tp8440
Rp8441
ag2
(g6
S'K\x0f'
p8442
tp8443
Rp8444
ag2
(g6
S'L\x0f'
p8445
tp8446
Rp8447
ag2
(g6
S'M\x0f'
p8448
tp8449
Rp8450
ag2
(g6
S'W\x0f'
p8451
tp8452
Rp8453
ag2
(g6
S'X\x0f'
p8454
tp8455
Rp8456
ag2
(g6
S'\xcd\x10'
p8457
tp8458
Rp8459
ag2
(g6
S'\xce\x10'
p8460
tp8461
Rp8462
ag2
(g6
S'\xcf\x10'
p8463
tp8464
Rp8465
ag2
(g6
S'\xd0\x10'
p8466
tp8467
Rp8468
ag2
(g6
S'\xd1\x10'
p8469
tp8470
Rp8471
ag2
(g6
S'\xd3\x10'
p8472
tp8473
Rp8474
ag2
(g6
S'\xd4\x10'
p8475
tp8476
Rp8477
ag2
(g6
S'\xd5\x10'
p8478
tp8479
Rp8480
ag2
(g6
S'\xd6\x10'
p8481
tp8482
Rp8483
ag2
(g6
S'\xd8\x10'
p8484
tp8485
Rp8486
ag2
(g6
S'\xd9\x10'
p8487
tp8488
Rp8489
ag2
(g6
S'\xda\x10'
p8490
tp8491
Rp8492
ag2
(g6
S'\xdb\x10'
p8493
tp8494
Rp8495
ag2
(g6
S'\xde\x10'
p8496
tp8497
Rp8498
ag2
(g6
S'\xdf\x10'
p8499
tp8500
Rp8501
ag2
(g6
S'\xe0\x10'
p8502
tp8503
Rp8504
ag2
(g6
S'\xe1\x10'
p8505
tp8506
Rp8507
aa(lp8508
g2
(g6
S'\x02\x00'
p8509
tp8510
Rp8511
ag2
(g6
S'\x03\x00'
p8512
tp8513
Rp8514
ag2
(g6
S'\x06\x00'
p8515
tp8516
Rp8517
ag2
(g6
S'\x07\x00'
p8518
tp8519
Rp8520
ag2
(g6
S'\x08\x00'
p8521
tp8522
Rp8523
ag2
(g6
S'\x0c\x00'
p8524
tp8525
Rp8526
ag2
(g6
S'\r\x00'
p8527
tp8528
Rp8529
ag2
(g6
S'\x0e\x00'
p8530
tp8531
Rp8532
ag2
(g6
S'\x0f\x00'
p8533
tp8534
Rp8535
ag2
(g6
S'\x15\x00'
p8536
tp8537
Rp8538
ag2
(g6
S'\x16\x00'
p8539
tp8540
Rp8541
ag2
(g6
S'\x17\x00'
p8542
tp8543
Rp8544
ag2
(g6
S'\x18\x00'
p8545
tp8546
Rp8547
ag2
(g6
S'\x19\x00'
p8548
tp8549
Rp8550
ag2
(g6
S' \x00'
p8551
tp8552
Rp8553
ag2
(g6
S'!\x00'
p8554
tp8555
Rp8556
ag2
(g6
S'"\x00'
p8557
tp8558
Rp8559
ag2
(g6
S'#\x00'
p8560
tp8561
Rp8562
ag2
(g6
S'$\x00'
p8563
tp8564
Rp8565
ag2
(g6
S'%\x00'
p8566
tp8567
Rp8568
ag2
(g6
S',\x00'
p8569
tp8570
Rp8571
ag2
(g6
S'-\x00'
p8572
tp8573
Rp8574
ag2
(g6
S'.\x00'
p8575
tp8576
Rp8577
ag2
(g6
S'/\x00'
p8578
tp8579
Rp8580
ag2
(g6
S'0\x00'
p8581
tp8582
Rp8583
ag2
(g6
S'1\x00'
p8584
tp8585
Rp8586
ag2
(g6
S'9\x00'
p8587
tp8588
Rp8589
ag2
(g6
S':\x00'
p8590
tp8591
Rp8592
ag2
(g6
S';\x00'
p8593
tp8594
Rp8595
ag2
(g6
S'<\x00'
p8596
tp8597
Rp8598
ag2
(g6
S'=\x00'
p8599
tp8600
Rp8601
ag2
(g6
S'>\x00'
p8602
tp8603
Rp8604
ag2
(g6
S'?\x00'
p8605
tp8606
Rp8607
ag2
(g6
S'H\x00'
p8608
tp8609
Rp8610
ag2
(g6
S'I\x00'
p8611
tp8612
Rp8613
ag2
(g6
S'J\x00'
p8614
tp8615
Rp8616
ag2
(g6
S'K\x00'
p8617
tp8618
Rp8619
ag2
(g6
S'L\x00'
p8620
tp8621
Rp8622
ag2
(g6
S'M\x00'
p8623
tp8624
Rp8625
ag2
(g6
S'N\x00'
p8626
tp8627
Rp8628
ag2
(g6
S'O\x00'
p8629
tp8630
Rp8631
ag2
(g6
S'Y\x00'
p8632
tp8633
Rp8634
ag2
(g6
S'Z\x00'
p8635
tp8636
Rp8637
ag2
(g6
S'[\x00'
p8638
tp8639
Rp8640
ag2
(g6
S'\\\x00'
p8641
tp8642
Rp8643
ag2
(g6
S']\x00'
p8644
tp8645
Rp8646
ag2
(g6
S'^\x00'
p8647
tp8648
Rp8649
ag2
(g6
S'_\x00'
p8650
tp8651
Rp8652
ag2
(g6
S'`\x00'
p8653
tp8654
Rp8655
ag2
(g6
S'k\x00'
p8656
tp8657
Rp8658
ag2
(g6
S'l\x00'
p8659
tp8660
Rp8661
ag2
(g6
S'm\x00'
p8662
tp8663
Rp8664
ag2
(g6
S'n\x00'
p8665
tp8666
Rp8667
ag2
(g6
S'o\x00'
p8668
tp8669
Rp8670
ag2
(g6
S'p\x00'
p8671
tp8672
Rp8673
ag2
(g6
S'q\x00'
p8674
tp8675
Rp8676
ag2
(g6
S'r\x00'
p8677
tp8678
Rp8679
ag2
(g6
S'~\x00'
p8680
tp8681
Rp8682
ag2
(g6
S'\x7f\x00'
p8683
tp8684
Rp8685
ag2
(g6
S'\x80\x00'
p8686
tp8687
Rp8688
ag2
(g6
S'\x81\x00'
p8689
tp8690
Rp8691
ag2
(g6
S'\x82\x00'
p8692
tp8693
Rp8694
ag2
(g6
S'\x83\x00'
p8695
tp8696
Rp8697
ag2
(g6
S'\x84\x00'
p8698
tp8699
Rp8700
ag2
(g6
S'\x85\x00'
p8701
tp8702
Rp8703
ag2
(g6
S'\x94\x00'
p8704
tp8705
Rp8706
ag2
(g6
S'\x95\x00'
p8707
tp8708
Rp8709
ag2
(g6
S'\x96\x00'
p8710
tp8711
Rp8712
ag2
(g6
S'\x97\x00'
p8713
tp8714
Rp8715
ag2
(g6
S'\x98\x00'
p8716
tp8717
Rp8718
ag2
(g6
S'\x99\x00'
p8719
tp8720
Rp8721
ag2
(g6
S'\xaa\x00'
p8722
tp8723
Rp8724
ag2
(g6
S'\xab\x00'
p8725
tp8726
Rp8727
ag2
(g6
S'\xac\x00'
p8728
tp8729
Rp8730
ag2
(g6
S'\xad\x00'
p8731
tp8732
Rp8733
ag2
(g6
S'\xbd\x00'
p8734
tp8735
Rp8736
ag2
(g6
S'\xbe\x00'
p8737
tp8738
Rp8739
ag2
(g6
S'\xbf\x00'
p8740
tp8741
Rp8742
ag2
(g6
S'\xc0\x00'
p8743
tp8744
Rp8745
ag2
(g6
S'\xd5\x00'
p8746
tp8747
Rp8748
ag2
(g6
S'\xd6\x00'
p8749
tp8750
Rp8751
ag2
(g6
S'\xd7\x00'
p8752
tp8753
Rp8754
ag2
(g6
S'\xd8\x00'
p8755
tp8756
Rp8757
ag2
(g6
S'\xa3\x02'
p8758
tp8759
Rp8760
ag2
(g6
S'\xa4\x02'
p8761
tp8762
Rp8763
ag2
(g6
S'\xa8\x02'
p8764
tp8765
Rp8766
ag2
(g6
S'\xa9\x02'
p8767
tp8768
Rp8769
ag2
(g6
S'\xaa\x02'
p8770
tp8771
Rp8772
ag2
(g6
S'\xaf\x02'
p8773
tp8774
Rp8775
ag2
(g6
S'\xb0\x02'
p8776
tp8777
Rp8778
ag2
(g6
S'\xb1\x02'
p8779
tp8780
Rp8781
ag2
(g6
S'\xb2\x02'
p8782
tp8783
Rp8784
ag2
(g6
S'\xb8\x02'
p8785
tp8786
Rp8787
ag2
(g6
S'\xb9\x02'
p8788
tp8789
Rp8790
ag2
(g6
S'\xba\x02'
p8791
tp8792
Rp8793
ag2
(g6
S'\xbb\x02'
p8794
tp8795
Rp8796
ag2
(g6
S'\xbc\x02'
p8797
tp8798
Rp8799
ag2
(g6
S'\xc3\x02'
p8800
tp8801
Rp8802
ag2
(g6
S'\xc4\x02'
p8803
tp8804
Rp8805
ag2
(g6
S'\xc5\x02'
p8806
tp8807
Rp8808
ag2
(g6
S'\xc6\x02'
p8809
tp8810
Rp8811
ag2
(g6
S'\xc7\x02'
p8812
tp8813
Rp8814
ag2
(g6
S'\xc8\x02'
p8815
tp8816
Rp8817
ag2
(g6
S'\xcf\x02'
p8818
tp8819
Rp8820
ag2
(g6
S'\xd0\x02'
p8821
tp8822
Rp8823
ag2
(g6
S'\xd1\x02'
p8824
tp8825
Rp8826
ag2
(g6
S'\xd2\x02'
p8827
tp8828
Rp8829
ag2
(g6
S'\xd3\x02'
p8830
tp8831
Rp8832
ag2
(g6
S'\xd4\x02'
p8833
tp8834
Rp8835
ag2
(g6
S'\xd5\x02'
p8836
tp8837
Rp8838
ag2
(g6
S'\xdd\x02'
p8839
tp8840
Rp8841
ag2
(g6
S'\xde\x02'
p8842
tp8843
Rp8844
ag2
(g6
S'\xdf\x02'
p8845
tp8846
Rp8847
ag2
(g6
S'\xe0\x02'
p8848
tp8849
Rp8850
ag2
(g6
S'\xe1\x02'
p8851
tp8852
Rp8853
ag2
(g6
S'\xe2\x02'
p8854
tp8855
Rp8856
ag2
(g6
S'\xe3\x02'
p8857
tp8858
Rp8859
ag2
(g6
S'\xe4\x02'
p8860
tp8861
Rp8862
ag2
(g6
S'\xed\x02'
p8863
tp8864
Rp8865
ag2
(g6
S'\xee\x02'
p8866
tp8867
Rp8868
ag2
(g6
S'\xef\x02'
p8869
tp8870
Rp8871
ag2
(g6
S'\xf0\x02'
p8872
tp8873
Rp8874
ag2
(g6
S'\xf1\x02'
p8875
tp8876
Rp8877
ag2
(g6
S'\xf2\x02'
p8878
tp8879
Rp8880
ag2
(g6
S'\xf3\x02'
p8881
tp8882
Rp8883
ag2
(g6
S'\xf4\x02'
p8884
tp8885
Rp8886
ag2
(g6
S'\xf5\x02'
p8887
tp8888
Rp8889
ag2
(g6
S'\xff\x02'
p8890
tp8891
Rp8892
ag2
(g6
S'\x00\x03'
p8893
tp8894
Rp8895
ag2
(g6
S'\x01\x03'
p8896
tp8897
Rp8898
ag2
(g6
S'\x02\x03'
p8899
tp8900
Rp8901
ag2
(g6
S'\x03\x03'
p8902
tp8903
Rp8904
ag2
(g6
S'\x04\x03'
p8905
tp8906
Rp8907
ag2
(g6
S'\x05\x03'
p8908
tp8909
Rp8910
ag2
(g6
S'\x06\x03'
p8911
tp8912
Rp8913
ag2
(g6
S'\x07\x03'
p8914
tp8915
Rp8916
ag2
(g6
S'\x11\x03'
p8917
tp8918
Rp8919
ag2
(g6
S'\x12\x03'
p8920
tp8921
Rp8922
ag2
(g6
S'\x13\x03'
p8923
tp8924
Rp8925
ag2
(g6
S'\x14\x03'
p8926
tp8927
Rp8928
ag2
(g6
S'\x15\x03'
p8929
tp8930
Rp8931
ag2
(g6
S'\x16\x03'
p8932
tp8933
Rp8934
ag2
(g6
S'\x17\x03'
p8935
tp8936
Rp8937
ag2
(g6
S'\x18\x03'
p8938
tp8939
Rp8940
ag2
(g6
S'\x19\x03'
p8941
tp8942
Rp8943
ag2
(g6
S'#\x03'
p8944
tp8945
Rp8946
ag2
(g6
S'$\x03'
p8947
tp8948
Rp8949
ag2
(g6
S'%\x03'
p8950
tp8951
Rp8952
ag2
(g6
S'&\x03'
p8953
tp8954
Rp8955
ag2
(g6
S"'\x03"
p8956
tp8957
Rp8958
ag2
(g6
S'(\x03'
p8959
tp8960
Rp8961
ag2
(g6
S')\x03'
p8962
tp8963
Rp8964
ag2
(g6
S'*\x03'
p8965
tp8966
Rp8967
ag2
(g6
S'6\x03'
p8968
tp8969
Rp8970
ag2
(g6
S'7\x03'
p8971
tp8972
Rp8973
ag2
(g6
S'8\x03'
p8974
tp8975
Rp8976
ag2
(g6
S'9\x03'
p8977
tp8978
Rp8979
ag2
(g6
S':\x03'
p8980
tp8981
Rp8982
ag2
(g6
S';\x03'
p8983
tp8984
Rp8985
ag2
(g6
S'<\x03'
p8986
tp8987
Rp8988
ag2
(g6
S'G\x03'
p8989
tp8990
Rp8991
ag2
(g6
S'H\x03'
p8992
tp8993
Rp8994
ag2
(g6
S'I\x03'
p8995
tp8996
Rp8997
ag2
(g6
S'J\x03'
p8998
tp8999
Rp9000
ag2
(g6
S'K\x03'
p9001
tp9002
Rp9003
ag2
(g6
S'L\x03'
p9004
tp9005
Rp9006
ag2
(g6
S'H\x05'
p9007
tp9008
Rp9009
ag2
(g6
S'I\x05'
p9010
tp9011
Rp9012
ag2
(g6
S'M\x05'
p9013
tp9014
Rp9015
ag2
(g6
S'N\x05'
p9016
tp9017
Rp9018
ag2
(g6
S'O\x05'
p9019
tp9020
Rp9021
ag2
(g6
S'S\x05'
p9022
tp9023
Rp9024
ag2
(g6
S'T\x05'
p9025
tp9026
Rp9027
ag2
(g6
S'U\x05'
p9028
tp9029
Rp9030
ag2
(g6
S'V\x05'
p9031
tp9032
Rp9033
ag2
(g6
S'[\x05'
p9034
tp9035
Rp9036
ag2
(g6
S'\\\x05'
p9037
tp9038
Rp9039
ag2
(g6
S']\x05'
p9040
tp9041
Rp9042
ag2
(g6
S'^\x05'
p9043
tp9044
Rp9045
ag2
(g6
S'_\x05'
p9046
tp9047
Rp9048
ag2
(g6
S'e\x05'
p9049
tp9050
Rp9051
ag2
(g6
S'f\x05'
p9052
tp9053
Rp9054
ag2
(g6
S'g\x05'
p9055
tp9056
Rp9057
ag2
(g6
S'h\x05'
p9058
tp9059
Rp9060
ag2
(g6
S'i\x05'
p9061
tp9062
Rp9063
ag2
(g6
S'j\x05'
p9064
tp9065
Rp9066
ag2
(g6
S'q\x05'
p9067
tp9068
Rp9069
ag2
(g6
S'r\x05'
p9070
tp9071
Rp9072
ag2
(g6
S's\x05'
p9073
tp9074
Rp9075
ag2
(g6
S't\x05'
p9076
tp9077
Rp9078
ag2
(g6
S'u\x05'
p9079
tp9080
Rp9081
ag2
(g6
S'v\x05'
p9082
tp9083
Rp9084
ag2
(g6
S'~\x05'
p9085
tp9086
Rp9087
ag2
(g6
S'\x7f\x05'
p9088
tp9089
Rp9090
ag2
(g6
S'\x80\x05'
p9091
tp9092
Rp9093
ag2
(g6
S'\x81\x05'
p9094
tp9095
Rp9096
ag2
(g6
S'\x82\x05'
p9097
tp9098
Rp9099
ag2
(g6
S'\x83\x05'
p9100
tp9101
Rp9102
ag2
(g6
S'\x84\x05'
p9103
tp9104
Rp9105
ag2
(g6
S'\x8c\x05'
p9106
tp9107
Rp9108
ag2
(g6
S'\x8d\x05'
p9109
tp9110
Rp9111
ag2
(g6
S'\x8e\x05'
p9112
tp9113
Rp9114
ag2
(g6
S'\x8f\x05'
p9115
tp9116
Rp9117
ag2
(g6
S'\x90\x05'
p9118
tp9119
Rp9120
ag2
(g6
S'\x91\x05'
p9121
tp9122
Rp9123
ag2
(g6
S'\x92\x05'
p9124
tp9125
Rp9126
ag2
(g6
S'\x9a\x05'
p9127
tp9128
Rp9129
ag2
(g6
S'\x9b\x05'
p9130
tp9131
Rp9132
ag2
(g6
S'\x9c\x05'
p9133
tp9134
Rp9135
ag2
(g6
S'\x9d\x05'
p9136
tp9137
Rp9138
ag2
(g6
S'\x9e\x05'
p9139
tp9140
Rp9141
ag2
(g6
S'\x9f\x05'
p9142
tp9143
Rp9144
ag2
(g6
S'\xa0\x05'
p9145
tp9146
Rp9147
ag2
(g6
S'\xa9\x05'
p9148
tp9149
Rp9150
ag2
(g6
S'\xaa\x05'
p9151
tp9152
Rp9153
ag2
(g6
S'\xab\x05'
p9154
tp9155
Rp9156
ag2
(g6
S'\xac\x05'
p9157
tp9158
Rp9159
ag2
(g6
S'\xad\x05'
p9160
tp9161
Rp9162
ag2
(g6
S'\xae\x05'
p9163
tp9164
Rp9165
ag2
(g6
S'\xaf\x05'
p9166
tp9167
Rp9168
ag2
(g6
S'\xb9\x05'
p9169
tp9170
Rp9171
ag2
(g6
S'\xba\x05'
p9172
tp9173
Rp9174
ag2
(g6
S'\xbb\x05'
p9175
tp9176
Rp9177
ag2
(g6
S'\xbc\x05'
p9178
tp9179
Rp9180
ag2
(g6
S'\xbd\x05'
p9181
tp9182
Rp9183
ag2
(g6
S'\xbe\x05'
p9184
tp9185
Rp9186
ag2
(g6
S'\xc8\x05'
p9187
tp9188
Rp9189
ag2
(g6
S'\xc9\x05'
p9190
tp9191
Rp9192
ag2
(g6
S'\xca\x05'
p9193
tp9194
Rp9195
ag2
(g6
S'\xcb\x05'
p9196
tp9197
Rp9198
ag2
(g6
S'\xcc\x05'
p9199
tp9200
Rp9201
ag2
(g6
S'\xcd\x05'
p9202
tp9203
Rp9204
ag2
(g6
S'\xd8\x05'
p9205
tp9206
Rp9207
ag2
(g6
S'\xd9\x05'
p9208
tp9209
Rp9210
ag2
(g6
S'\xda\x05'
p9211
tp9212
Rp9213
ag2
(g6
S'\xdb\x05'
p9214
tp9215
Rp9216
ag2
(g6
S'\xdc\x05'
p9217
tp9218
Rp9219
ag2
(g6
S'\xa6\x07'
p9220
tp9221
Rp9222
ag2
(g6
S'\xab\x07'
p9223
tp9224
Rp9225
ag2
(g6
S'\xac\x07'
p9226
tp9227
Rp9228
ag2
(g6
S'\xad\x07'
p9229
tp9230
Rp9231
ag2
(g6
S'\xb4\x07'
p9232
tp9233
Rp9234
ag2
(g6
S'\xb5\x07'
p9235
tp9236
Rp9237
ag2
(g6
S'\xb6\x07'
p9238
tp9239
Rp9240
ag2
(g6
S'\xb7\x07'
p9241
tp9242
Rp9243
ag2
(g6
S'\xbf\x07'
p9244
tp9245
Rp9246
ag2
(g6
S'\xc0\x07'
p9247
tp9248
Rp9249
ag2
(g6
S'\xc1\x07'
p9250
tp9251
Rp9252
ag2
(g6
S'\xc2\x07'
p9253
tp9254
Rp9255
ag2
(g6
S'\xc3\x07'
p9256
tp9257
Rp9258
ag2
(g6
S'\xcc\x07'
p9259
tp9260
Rp9261
ag2
(g6
S'\xcd\x07'
p9262
tp9263
Rp9264
ag2
(g6
S'\xce\x07'
p9265
tp9266
Rp9267
ag2
(g6
S'\xcf\x07'
p9268
tp9269
Rp9270
ag2
(g6
S'\xd0\x07'
p9271
tp9272
Rp9273
ag2
(g6
S'\xd1\x07'
p9274
tp9275
Rp9276
ag2
(g6
S'\xda\x07'
p9277
tp9278
Rp9279
ag2
(g6
S'\xdb\x07'
p9280
tp9281
Rp9282
ag2
(g6
S'\xdc\x07'
p9283
tp9284
Rp9285
ag2
(g6
S'\xdd\x07'
p9286
tp9287
Rp9288
ag2
(g6
S'\xde\x07'
p9289
tp9290
Rp9291
ag2
(g6
S'\xe7\x07'
p9292
tp9293
Rp9294
ag2
(g6
S'\xe8\x07'
p9295
tp9296
Rp9297
ag2
(g6
S'\xe9\x07'
p9298
tp9299
Rp9300
ag2
(g6
S'\xea\x07'
p9301
tp9302
Rp9303
ag2
(g6
S'\xeb\x07'
p9304
tp9305
Rp9306
ag2
(g6
S'\xf4\x07'
p9307
tp9308
Rp9309
ag2
(g6
S'\xf5\x07'
p9310
tp9311
Rp9312
ag2
(g6
S'\xf6\x07'
p9313
tp9314
Rp9315
ag2
(g6
S'\xf7\x07'
p9316
tp9317
Rp9318
ag2
(g6
S'\xf8\x07'
p9319
tp9320
Rp9321
ag2
(g6
S'\xf9\x07'
p9322
tp9323
Rp9324
ag2
(g6
S'\x03\x08'
p9325
tp9326
Rp9327
ag2
(g6
S'\x04\x08'
p9328
tp9329
Rp9330
ag2
(g6
S'\x05\x08'
p9331
tp9332
Rp9333
ag2
(g6
S'\x06\x08'
p9334
tp9335
Rp9336
ag2
(g6
S'\x07\x08'
p9337
tp9338
Rp9339
ag2
(g6
S'\x08\x08'
p9340
tp9341
Rp9342
ag2
(g6
S'\x12\x08'
p9343
tp9344
Rp9345
ag2
(g6
S'\x13\x08'
p9346
tp9347
Rp9348
ag2
(g6
S'\x14\x08'
p9349
tp9350
Rp9351
ag2
(g6
S'\x15\x08'
p9352
tp9353
Rp9354
ag2
(g6
S'\x16\x08'
p9355
tp9356
Rp9357
ag2
(g6
S'\x17\x08'
p9358
tp9359
Rp9360
ag2
(g6
S'\x18\x08'
p9361
tp9362
Rp9363
ag2
(g6
S'#\x08'
p9364
tp9365
Rp9366
ag2
(g6
S'$\x08'
p9367
tp9368
Rp9369
ag2
(g6
S'%\x08'
p9370
tp9371
Rp9372
ag2
(g6
S'&\x08'
p9373
tp9374
Rp9375
ag2
(g6
S"'\x08"
p9376
tp9377
Rp9378
ag2
(g6
S'(\x08'
p9379
tp9380
Rp9381
ag2
(g6
S')\x08'
p9382
tp9383
Rp9384
ag2
(g6
S'*\x08'
p9385
tp9386
Rp9387
ag2
(g6
S'5\x08'
p9388
tp9389
Rp9390
ag2
(g6
S'6\x08'
p9391
tp9392
Rp9393
ag2
(g6
S'7\x08'
p9394
tp9395
Rp9396
ag2
(g6
S'8\x08'
p9397
tp9398
Rp9399
ag2
(g6
S'9\x08'
p9400
tp9401
Rp9402
ag2
(g6
S':\x08'
p9403
tp9404
Rp9405
ag2
(g6
S';\x08'
p9406
tp9407
Rp9408
ag2
(g6
S'<\x08'
p9409
tp9410
Rp9411
ag2
(g6
S'F\x08'
p9412
tp9413
Rp9414
ag2
(g6
S'G\x08'
p9415
tp9416
Rp9417
ag2
(g6
S'H\x08'
p9418
tp9419
Rp9420
ag2
(g6
S'I\x08'
p9421
tp9422
Rp9423
ag2
(g6
S'J\x08'
p9424
tp9425
Rp9426
ag2
(g6
S'K\x08'
p9427
tp9428
Rp9429
ag2
(g6
S'L\x08'
p9430
tp9431
Rp9432
ag2
(g6
S'M\x08'
p9433
tp9434
Rp9435
ag2
(g6
S'N\x08'
p9436
tp9437
Rp9438
ag2
(g6
S'Y\x08'
p9439
tp9440
Rp9441
ag2
(g6
S'Z\x08'
p9442
tp9443
Rp9444
ag2
(g6
S'[\x08'
p9445
tp9446
Rp9447
ag2
(g6
S'\\\x08'
p9448
tp9449
Rp9450
ag2
(g6
S']\x08'
p9451
tp9452
Rp9453
ag2
(g6
S'^\x08'
p9454
tp9455
Rp9456
ag2
(g6
S'_\x08'
p9457
tp9458
Rp9459
ag2
(g6
S'm\x08'
p9460
tp9461
Rp9462
ag2
(g6
S'n\x08'
p9463
tp9464
Rp9465
ag2
(g6
S'o\x08'
p9466
tp9467
Rp9468
ag2
(g6
S'p\x08'
p9469
tp9470
Rp9471
ag2
(g6
S'\xc1\t'
p9472
tp9473
Rp9474
ag2
(g6
S'\xc2\t'
p9475
tp9476
Rp9477
ag2
(g6
S'\xc3\t'
p9478
tp9479
Rp9480
ag2
(g6
S'\xc8\t'
p9481
tp9482
Rp9483
ag2
(g6
S'\xc9\t'
p9484
tp9485
Rp9486
ag2
(g6
S'\xca\t'
p9487
tp9488
Rp9489
ag2
(g6
S'\xcb\t'
p9490
tp9491
Rp9492
ag2
(g6
S'\xd1\t'
p9493
tp9494
Rp9495
ag2
(g6
S'\xd2\t'
p9496
tp9497
Rp9498
ag2
(g6
S'\xd3\t'
p9499
tp9500
Rp9501
ag2
(g6
S'\xd4\t'
p9502
tp9503
Rp9504
ag2
(g6
S'\xd5\t'
p9505
tp9506
Rp9507
ag2
(g6
S'\xd6\t'
p9508
tp9509
Rp9510
ag2
(g6
S'\xd7\t'
p9511
tp9512
Rp9513
ag2
(g6
S'\xd8\t'
p9514
tp9515
Rp9516
ag2
(g6
S'\xdf\t'
p9517
tp9518
Rp9519
ag2
(g6
S'\xe0\t'
p9520
tp9521
Rp9522
ag2
(g6
S'\xe1\t'
p9523
tp9524
Rp9525
ag2
(g6
S'\xe2\t'
p9526
tp9527
Rp9528
ag2
(g6
S'\xe3\t'
p9529
tp9530
Rp9531
ag2
(g6
S'\xe4\t'
p9532
tp9533
Rp9534
ag2
(g6
S'\xe5\t'
p9535
tp9536
Rp9537
ag2
(g6
S'\xe6\t'
p9538
tp9539
Rp9540
ag2
(g6
S'\xee\t'
p9541
tp9542
Rp9543
ag2
(g6
S'\xef\t'
p9544
tp9545
Rp9546
ag2
(g6
S'\xf0\t'
p9547
tp9548
Rp9549
ag2
(g6
S'\xf1\t'
p9550
tp9551
Rp9552
ag2
(g6
S'\xf2\t'
p9553
tp9554
Rp9555
ag2
(g6
S'\xf3\t'
p9556
tp9557
Rp9558
ag2
(g6
S'\xf4\t'
p9559
tp9560
Rp9561
ag2
(g6
S'\xf5\t'
p9562
tp9563
Rp9564
ag2
(g6
S'\xfe\t'
p9565
tp9566
Rp9567
ag2
(g6
S'\xff\t'
p9568
tp9569
Rp9570
ag2
(g6
S'\x00\n'
p9571
tp9572
Rp9573
ag2
(g6
S'\x01\n'
p9574
tp9575
Rp9576
ag2
(g6
S'\x02\n'
p9577
tp9578
Rp9579
ag2
(g6
S'\x03\n'
p9580
tp9581
Rp9582
ag2
(g6
S'\x04\n'
p9583
tp9584
Rp9585
ag2
(g6
S'Z\x0c'
p9586
tp9587
Rp9588
ag2
(g6
S'[\x0c'
p9589
tp9590
Rp9591
ag2
(g6
S'`\x0c'
p9592
tp9593
Rp9594
ag2
(g6
S'a\x0c'
p9595
tp9596
Rp9597
ag2
(g6
S'b\x0c'
p9598
tp9599
Rp9600
ag2
(g6
S'c\x0c'
p9601
tp9602
Rp9603
ag2
(g6
S'd\x0c'
p9604
tp9605
Rp9606
ag2
(g6
S'e\x0c'
p9607
tp9608
Rp9609
ag2
(g6
S'l\x0c'
p9610
tp9611
Rp9612
ag2
(g6
S'm\x0c'
p9613
tp9614
Rp9615
ag2
(g6
S'n\x0c'
p9616
tp9617
Rp9618
ag2
(g6
S'o\x0c'
p9619
tp9620
Rp9621
ag2
(g6
S'p\x0c'
p9622
tp9623
Rp9624
ag2
(g6
S'q\x0c'
p9625
tp9626
Rp9627
ag2
(g6
S'r\x0c'
p9628
tp9629
Rp9630
ag2
(g6
S's\x0c'
p9631
tp9632
Rp9633
ag2
(g6
S'~\x0c'
p9634
tp9635
Rp9636
ag2
(g6
S'\x7f\x0c'
p9637
tp9638
Rp9639
ag2
(g6
S'\x80\x0c'
p9640
tp9641
Rp9642
ag2
(g6
S'\x81\x0c'
p9643
tp9644
Rp9645
ag2
(g6
S'\x82\x0c'
p9646
tp9647
Rp9648
ag2
(g6
S'\x83\x0c'
p9649
tp9650
Rp9651
ag2
(g6
S'\x84\x0c'
p9652
tp9653
Rp9654
ag2
(g6
S'\x85\x0c'
p9655
tp9656
Rp9657
ag2
(g6
S'\x86\x0c'
p9658
tp9659
Rp9660
ag2
(g6
S'\xaf\x0e'
p9661
tp9662
Rp9663
ag2
(g6
S'\xb0\x0e'
p9664
tp9665
Rp9666
ag2
(g6
S'\xb1\x0e'
p9667
tp9668
Rp9669
ag2
(g6
S'\xb2\x0e'
p9670
tp9671
Rp9672
ag2
(g6
S'\xb3\x0e'
p9673
tp9674
Rp9675
ag2
(g6
S'\xb4\x0e'
p9676
tp9677
Rp9678
ag2
(g6
S'\xb7\x0e'
p9679
tp9680
Rp9681
ag2
(g6
S'\xb8\x0e'
p9682
tp9683
Rp9684
ag2
(g6
S'\xb9\x0e'
p9685
tp9686
Rp9687
ag2
(g6
S'\xba\x0e'
p9688
tp9689
Rp9690
ag2
(g6
S'\xbb\x0e'
p9691
tp9692
Rp9693
ag2
(g6
S'\xbe\x0e'
p9694
tp9695
Rp9696
ag2
(g6
S'\xbf\x0e'
p9697
tp9698
Rp9699
ag2
(g6
S'\xc0\x0e'
p9700
tp9701
Rp9702
ag2
(g6
S'\xc1\x0e'
p9703
tp9704
Rp9705
ag2
(g6
S'\xc2\x0e'
p9706
tp9707
Rp9708
ag2
(g6
S'\xc3\x0e'
p9709
tp9710
Rp9711
ag2
(g6
S'\xc4\x0e'
p9712
tp9713
Rp9714
ag2
(g6
S'\xc5\x0e'
p9715
tp9716
Rp9717
ag2
(g6
S'\xcd\x0e'
p9718
tp9719
Rp9720
ag2
(g6
S'\xce\x0e'
p9721
tp9722
Rp9723
ag2
(g6
S'\xcf\x0e'
p9724
tp9725
Rp9726
ag2
(g6
S'\xd0\x0e'
p9727
tp9728
Rp9729
ag2
(g6
S'\xd1\x0e'
p9730
tp9731
Rp9732
ag2
(g6
S'\xd2\x0e'
p9733
tp9734
Rp9735
ag2
(g6
S'\xd3\x0e'
p9736
tp9737
Rp9738
ag2
(g6
S'\xd4\x0e'
p9739
tp9740
Rp9741
ag2
(g6
S'\xd5\x0e'
p9742
tp9743
Rp9744
ag2
(g6
S'\xd6\x0e'
p9745
tp9746
Rp9747
ag2
(g6
S'\xe4\x0e'
p9748
tp9749
Rp9750
ag2
(g6
S'\xe5\x0e'
p9751
tp9752
Rp9753
ag2
(g6
S'\xe6\x0e'
p9754
tp9755
Rp9756
ag2
(g6
S'\xe7\x0e'
p9757
tp9758
Rp9759
ag2
(g6
S'\xe8\x0e'
p9760
tp9761
Rp9762
ag2
(g6
S'\xe9\x0e'
p9763
tp9764
Rp9765
aa(lp9766
g2
(g6
S'\x91\x00'
p9767
tp9768
Rp9769
ag2
(g6
S'\x92\x00'
p9770
tp9771
Rp9772
ag2
(g6
S'\x93\x00'
p9773
tp9774
Rp9775
ag2
(g6
S'\xa5\x00'
p9776
tp9777
Rp9778
ag2
(g6
S'\xa6\x00'
p9779
tp9780
Rp9781
ag2
(g6
S'\xa7\x00'
p9782
tp9783
Rp9784
ag2
(g6
S'\xa8\x00'
p9785
tp9786
Rp9787
ag2
(g6
S'\xa9\x00'
p9788
tp9789
Rp9790
ag2
(g6
S'\xb8\x00'
p9791
tp9792
Rp9793
ag2
(g6
S'\xb9\x00'
p9794
tp9795
Rp9796
ag2
(g6
S'\xba\x00'
p9797
tp9798
Rp9799
ag2
(g6
S'\xbb\x00'
p9800
tp9801
Rp9802
ag2
(g6
S'\xbc\x00'
p9803
tp9804
Rp9805
ag2
(g6
S'V\x03'
p9806
tp9807
Rp9808
ag2
(g6
S'W\x03'
p9809
tp9810
Rp9811
ag2
(g6
S'X\x03'
p9812
tp9813
Rp9814
ag2
(g6
S'Y\x03'
p9815
tp9816
Rp9817
ag2
(g6
S'b\x03'
p9818
tp9819
Rp9820
ag2
(g6
S'c\x03'
p9821
tp9822
Rp9823
ag2
(g6
S'd\x03'
p9824
tp9825
Rp9826
ag2
(g6
S'e\x03'
p9827
tp9828
Rp9829
ag2
(g6
S'f\x03'
p9830
tp9831
Rp9832
ag2
(g6
S'y\x03'
p9833
tp9834
Rp9835
ag2
(g6
S'z\x03'
p9836
tp9837
Rp9838
ag2
(g6
S'{\x03'
p9839
tp9840
Rp9841
ag2
(g6
S'|\x03'
p9842
tp9843
Rp9844
ag2
(g6
S'}\x03'
p9845
tp9846
Rp9847
ag2
(g6
S'\xd6\x05'
p9848
tp9849
Rp9850
ag2
(g6
S'\xd7\x05'
p9851
tp9852
Rp9853
ag2
(g6
S'\xe3\x05'
p9854
tp9855
Rp9856
ag2
(g6
S'\xe4\x05'
p9857
tp9858
Rp9859
ag2
(g6
S'\xe5\x05'
p9860
tp9861
Rp9862
ag2
(g6
S'\xed\x05'
p9863
tp9864
Rp9865
ag2
(g6
S'\xee\x05'
p9866
tp9867
Rp9868
ag2
(g6
S'\xef\x05'
p9869
tp9870
Rp9871
ag2
(g6
S'\xf0\x05'
p9872
tp9873
Rp9874
ag2
(g6
S'\xf8\x05'
p9875
tp9876
Rp9877
ag2
(g6
S'\xf9\x05'
p9878
tp9879
Rp9880
ag2
(g6
S'\xfa\x05'
p9881
tp9882
Rp9883
ag2
(g6
S'\xfb\x05'
p9884
tp9885
Rp9886
ag2
(g6
S'\xfc\x05'
p9887
tp9888
Rp9889
ag2
(g6
S'\x05\x06'
p9890
tp9891
Rp9892
ag2
(g6
S'\x06\x06'
p9893
tp9894
Rp9895
ag2
(g6
S'\x07\x06'
p9896
tp9897
Rp9898
ag2
(g6
S'\x08\x06'
p9899
tp9900
Rp9901
ag2
(g6
S'\x16\x06'
p9902
tp9903
Rp9904
ag2
(g6
S'\x17\x06'
p9905
tp9906
Rp9907
ag2
(g6
S'W\x08'
p9908
tp9909
Rp9910
ag2
(g6
S'X\x08'
p9911
tp9912
Rp9913
ag2
(g6
S'i\x08'
p9914
tp9915
Rp9916
ag2
(g6
S'j\x08'
p9917
tp9918
Rp9919
ag2
(g6
S'k\x08'
p9920
tp9921
Rp9922
ag2
(g6
S'l\x08'
p9923
tp9924
Rp9925
ag2
(g6
S'z\x08'
p9926
tp9927
Rp9928
ag2
(g6
S'{\x08'
p9929
tp9930
Rp9931
ag2
(g6
S'|\x08'
p9932
tp9933
Rp9934
ag2
(g6
S'}\x08'
p9935
tp9936
Rp9937
ag2
(g6
S'~\x08'
p9938
tp9939
Rp9940
ag2
(g6
S'\x7f\x08'
p9941
tp9942
Rp9943
ag2
(g6
S'\x80\x08'
p9944
tp9945
Rp9946
ag2
(g6
S'\x81\x08'
p9947
tp9948
Rp9949
ag2
(g6
S'\x8a\x08'
p9950
tp9951
Rp9952
ag2
(g6
S'\x8b\x08'
p9953
tp9954
Rp9955
ag2
(g6
S'\x8c\x08'
p9956
tp9957
Rp9958
ag2
(g6
S'\x8d\x08'
p9959
tp9960
Rp9961
ag2
(g6
S'\x8e\x08'
p9962
tp9963
Rp9964
ag2
(g6
S'\x8f\x08'
p9965
tp9966
Rp9967
ag2
(g6
S'\x90\x08'
p9968
tp9969
Rp9970
ag2
(g6
S'\x9a\x08'
p9971
tp9972
Rp9973
ag2
(g6
S'\x9b\x08'
p9974
tp9975
Rp9976
ag2
(g6
S'\x9c\x08'
p9977
tp9978
Rp9979
ag2
(g6
S'\x9d\x08'
p9980
tp9981
Rp9982
ag2
(g6
S'\x9e\x08'
p9983
tp9984
Rp9985
aa(lp9986
g2
(g6
S'v\x01'
p9987
tp9988
Rp9989
ag2
(g6
S'w\x01'
p9990
tp9991
Rp9992
ag2
(g6
S'x\x01'
p9993
tp9994
Rp9995
ag2
(g6
S'y\x01'
p9996
tp9997
Rp9998
ag2
(g6
S'z\x01'
p9999
tp10000
Rp10001
ag2
(g6
S'{\x01'
p10002
tp10003
Rp10004
ag2
(g6
S'\x88\x01'
p10005
tp10006
Rp10007
ag2
(g6
S'\x89\x01'
p10008
tp10009
Rp10010
ag2
(g6
S'\x8a\x01'
p10011
tp10012
Rp10013
ag2
(g6
S'\x8b\x01'
p10014
tp10015
Rp10016
ag2
(g6
S'\x8c\x01'
p10017
tp10018
Rp10019
ag2
(g6
S'\x9e\x01'
p10020
tp10021
Rp10022
ag2
(g6
S'\x9f\x01'
p10023
tp10024
Rp10025
ag2
(g6
S'\xa0\x01'
p10026
tp10027
Rp10028
ag2
(g6
S'\xa1\x01'
p10029
tp10030
Rp10031
ag2
(g6
S'\xa2\x01'
p10032
tp10033
Rp10034
ag2
(g6
S'\xb6\x01'
p10035
tp10036
Rp10037
ag2
(g6
S'\xb7\x01'
p10038
tp10039
Rp10040
ag2
(g6
S'\xb8\x01'
p10041
tp10042
Rp10043
ag2
(g6
S'\xb9\x01'
p10044
tp10045
Rp10046
ag2
(g6
S'\xba\x01'
p10047
tp10048
Rp10049
ag2
(g6
S'\xcf\x01'
p10050
tp10051
Rp10052
ag2
(g6
S'\xd0\x01'
p10053
tp10054
Rp10055
ag2
(g6
S'\xd1\x01'
p10056
tp10057
Rp10058
ag2
(g6
S'\xe8\x01'
p10059
tp10060
Rp10061
ag2
(g6
S'\xe9\x01'
p10062
tp10063
Rp10064
ag2
(g6
S'\xea\x01'
p10065
tp10066
Rp10067
ag2
(g6
S'\x03\x02'
p10068
tp10069
Rp10070
ag2
(g6
S'\x04\x02'
p10071
tp10072
Rp10073
ag2
(g6
S'\x05\x02'
p10074
tp10075
Rp10076
ag2
(g6
S'\x06\x02'
p10077
tp10078
Rp10079
ag2
(g6
S' \x02'
p10080
tp10081
Rp10082
ag2
(g6
S'!\x02'
p10083
tp10084
Rp10085
ag2
(g6
S'"\x02'
p10086
tp10087
Rp10088
ag2
(g6
S';\x02'
p10089
tp10090
Rp10091
ag2
(g6
S'<\x02'
p10092
tp10093
Rp10094
ag2
(g6
S'=\x02'
p10095
tp10096
Rp10097
ag2
(g6
S'>\x02'
p10098
tp10099
Rp10100
ag2
(g6
S'U\x02'
p10101
tp10102
Rp10103
ag2
(g6
S'V\x02'
p10104
tp10105
Rp10106
ag2
(g6
S'W\x02'
p10107
tp10108
Rp10109
ag2
(g6
S'l\x02'
p10110
tp10111
Rp10112
ag2
(g6
S'\xf4\x03'
p10113
tp10114
Rp10115
ag2
(g6
S'\x03\x04'
p10116
tp10117
Rp10118
ag2
(g6
S'\x04\x04'
p10119
tp10120
Rp10121
ag2
(g6
S'\x05\x04'
p10122
tp10123
Rp10124
ag2
(g6
S'\x06\x04'
p10125
tp10126
Rp10127
ag2
(g6
S'\x07\x04'
p10128
tp10129
Rp10130
ag2
(g6
S'\x08\x04'
p10131
tp10132
Rp10133
ag2
(g6
S'\x19\x04'
p10134
tp10135
Rp10136
ag2
(g6
S'\x1a\x04'
p10137
tp10138
Rp10139
ag2
(g6
S'\x1b\x04'
p10140
tp10141
Rp10142
ag2
(g6
S'\x1c\x04'
p10143
tp10144
Rp10145
ag2
(g6
S'\x1d\x04'
p10146
tp10147
Rp10148
ag2
(g6
S'\x1e\x04'
p10149
tp10150
Rp10151
ag2
(g6
S'2\x04'
p10152
tp10153
Rp10154
ag2
(g6
S'3\x04'
p10155
tp10156
Rp10157
ag2
(g6
S'4\x04'
p10158
tp10159
Rp10160
ag2
(g6
S'5\x04'
p10161
tp10162
Rp10163
ag2
(g6
S'6\x04'
p10164
tp10165
Rp10166
ag2
(g6
S'K\x04'
p10167
tp10168
Rp10169
ag2
(g6
S'L\x04'
p10170
tp10171
Rp10172
ag2
(g6
S'M\x04'
p10173
tp10174
Rp10175
ag2
(g6
S'N\x04'
p10176
tp10177
Rp10178
ag2
(g6
S'O\x04'
p10179
tp10180
Rp10181
ag2
(g6
S'g\x04'
p10182
tp10183
Rp10184
ag2
(g6
S'h\x04'
p10185
tp10186
Rp10187
ag2
(g6
S'i\x04'
p10188
tp10189
Rp10190
ag2
(g6
S'j\x04'
p10191
tp10192
Rp10193
ag2
(g6
S'k\x04'
p10194
tp10195
Rp10196
ag2
(g6
S'\x83\x04'
p10197
tp10198
Rp10199
ag2
(g6
S'\x84\x04'
p10200
tp10201
Rp10202
ag2
(g6
S'\x85\x04'
p10203
tp10204
Rp10205
ag2
(g6
S'\x86\x04'
p10206
tp10207
Rp10208
ag2
(g6
S'\xa0\x04'
p10209
tp10210
Rp10211
ag2
(g6
S'\xa1\x04'
p10212
tp10213
Rp10214
ag2
(g6
S'\xa2\x04'
p10215
tp10216
Rp10217
ag2
(g6
S'\xa3\x04'
p10218
tp10219
Rp10220
ag2
(g6
S'\xbe\x04'
p10221
tp10222
Rp10223
ag2
(g6
S'\xbf\x04'
p10224
tp10225
Rp10226
ag2
(g6
S'\xc0\x04'
p10227
tp10228
Rp10229
ag2
(g6
S'\xdc\x04'
p10230
tp10231
Rp10232
ag2
(g6
S'\xdd\x04'
p10233
tp10234
Rp10235
ag2
(g6
S'\xde\x04'
p10236
tp10237
Rp10238
ag2
(g6
S'\xf7\x04'
p10239
tp10240
Rp10241
ag2
(g6
S'\xf8\x04'
p10242
tp10243
Rp10244
ag2
(g6
S'\x11\x05'
p10245
tp10246
Rp10247
ag2
(g6
S'\x12\x05'
p10248
tp10249
Rp10250
ag2
(g6
S'(\x05'
p10251
tp10252
Rp10253
ag2
(g6
S')\x05'
p10254
tp10255
Rp10256
ag2
(g6
S'K\x06'
p10257
tp10258
Rp10259
ag2
(g6
S'Z\x06'
p10260
tp10261
Rp10262
ag2
(g6
S'[\x06'
p10263
tp10264
Rp10265
ag2
(g6
S'\\\x06'
p10266
tp10267
Rp10268
ag2
(g6
S']\x06'
p10269
tp10270
Rp10271
ag2
(g6
S'^\x06'
p10272
tp10273
Rp10274
ag2
(g6
S'_\x06'
p10275
tp10276
Rp10277
ag2
(g6
S'l\x06'
p10278
tp10279
Rp10280
ag2
(g6
S'm\x06'
p10281
tp10282
Rp10283
ag2
(g6
S'n\x06'
p10284
tp10285
Rp10286
ag2
(g6
S'o\x06'
p10287
tp10288
Rp10289
ag2
(g6
S'p\x06'
p10290
tp10291
Rp10292
ag2
(g6
S'q\x06'
p10293
tp10294
Rp10295
ag2
(g6
S'\x81\x06'
p10296
tp10297
Rp10298
ag2
(g6
S'\x82\x06'
p10299
tp10300
Rp10301
ag2
(g6
S'\x83\x06'
p10302
tp10303
Rp10304
ag2
(g6
S'\x84\x06'
p10305
tp10306
Rp10307
ag2
(g6
S'\x85\x06'
p10308
tp10309
Rp10310
ag2
(g6
S'\x99\x06'
p10311
tp10312
Rp10313
ag2
(g6
S'\x9a\x06'
p10314
tp10315
Rp10316
ag2
(g6
S'\x9b\x06'
p10317
tp10318
Rp10319
ag2
(g6
S'\x9c\x06'
p10320
tp10321
Rp10322
ag2
(g6
S'\x9d\x06'
p10323
tp10324
Rp10325
ag2
(g6
S'\xb5\x06'
p10326
tp10327
Rp10328
ag2
(g6
S'\xb6\x06'
p10329
tp10330
Rp10331
ag2
(g6
S'\xb7\x06'
p10332
tp10333
Rp10334
ag2
(g6
S'\xb8\x06'
p10335
tp10336
Rp10337
ag2
(g6
S'\xb9\x06'
p10338
tp10339
Rp10340
ag2
(g6
S'\xba\x06'
p10341
tp10342
Rp10343
ag2
(g6
S'\xd3\x06'
p10344
tp10345
Rp10346
ag2
(g6
S'\xd4\x06'
p10347
tp10348
Rp10349
ag2
(g6
S'\xd5\x06'
p10350
tp10351
Rp10352
ag2
(g6
S'\xd6\x06'
p10353
tp10354
Rp10355
ag2
(g6
S'\xd7\x06'
p10356
tp10357
Rp10358
ag2
(g6
S'\xd8\x06'
p10359
tp10360
Rp10361
ag2
(g6
S'\xef\x06'
p10362
tp10363
Rp10364
ag2
(g6
S'\xf0\x06'
p10365
tp10366
Rp10367
ag2
(g6
S'\xf1\x06'
p10368
tp10369
Rp10370
ag2
(g6
S'\xf2\x06'
p10371
tp10372
Rp10373
ag2
(g6
S'\xf3\x06'
p10374
tp10375
Rp10376
ag2
(g6
S'\xf4\x06'
p10377
tp10378
Rp10379
ag2
(g6
S'\x0c\x07'
p10380
tp10381
Rp10382
ag2
(g6
S'\r\x07'
p10383
tp10384
Rp10385
ag2
(g6
S'\x0e\x07'
p10386
tp10387
Rp10388
ag2
(g6
S'\x0f\x07'
p10389
tp10390
Rp10391
ag2
(g6
S'\x10\x07'
p10392
tp10393
Rp10394
ag2
(g6
S'\x11\x07'
p10395
tp10396
Rp10397
ag2
(g6
S'*\x07'
p10398
tp10399
Rp10400
ag2
(g6
S'+\x07'
p10401
tp10402
Rp10403
ag2
(g6
S',\x07'
p10404
tp10405
Rp10406
ag2
(g6
S'-\x07'
p10407
tp10408
Rp10409
ag2
(g6
S'F\x07'
p10410
tp10411
Rp10412
ag2
(g6
S'G\x07'
p10413
tp10414
Rp10415
ag2
(g6
S'H\x07'
p10416
tp10417
Rp10418
ag2
(g6
S'I\x07'
p10419
tp10420
Rp10421
ag2
(g6
S'b\x07'
p10422
tp10423
Rp10424
ag2
(g6
S'c\x07'
p10425
tp10426
Rp10427
ag2
(g6
S'd\x07'
p10428
tp10429
Rp10430
ag2
(g6
S'y\x07'
p10431
tp10432
Rp10433
ag2
(g6
S'z\x07'
p10434
tp10435
Rp10436
ag2
(g6
S'\xd5\x08'
p10437
tp10438
Rp10439
ag2
(g6
S'\xd6\x08'
p10440
tp10441
Rp10442
ag2
(g6
S'\xd7\x08'
p10443
tp10444
Rp10445
ag2
(g6
S'\xd8\x08'
p10446
tp10447
Rp10448
ag2
(g6
S'\xd9\x08'
p10449
tp10450
Rp10451
ag2
(g6
S'\xda\x08'
p10452
tp10453
Rp10454
ag2
(g6
S'\xe1\x08'
p10455
tp10456
Rp10457
ag2
(g6
S'\xe2\x08'
p10458
tp10459
Rp10460
ag2
(g6
S'\xe3\x08'
p10461
tp10462
Rp10463
ag2
(g6
S'\xe4\x08'
p10464
tp10465
Rp10466
ag2
(g6
S'\xe5\x08'
p10467
tp10468
Rp10469
ag2
(g6
S'\xe6\x08'
p10470
tp10471
Rp10472
ag2
(g6
S'\xe7\x08'
p10473
tp10474
Rp10475
ag2
(g6
S'\xee\x08'
p10476
tp10477
Rp10478
ag2
(g6
S'\xef\x08'
p10479
tp10480
Rp10481
ag2
(g6
S'\xf0\x08'
p10482
tp10483
Rp10484
ag2
(g6
S'\xf1\x08'
p10485
tp10486
Rp10487
ag2
(g6
S'\xf2\x08'
p10488
tp10489
Rp10490
ag2
(g6
S'\xf3\x08'
p10491
tp10492
Rp10493
ag2
(g6
S'\xfc\x08'
p10494
tp10495
Rp10496
ag2
(g6
S'\xfd\x08'
p10497
tp10498
Rp10499
ag2
(g6
S'\xfe\x08'
p10500
tp10501
Rp10502
ag2
(g6
S'\xff\x08'
p10503
tp10504
Rp10505
ag2
(g6
S'\x00\t'
p10506
tp10507
Rp10508
ag2
(g6
S'\x01\t'
p10509
tp10510
Rp10511
ag2
(g6
S'\x0b\t'
p10512
tp10513
Rp10514
ag2
(g6
S'\x0c\t'
p10515
tp10516
Rp10517
ag2
(g6
S'\r\t'
p10518
tp10519
Rp10520
ag2
(g6
S'\x0e\t'
p10521
tp10522
Rp10523
ag2
(g6
S'\x0f\t'
p10524
tp10525
Rp10526
ag2
(g6
S'\x10\t'
p10527
tp10528
Rp10529
ag2
(g6
S'\x1c\t'
p10530
tp10531
Rp10532
ag2
(g6
S'\x1d\t'
p10533
tp10534
Rp10535
ag2
(g6
S'\x1e\t'
p10536
tp10537
Rp10538
ag2
(g6
S'\x1f\t'
p10539
tp10540
Rp10541
ag2
(g6
S' \t'
p10542
tp10543
Rp10544
ag2
(g6
S'!\t'
p10545
tp10546
Rp10547
ag2
(g6
S'1\t'
p10548
tp10549
Rp10550
ag2
(g6
S'2\t'
p10551
tp10552
Rp10553
ag2
(g6
S'3\t'
p10554
tp10555
Rp10556
ag2
(g6
S'4\t'
p10557
tp10558
Rp10559
ag2
(g6
S'5\t'
p10560
tp10561
Rp10562
ag2
(g6
S'E\t'
p10563
tp10564
Rp10565
ag2
(g6
S'F\t'
p10566
tp10567
Rp10568
ag2
(g6
S'G\t'
p10569
tp10570
Rp10571
ag2
(g6
S'H\t'
p10572
tp10573
Rp10574
ag2
(g6
S'I\t'
p10575
tp10576
Rp10577
ag2
(g6
S'\\\t'
p10578
tp10579
Rp10580
ag2
(g6
S']\t'
p10581
tp10582
Rp10583
ag2
(g6
S'^\t'
p10584
tp10585
Rp10586
ag2
(g6
S'_\t'
p10587
tp10588
Rp10589
ag2
(g6
S'r\t'
p10590
tp10591
Rp10592
ag2
(g6
S's\t'
p10593
tp10594
Rp10595
ag2
(g6
S't\t'
p10596
tp10597
Rp10598
ag2
(g6
S'u\t'
p10599
tp10600
Rp10601
ag2
(g6
S'\x87\t'
p10602
tp10603
Rp10604
ag2
(g6
S'\x88\t'
p10605
tp10606
Rp10607
ag2
(g6
S'\x89\t'
p10608
tp10609
Rp10610
ag2
(g6
S'\x9b\t'
p10611
tp10612
Rp10613
ag2
(g6
S'\x9c\t'
p10614
tp10615
Rp10616
ag2
(g6
S'\x9d\t'
p10617
tp10618
Rp10619
ag2
(g6
S'\xab\t'
p10620
tp10621
Rp10622
ag2
(g6
S'\xac\t'
p10623
tp10624
Rp10625
aa(lp10626
g2
(g6
S'|\x01'
p10627
tp10628
Rp10629
ag2
(g6
S'}\x01'
p10630
tp10631
Rp10632
ag2
(g6
S'\x8d\x01'
p10633
tp10634
Rp10635
ag2
(g6
S'\x8e\x01'
p10636
tp10637
Rp10638
ag2
(g6
S'\x8f\x01'
p10639
tp10640
Rp10641
ag2
(g6
S'\x90\x01'
p10642
tp10643
Rp10644
ag2
(g6
S'\x91\x01'
p10645
tp10646
Rp10647
ag2
(g6
S'\xa3\x01'
p10648
tp10649
Rp10650
ag2
(g6
S'\xa4\x01'
p10651
tp10652
Rp10653
ag2
(g6
S'\xa5\x01'
p10654
tp10655
Rp10656
ag2
(g6
S'\xa6\x01'
p10657
tp10658
Rp10659
ag2
(g6
S'\xa7\x01'
p10660
tp10661
Rp10662
ag2
(g6
S'\xbb\x01'
p10663
tp10664
Rp10665
ag2
(g6
S'\xbc\x01'
p10666
tp10667
Rp10668
ag2
(g6
S'\xbd\x01'
p10669
tp10670
Rp10671
ag2
(g6
S'\xbe\x01'
p10672
tp10673
Rp10674
ag2
(g6
S'\xbf\x01'
p10675
tp10676
Rp10677
ag2
(g6
S'\xd2\x01'
p10678
tp10679
Rp10680
ag2
(g6
S'\xd3\x01'
p10681
tp10682
Rp10683
ag2
(g6
S'\xd4\x01'
p10684
tp10685
Rp10686
ag2
(g6
S'\xd5\x01'
p10687
tp10688
Rp10689
ag2
(g6
S'\xd6\x01'
p10690
tp10691
Rp10692
ag2
(g6
S'\xd7\x01'
p10693
tp10694
Rp10695
ag2
(g6
S'\xeb\x01'
p10696
tp10697
Rp10698
ag2
(g6
S'\xec\x01'
p10699
tp10700
Rp10701
ag2
(g6
S'\xed\x01'
p10702
tp10703
Rp10704
ag2
(g6
S'\xee\x01'
p10705
tp10706
Rp10707
ag2
(g6
S'\xef\x01'
p10708
tp10709
Rp10710
ag2
(g6
S'\xf0\x01'
p10711
tp10712
Rp10713
ag2
(g6
S'\x07\x02'
p10714
tp10715
Rp10716
ag2
(g6
S'\x08\x02'
p10717
tp10718
Rp10719
ag2
(g6
S'\t\x02'
p10720
tp10721
Rp10722
ag2
(g6
S'\n\x02'
p10723
tp10724
Rp10725
ag2
(g6
S'\x0b\x02'
p10726
tp10727
Rp10728
ag2
(g6
S'#\x02'
p10729
tp10730
Rp10731
ag2
(g6
S'$\x02'
p10732
tp10733
Rp10734
ag2
(g6
S'%\x02'
p10735
tp10736
Rp10737
ag2
(g6
S'&\x02'
p10738
tp10739
Rp10740
ag2
(g6
S"'\x02"
p10741
tp10742
Rp10743
ag2
(g6
S'?\x02'
p10744
tp10745
Rp10746
ag2
(g6
S'@\x02'
p10747
tp10748
Rp10749
ag2
(g6
S'A\x02'
p10750
tp10751
Rp10752
ag2
(g6
S'X\x02'
p10753
tp10754
Rp10755
ag2
(g6
S'Y\x02'
p10756
tp10757
Rp10758
ag2
(g6
S'm\x02'
p10759
tp10760
Rp10761
ag2
(g6
S'n\x02'
p10762
tp10763
Rp10764
ag2
(g6
S'o\x02'
p10765
tp10766
Rp10767
ag2
(g6
S'\x81\x02'
p10768
tp10769
Rp10770
ag2
(g6
S'\x82\x02'
p10771
tp10772
Rp10773
ag2
(g6
S'\x83\x02'
p10774
tp10775
Rp10776
ag2
(g6
S'\xf7\x03'
p10777
tp10778
Rp10779
ag2
(g6
S'\xf8\x03'
p10780
tp10781
Rp10782
ag2
(g6
S'\t\x04'
p10783
tp10784
Rp10785
ag2
(g6
S'\n\x04'
p10786
tp10787
Rp10788
ag2
(g6
S'\x0b\x04'
p10789
tp10790
Rp10791
ag2
(g6
S'\x0c\x04'
p10792
tp10793
Rp10794
ag2
(g6
S'\x1f\x04'
p10795
tp10796
Rp10797
ag2
(g6
S' \x04'
p10798
tp10799
Rp10800
ag2
(g6
S'!\x04'
p10801
tp10802
Rp10803
ag2
(g6
S'"\x04'
p10804
tp10805
Rp10806
ag2
(g6
S'7\x04'
p10807
tp10808
Rp10809
ag2
(g6
S'8\x04'
p10810
tp10811
Rp10812
ag2
(g6
S'9\x04'
p10813
tp10814
Rp10815
ag2
(g6
S':\x04'
p10816
tp10817
Rp10818
ag2
(g6
S';\x04'
p10819
tp10820
Rp10821
ag2
(g6
S'P\x04'
p10822
tp10823
Rp10824
ag2
(g6
S'Q\x04'
p10825
tp10826
Rp10827
ag2
(g6
S'R\x04'
p10828
tp10829
Rp10830
ag2
(g6
S'S\x04'
p10831
tp10832
Rp10833
ag2
(g6
S'T\x04'
p10834
tp10835
Rp10836
ag2
(g6
S'l\x04'
p10837
tp10838
Rp10839
ag2
(g6
S'm\x04'
p10840
tp10841
Rp10842
ag2
(g6
S'n\x04'
p10843
tp10844
Rp10845
ag2
(g6
S'o\x04'
p10846
tp10847
Rp10848
ag2
(g6
S'p\x04'
p10849
tp10850
Rp10851
ag2
(g6
S'\x87\x04'
p10852
tp10853
Rp10854
ag2
(g6
S'\x88\x04'
p10855
tp10856
Rp10857
ag2
(g6
S'\x89\x04'
p10858
tp10859
Rp10860
ag2
(g6
S'\x8a\x04'
p10861
tp10862
Rp10863
ag2
(g6
S'\x8b\x04'
p10864
tp10865
Rp10866
ag2
(g6
S'\xa4\x04'
p10867
tp10868
Rp10869
ag2
(g6
S'\xa5\x04'
p10870
tp10871
Rp10872
ag2
(g6
S'\xa6\x04'
p10873
tp10874
Rp10875
ag2
(g6
S'\xa7\x04'
p10876
tp10877
Rp10878
ag2
(g6
S'\xa8\x04'
p10879
tp10880
Rp10881
ag2
(g6
S'\xc1\x04'
p10882
tp10883
Rp10884
ag2
(g6
S'\xc2\x04'
p10885
tp10886
Rp10887
ag2
(g6
S'\xc3\x04'
p10888
tp10889
Rp10890
ag2
(g6
S'\xc4\x04'
p10891
tp10892
Rp10893
ag2
(g6
S'\xc5\x04'
p10894
tp10895
Rp10896
ag2
(g6
S'\xdf\x04'
p10897
tp10898
Rp10899
ag2
(g6
S'\xe0\x04'
p10900
tp10901
Rp10902
ag2
(g6
S'\xe1\x04'
p10903
tp10904
Rp10905
ag2
(g6
S'\xe2\x04'
p10906
tp10907
Rp10908
ag2
(g6
S'\xe3\x04'
p10909
tp10910
Rp10911
ag2
(g6
S'\xf9\x04'
p10912
tp10913
Rp10914
ag2
(g6
S'\xfa\x04'
p10915
tp10916
Rp10917
ag2
(g6
S'\xfb\x04'
p10918
tp10919
Rp10920
ag2
(g6
S'\xfc\x04'
p10921
tp10922
Rp10923
ag2
(g6
S'\xfd\x04'
p10924
tp10925
Rp10926
ag2
(g6
S'\x13\x05'
p10927
tp10928
Rp10929
ag2
(g6
S'\x14\x05'
p10930
tp10931
Rp10932
ag2
(g6
S'\x15\x05'
p10933
tp10934
Rp10935
ag2
(g6
S'\x16\x05'
p10936
tp10937
Rp10938
ag2
(g6
S'*\x05'
p10939
tp10940
Rp10941
ag2
(g6
S'+\x05'
p10942
tp10943
Rp10944
ag2
(g6
S',\x05'
p10945
tp10946
Rp10947
ag2
(g6
S'-\x05'
p10948
tp10949
Rp10950
ag2
(g6
S'9\x05'
p10951
tp10952
Rp10953
ag2
(g6
S':\x05'
p10954
tp10955
Rp10956
ag2
(g6
S';\x05'
p10957
tp10958
Rp10959
ag2
(g6
S'Q\x06'
p10960
tp10961
Rp10962
ag2
(g6
S'R\x06'
p10963
tp10964
Rp10965
ag2
(g6
S'`\x06'
p10966
tp10967
Rp10968
ag2
(g6
S'a\x06'
p10969
tp10970
Rp10971
ag2
(g6
S'r\x06'
p10972
tp10973
Rp10974
ag2
(g6
S's\x06'
p10975
tp10976
Rp10977
ag2
(g6
S't\x06'
p10978
tp10979
Rp10980
ag2
(g6
S'\x86\x06'
p10981
tp10982
Rp10983
ag2
(g6
S'\x87\x06'
p10984
tp10985
Rp10986
ag2
(g6
S'\x88\x06'
p10987
tp10988
Rp10989
ag2
(g6
S'\x89\x06'
p10990
tp10991
Rp10992
ag2
(g6
S'\x9e\x06'
p10993
tp10994
Rp10995
ag2
(g6
S'\x9f\x06'
p10996
tp10997
Rp10998
ag2
(g6
S'\xa0\x06'
p10999
tp11000
Rp11001
ag2
(g6
S'\xa1\x06'
p11002
tp11003
Rp11004
ag2
(g6
S'\xbb\x06'
p11005
tp11006
Rp11007
ag2
(g6
S'\xbc\x06'
p11008
tp11009
Rp11010
ag2
(g6
S'\xbd\x06'
p11011
tp11012
Rp11013
ag2
(g6
S'\xd9\x06'
p11014
tp11015
Rp11016
ag2
(g6
S'\xda\x06'
p11017
tp11018
Rp11019
ag2
(g6
S'\xdb\x06'
p11020
tp11021
Rp11022
ag2
(g6
S'\xf5\x06'
p11023
tp11024
Rp11025
ag2
(g6
S'\xf6\x06'
p11026
tp11027
Rp11028
ag2
(g6
S'\xf7\x06'
p11029
tp11030
Rp11031
ag2
(g6
S'\x12\x07'
p11032
tp11033
Rp11034
ag2
(g6
S'\x13\x07'
p11035
tp11036
Rp11037
ag2
(g6
S'\x14\x07'
p11038
tp11039
Rp11040
ag2
(g6
S'.\x07'
p11041
tp11042
Rp11043
ag2
(g6
S'/\x07'
p11044
tp11045
Rp11046
ag2
(g6
S'0\x07'
p11047
tp11048
Rp11049
ag2
(g6
S'J\x07'
p11050
tp11051
Rp11052
ag2
(g6
S'K\x07'
p11053
tp11054
Rp11055
ag2
(g6
S'L\x07'
p11056
tp11057
Rp11058
ag2
(g6
S'e\x07'
p11059
tp11060
Rp11061
ag2
(g6
S'f\x07'
p11062
tp11063
Rp11064
ag2
(g6
S'g\x07'
p11065
tp11066
Rp11067
ag2
(g6
S'{\x07'
p11068
tp11069
Rp11070
ag2
(g6
S'|\x07'
p11071
tp11072
Rp11073
ag2
(g6
S'}\x07'
p11074
tp11075
Rp11076
ag2
(g6
S'\x8c\x07'
p11077
tp11078
Rp11079
ag2
(g6
S'\x8d\x07'
p11080
tp11081
Rp11082
ag2
(g6
S'\x8e\x07'
p11083
tp11084
Rp11085
ag2
(g6
S'\x9b\x07'
p11086
tp11087
Rp11088
ag2
(g6
S'\x9c\x07'
p11089
tp11090
Rp11091
ag2
(g6
S'\x9d\x07'
p11092
tp11093
Rp11094
ag2
(g6
S'\x11\t'
p11095
tp11096
Rp11097
ag2
(g6
S'\x12\t'
p11098
tp11099
Rp11100
ag2
(g6
S'"\t'
p11101
tp11102
Rp11103
ag2
(g6
S'#\t'
p11104
tp11105
Rp11106
ag2
(g6
S'$\t'
p11107
tp11108
Rp11109
ag2
(g6
S'6\t'
p11110
tp11111
Rp11112
ag2
(g6
S'7\t'
p11113
tp11114
Rp11115
ag2
(g6
S'8\t'
p11116
tp11117
Rp11118
ag2
(g6
S'J\t'
p11119
tp11120
Rp11121
ag2
(g6
S'K\t'
p11122
tp11123
Rp11124
ag2
(g6
S'L\t'
p11125
tp11126
Rp11127
ag2
(g6
S'`\t'
p11128
tp11129
Rp11130
ag2
(g6
S'a\t'
p11131
tp11132
Rp11133
ag2
(g6
S'b\t'
p11134
tp11135
Rp11136
ag2
(g6
S'v\t'
p11137
tp11138
Rp11139
ag2
(g6
S'w\t'
p11140
tp11141
Rp11142
ag2
(g6
S'x\t'
p11143
tp11144
Rp11145
ag2
(g6
S'\x8a\t'
p11146
tp11147
Rp11148
ag2
(g6
S'\x8b\t'
p11149
tp11150
Rp11151
ag2
(g6
S'\x8c\t'
p11152
tp11153
Rp11154
ag2
(g6
S'\x8d\t'
p11155
tp11156
Rp11157
ag2
(g6
S'\x9e\t'
p11158
tp11159
Rp11160
ag2
(g6
S'\x9f\t'
p11161
tp11162
Rp11163
ag2
(g6
S'\xa0\t'
p11164
tp11165
Rp11166
ag2
(g6
S'\xa1\t'
p11167
tp11168
Rp11169
ag2
(g6
S'\xad\t'
p11170
tp11171
Rp11172
ag2
(g6
S'\xae\t'
p11173
tp11174
Rp11175
ag2
(g6
S'\xaf\t'
p11176
tp11177
Rp11178
ag2
(g6
S'\xb8\t'
p11179
tp11180
Rp11181
aa(lp11182
g2
(g6
S'T\x0b'
p11183
tp11184
Rp11185
ag2
(g6
S'U\x0b'
p11186
tp11187
Rp11188
ag2
(g6
S'V\x0b'
p11189
tp11190
Rp11191
ag2
(g6
S'f\x0b'
p11192
tp11193
Rp11194
ag2
(g6
S'g\x0b'
p11195
tp11196
Rp11197
ag2
(g6
S'h\x0b'
p11198
tp11199
Rp11200
ag2
(g6
S'i\x0b'
p11201
tp11202
Rp11203
ag2
(g6
S'j\x0b'
p11204
tp11205
Rp11206
ag2
(g6
S'k\x0b'
p11207
tp11208
Rp11209
ag2
(g6
S'z\x0b'
p11210
tp11211
Rp11212
ag2
(g6
S'{\x0b'
p11213
tp11214
Rp11215
ag2
(g6
S'|\x0b'
p11216
tp11217
Rp11218
ag2
(g6
S'}\x0b'
p11219
tp11220
Rp11221
ag2
(g6
S'~\x0b'
p11222
tp11223
Rp11224
ag2
(g6
S'\x7f\x0b'
p11225
tp11226
Rp11227
ag2
(g6
S'\x80\x0b'
p11228
tp11229
Rp11230
ag2
(g6
S'\x92\x0b'
p11231
tp11232
Rp11233
ag2
(g6
S'\x93\x0b'
p11234
tp11235
Rp11236
ag2
(g6
S'\x94\x0b'
p11237
tp11238
Rp11239
ag2
(g6
S'\x95\x0b'
p11240
tp11241
Rp11242
ag2
(g6
S'\x96\x0b'
p11243
tp11244
Rp11245
ag2
(g6
S'\x97\x0b'
p11246
tp11247
Rp11248
ag2
(g6
S'\x98\x0b'
p11249
tp11250
Rp11251
ag2
(g6
S'\xac\x0b'
p11252
tp11253
Rp11254
ag2
(g6
S'\xad\x0b'
p11255
tp11256
Rp11257
ag2
(g6
S'\xae\x0b'
p11258
tp11259
Rp11260
ag2
(g6
S'\xaf\x0b'
p11261
tp11262
Rp11263
ag2
(g6
S'\xb0\x0b'
p11264
tp11265
Rp11266
ag2
(g6
S'\xb1\x0b'
p11267
tp11268
Rp11269
ag2
(g6
S'\xb2\x0b'
p11270
tp11271
Rp11272
ag2
(g6
S'\xc6\x0b'
p11273
tp11274
Rp11275
ag2
(g6
S'\xc7\x0b'
p11276
tp11277
Rp11278
ag2
(g6
S'\xc8\x0b'
p11279
tp11280
Rp11281
ag2
(g6
S'\xc9\x0b'
p11282
tp11283
Rp11284
ag2
(g6
S'\xca\x0b'
p11285
tp11286
Rp11287
ag2
(g6
S'\xcb\x0b'
p11288
tp11289
Rp11290
ag2
(g6
S'\xde\x0b'
p11291
tp11292
Rp11293
ag2
(g6
S'\xdf\x0b'
p11294
tp11295
Rp11296
ag2
(g6
S'\xe0\x0b'
p11297
tp11298
Rp11299
ag2
(g6
S'\xe1\x0b'
p11300
tp11301
Rp11302
ag2
(g6
S'\xe2\x0b'
p11303
tp11304
Rp11305
ag2
(g6
S'\xe3\x0b'
p11306
tp11307
Rp11308
ag2
(g6
S'\xf8\x0b'
p11309
tp11310
Rp11311
ag2
(g6
S'\xf9\x0b'
p11312
tp11313
Rp11314
ag2
(g6
S'\xfa\x0b'
p11315
tp11316
Rp11317
ag2
(g6
S'\xfb\x0b'
p11318
tp11319
Rp11320
ag2
(g6
S'\xd7\r'
p11321
tp11322
Rp11323
ag2
(g6
S'\xd8\r'
p11324
tp11325
Rp11326
ag2
(g6
S'\xd9\r'
p11327
tp11328
Rp11329
ag2
(g6
S'\xda\r'
p11330
tp11331
Rp11332
ag2
(g6
S'\xe5\r'
p11333
tp11334
Rp11335
ag2
(g6
S'\xe6\r'
p11336
tp11337
Rp11338
ag2
(g6
S'\xe7\r'
p11339
tp11340
Rp11341
ag2
(g6
S'\xe8\r'
p11342
tp11343
Rp11344
ag2
(g6
S'\xe9\r'
p11345
tp11346
Rp11347
ag2
(g6
S'\xea\r'
p11348
tp11349
Rp11350
ag2
(g6
S'\xf5\r'
p11351
tp11352
Rp11353
ag2
(g6
S'\xf6\r'
p11354
tp11355
Rp11356
ag2
(g6
S'\xf7\r'
p11357
tp11358
Rp11359
ag2
(g6
S'\xf8\r'
p11360
tp11361
Rp11362
ag2
(g6
S'\xf9\r'
p11363
tp11364
Rp11365
ag2
(g6
S'\xfa\r'
p11366
tp11367
Rp11368
ag2
(g6
S'\x03\x0e'
p11369
tp11370
Rp11371
ag2
(g6
S'\x04\x0e'
p11372
tp11373
Rp11374
ag2
(g6
S'\x05\x0e'
p11375
tp11376
Rp11377
ag2
(g6
S'\x06\x0e'
p11378
tp11379
Rp11380
ag2
(g6
S'\x07\x0e'
p11381
tp11382
Rp11383
ag2
(g6
S'\x08\x0e'
p11384
tp11385
Rp11386
ag2
(g6
S'\t\x0e'
p11387
tp11388
Rp11389
ag2
(g6
S'\n\x0e'
p11390
tp11391
Rp11392
ag2
(g6
S'\x14\x0e'
p11393
tp11394
Rp11395
ag2
(g6
S'\x15\x0e'
p11396
tp11397
Rp11398
ag2
(g6
S'\x16\x0e'
p11399
tp11400
Rp11401
ag2
(g6
S'\x17\x0e'
p11402
tp11403
Rp11404
ag2
(g6
S'\x18\x0e'
p11405
tp11406
Rp11407
ag2
(g6
S'\x19\x0e'
p11408
tp11409
Rp11410
ag2
(g6
S'\x1a\x0e'
p11411
tp11412
Rp11413
ag2
(g6
S'\x1b\x0e'
p11414
tp11415
Rp11416
ag2
(g6
S"'\x0e"
p11417
tp11418
Rp11419
ag2
(g6
S'(\x0e'
p11420
tp11421
Rp11422
ag2
(g6
S')\x0e'
p11423
tp11424
Rp11425
ag2
(g6
S'*\x0e'
p11426
tp11427
Rp11428
ag2
(g6
S'+\x0e'
p11429
tp11430
Rp11431
ag2
(g6
S',\x0e'
p11432
tp11433
Rp11434
ag2
(g6
S'-\x0e'
p11435
tp11436
Rp11437
ag2
(g6
S';\x0e'
p11438
tp11439
Rp11440
ag2
(g6
S'<\x0e'
p11441
tp11442
Rp11443
ag2
(g6
S'=\x0e'
p11444
tp11445
Rp11446
ag2
(g6
S'>\x0e'
p11447
tp11448
Rp11449
ag2
(g6
S'?\x0e'
p11450
tp11451
Rp11452
ag2
(g6
S'@\x0e'
p11453
tp11454
Rp11455
ag2
(g6
S'N\x0e'
p11456
tp11457
Rp11458
ag2
(g6
S'O\x0e'
p11459
tp11460
Rp11461
ag2
(g6
S'P\x0e'
p11462
tp11463
Rp11464
ag2
(g6
S'Q\x0e'
p11465
tp11466
Rp11467
ag2
(g6
S'R\x0e'
p11468
tp11469
Rp11470
ag2
(g6
S'a\x0e'
p11471
tp11472
Rp11473
ag2
(g6
S'b\x0e'
p11474
tp11475
Rp11476
ag2
(g6
S'c\x0e'
p11477
tp11478
Rp11479
ag2
(g6
S'd\x0e'
p11480
tp11481
Rp11482
ag2
(g6
S's\x0e'
p11483
tp11484
Rp11485
ag2
(g6
S't\x0e'
p11486
tp11487
Rp11488
ag2
(g6
S'%\x10'
p11489
tp11490
Rp11491
ag2
(g6
S'&\x10'
p11492
tp11493
Rp11494
ag2
(g6
S"'\x10"
p11495
tp11496
Rp11497
ag2
(g6
S'3\x10'
p11498
tp11499
Rp11500
ag2
(g6
S'4\x10'
p11501
tp11502
Rp11503
ag2
(g6
S'5\x10'
p11504
tp11505
Rp11506
ag2
(g6
S'B\x10'
p11507
tp11508
Rp11509
ag2
(g6
S'C\x10'
p11510
tp11511
Rp11512
ag2
(g6
S'D\x10'
p11513
tp11514
Rp11515
ag2
(g6
S'O\x10'
p11516
tp11517
Rp11518
ag2
(g6
S'P\x10'
p11519
tp11520
Rp11521
ag2
(g6
S'Q\x10'
p11522
tp11523
Rp11524
ag2
(g6
S'R\x10'
p11525
tp11526
Rp11527
ag2
(g6
S'S\x10'
p11528
tp11529
Rp11530
ag2
(g6
S'^\x10'
p11531
tp11532
Rp11533
ag2
(g6
S'_\x10'
p11534
tp11535
Rp11536
ag2
(g6
S'`\x10'
p11537
tp11538
Rp11539
ag2
(g6
S'a\x10'
p11540
tp11541
Rp11542
ag2
(g6
S'b\x10'
p11543
tp11544
Rp11545
ag2
(g6
S'c\x10'
p11546
tp11547
Rp11548
ag2
(g6
S'm\x10'
p11549
tp11550
Rp11551
ag2
(g6
S'n\x10'
p11552
tp11553
Rp11554
ag2
(g6
S'o\x10'
p11555
tp11556
Rp11557
ag2
(g6
S'p\x10'
p11558
tp11559
Rp11560
ag2
(g6
S'q\x10'
p11561
tp11562
Rp11563
ag2
(g6
S'r\x10'
p11564
tp11565
Rp11566
ag2
(g6
S'{\x10'
p11567
tp11568
Rp11569
ag2
(g6
S'|\x10'
p11570
tp11571
Rp11572
ag2
(g6
S'}\x10'
p11573
tp11574
Rp11575
ag2
(g6
S'~\x10'
p11576
tp11577
Rp11578
ag2
(g6
S'\x7f\x10'
p11579
tp11580
Rp11581
ag2
(g6
S'\x80\x10'
p11582
tp11583
Rp11584
ag2
(g6
S'\x81\x10'
p11585
tp11586
Rp11587
ag2
(g6
S'\x89\x10'
p11588
tp11589
Rp11590
ag2
(g6
S'\x8a\x10'
p11591
tp11592
Rp11593
ag2
(g6
S'\x8b\x10'
p11594
tp11595
Rp11596
ag2
(g6
S'\x8c\x10'
p11597
tp11598
Rp11599
ag2
(g6
S'\x8d\x10'
p11600
tp11601
Rp11602
ag2
(g6
S'\x8e\x10'
p11603
tp11604
Rp11605
ag2
(g6
S'\x96\x10'
p11606
tp11607
Rp11608
ag2
(g6
S'\x97\x10'
p11609
tp11610
Rp11611
ag2
(g6
S'\x98\x10'
p11612
tp11613
Rp11614
ag2
(g6
S'\x99\x10'
p11615
tp11616
Rp11617
ag2
(g6
S'\xa1\x10'
p11618
tp11619
Rp11620
ag2
(g6
S'\xa2\x10'
p11621
tp11622
Rp11623
ag2
(g6
S'\xa9\x10'
p11624
tp11625
Rp11626
ag2
(g6
S'{\x11'
p11627
tp11628
Rp11629
ag2
(g6
S'\x84\x11'
p11630
tp11631
Rp11632
ag2
(g6
S'\x85\x11'
p11633
tp11634
Rp11635
ag2
(g6
S'\x86\x11'
p11636
tp11637
Rp11638
ag2
(g6
S'\x87\x11'
p11639
tp11640
Rp11641
ag2
(g6
S'\x88\x11'
p11642
tp11643
Rp11644
ag2
(g6
S'\x89\x11'
p11645
tp11646
Rp11647
ag2
(g6
S'\x8a\x11'
p11648
tp11649
Rp11650
ag2
(g6
S'\x8b\x11'
p11651
tp11652
Rp11653
ag2
(g6
S'\x92\x11'
p11654
tp11655
Rp11656
ag2
(g6
S'\x93\x11'
p11657
tp11658
Rp11659
ag2
(g6
S'\x94\x11'
p11660
tp11661
Rp11662
ag2
(g6
S'\x95\x11'
p11663
tp11664
Rp11665
ag2
(g6
S'\x96\x11'
p11666
tp11667
Rp11668
ag2
(g6
S'\x97\x11'
p11669
tp11670
Rp11671
ag2
(g6
S'\x98\x11'
p11672
tp11673
Rp11674
ag2
(g6
S'\x99\x11'
p11675
tp11676
Rp11677
ag2
(g6
S'\xa2\x11'
p11678
tp11679
Rp11680
ag2
(g6
S'\xa3\x11'
p11681
tp11682
Rp11683
ag2
(g6
S'\xa4\x11'
p11684
tp11685
Rp11686
ag2
(g6
S'\xa5\x11'
p11687
tp11688
Rp11689
ag2
(g6
S'\xa6\x11'
p11690
tp11691
Rp11692
ag2
(g6
S'\xa7\x11'
p11693
tp11694
Rp11695
ag2
(g6
S'\xa8\x11'
p11696
tp11697
Rp11698
ag2
(g6
S'\xa9\x11'
p11699
tp11700
Rp11701
ag2
(g6
S'\xb2\x11'
p11702
tp11703
Rp11704
ag2
(g6
S'\xb3\x11'
p11705
tp11706
Rp11707
ag2
(g6
S'\xb4\x11'
p11708
tp11709
Rp11710
ag2
(g6
S'\xb5\x11'
p11711
tp11712
Rp11713
ag2
(g6
S'\xb6\x11'
p11714
tp11715
Rp11716
ag2
(g6
S'\xb7\x11'
p11717
tp11718
Rp11719
ag2
(g6
S'\xb8\x11'
p11720
tp11721
Rp11722
ag2
(g6
S'\xb9\x11'
p11723
tp11724
Rp11725
ag2
(g6
S'\xc2\x11'
p11726
tp11727
Rp11728
ag2
(g6
S'\xc3\x11'
p11729
tp11730
Rp11731
ag2
(g6
S'\xc4\x11'
p11732
tp11733
Rp11734
ag2
(g6
S'\xc5\x11'
p11735
tp11736
Rp11737
ag2
(g6
S'\xc6\x11'
p11738
tp11739
Rp11740
ag2
(g6
S'\xc7\x11'
p11741
tp11742
Rp11743
ag2
(g6
S'\xc8\x11'
p11744
tp11745
Rp11746
ag2
(g6
S'\xc9\x11'
p11747
tp11748
Rp11749
ag2
(g6
S'\xd2\x11'
p11750
tp11751
Rp11752
ag2
(g6
S'\xd3\x11'
p11753
tp11754
Rp11755
ag2
(g6
S'\xd4\x11'
p11756
tp11757
Rp11758
ag2
(g6
S'\xd5\x11'
p11759
tp11760
Rp11761
ag2
(g6
S'\xd6\x11'
p11762
tp11763
Rp11764
ag2
(g6
S'\xd7\x11'
p11765
tp11766
Rp11767
ag2
(g6
S'\xd8\x11'
p11768
tp11769
Rp11770
ag2
(g6
S'\xe1\x11'
p11771
tp11772
Rp11773
ag2
(g6
S'\xe2\x11'
p11774
tp11775
Rp11776
ag2
(g6
S'\xe3\x11'
p11777
tp11778
Rp11779
ag2
(g6
S'\xe4\x11'
p11780
tp11781
Rp11782
ag2
(g6
S'\xe5\x11'
p11783
tp11784
Rp11785
ag2
(g6
S'\xed\x11'
p11786
tp11787
Rp11788
ag2
(g6
S'\xee\x11'
p11789
tp11790
Rp11791
ag2
(g6
S'\xef\x11'
p11792
tp11793
Rp11794
ag2
(g6
S'\xf0\x11'
p11795
tp11796
Rp11797
ag2
(g6
S'\xf1\x11'
p11798
tp11799
Rp11800
ag2
(g6
S'\xf9\x11'
p11801
tp11802
Rp11803
ag2
(g6
S'\xfa\x11'
p11804
tp11805
Rp11806
ag2
(g6
S'\xfb\x11'
p11807
tp11808
Rp11809
aa(lp11810
g2
(g6
S'\x18\n'
p11811
tp11812
Rp11813
ag2
(g6
S'$\n'
p11814
tp11815
Rp11816
ag2
(g6
S'%\n'
p11817
tp11818
Rp11819
ag2
(g6
S'0\n'
p11820
tp11821
Rp11822
ag2
(g6
S'1\n'
p11823
tp11824
Rp11825
ag2
(g6
S'>\n'
p11826
tp11827
Rp11828
ag2
(g6
S'?\n'
p11829
tp11830
Rp11831
ag2
(g6
S'@\n'
p11832
tp11833
Rp11834
ag2
(g6
S'A\n'
p11835
tp11836
Rp11837
ag2
(g6
S'M\n'
p11838
tp11839
Rp11840
ag2
(g6
S'N\n'
p11841
tp11842
Rp11843
ag2
(g6
S'O\n'
p11844
tp11845
Rp11846
ag2
(g6
S'P\n'
p11847
tp11848
Rp11849
ag2
(g6
S'Q\n'
p11850
tp11851
Rp11852
ag2
(g6
S'Z\n'
p11853
tp11854
Rp11855
ag2
(g6
S'[\n'
p11856
tp11857
Rp11858
ag2
(g6
S'\\\n'
p11859
tp11860
Rp11861
ag2
(g6
S']\n'
p11862
tp11863
Rp11864
ag2
(g6
S'^\n'
p11865
tp11866
Rp11867
ag2
(g6
S'_\n'
p11868
tp11869
Rp11870
ag2
(g6
S'e\n'
p11871
tp11872
Rp11873
ag2
(g6
S'f\n'
p11874
tp11875
Rp11876
ag2
(g6
S'g\n'
p11877
tp11878
Rp11879
ag2
(g6
S'h\n'
p11880
tp11881
Rp11882
ag2
(g6
S'i\n'
p11883
tp11884
Rp11885
ag2
(g6
S'j\n'
p11886
tp11887
Rp11888
ag2
(g6
S't\n'
p11889
tp11890
Rp11891
ag2
(g6
S'u\n'
p11892
tp11893
Rp11894
ag2
(g6
S'v\n'
p11895
tp11896
Rp11897
ag2
(g6
S'w\n'
p11898
tp11899
Rp11900
ag2
(g6
S'x\n'
p11901
tp11902
Rp11903
ag2
(g6
S'y\n'
p11904
tp11905
Rp11906
ag2
(g6
S'\x83\n'
p11907
tp11908
Rp11909
ag2
(g6
S'\x84\n'
p11910
tp11911
Rp11912
ag2
(g6
S'\x85\n'
p11913
tp11914
Rp11915
ag2
(g6
S'\x86\n'
p11916
tp11917
Rp11918
ag2
(g6
S'\xb1\x0c'
p11919
tp11920
Rp11921
ag2
(g6
S'\xc1\x0c'
p11922
tp11923
Rp11924
ag2
(g6
S'\xc2\x0c'
p11925
tp11926
Rp11927
ag2
(g6
S'\xd0\x0c'
p11928
tp11929
Rp11930
ag2
(g6
S'\xd1\x0c'
p11931
tp11932
Rp11933
ag2
(g6
S'\xde\x0c'
p11934
tp11935
Rp11936
ag2
(g6
S'\xdf\x0c'
p11937
tp11938
Rp11939
ag2
(g6
S'\xe0\x0c'
p11940
tp11941
Rp11942
ag2
(g6
S'\xe1\x0c'
p11943
tp11944
Rp11945
ag2
(g6
S'\xe2\x0c'
p11946
tp11947
Rp11948
ag2
(g6
S'\xeb\x0c'
p11949
tp11950
Rp11951
ag2
(g6
S'\xec\x0c'
p11952
tp11953
Rp11954
ag2
(g6
S'\xed\x0c'
p11955
tp11956
Rp11957
ag2
(g6
S'\xee\x0c'
p11958
tp11959
Rp11960
ag2
(g6
S'\xef\x0c'
p11961
tp11962
Rp11963
ag2
(g6
S'\xf9\x0c'
p11964
tp11965
Rp11966
ag2
(g6
S'\xfa\x0c'
p11967
tp11968
Rp11969
ag2
(g6
S'\xfb\x0c'
p11970
tp11971
Rp11972
ag2
(g6
S'\xfc\x0c'
p11973
tp11974
Rp11975
ag2
(g6
S'\xfd\x0c'
p11976
tp11977
Rp11978
ag2
(g6
S'\x07\r'
p11979
tp11980
Rp11981
ag2
(g6
S'\x08\r'
p11982
tp11983
Rp11984
ag2
(g6
S'\t\r'
p11985
tp11986
Rp11987
ag2
(g6
S'\n\r'
p11988
tp11989
Rp11990
ag2
(g6
S'\x0b\r'
p11991
tp11992
Rp11993
ag2
(g6
S'B\x0f'
p11994
tp11995
Rp11996
ag2
(g6
S'C\x0f'
p11997
tp11998
Rp11999
ag2
(g6
S'D\x0f'
p12000
tp12001
Rp12002
ag2
(g6
S'E\x0f'
p12003
tp12004
Rp12005
ag2
(g6
S'F\x0f'
p12006
tp12007
Rp12008
ag2
(g6
S'O\x0f'
p12009
tp12010
Rp12011
ag2
(g6
S'P\x0f'
p12012
tp12013
Rp12014
ag2
(g6
S'Q\x0f'
p12015
tp12016
Rp12017
ag2
(g6
S'R\x0f'
p12018
tp12019
Rp12020
ag2
(g6
S'S\x0f'
p12021
tp12022
Rp12023
ag2
(g6
S'[\x0f'
p12024
tp12025
Rp12026
ag2
(g6
S'\\\x0f'
p12027
tp12028
Rp12029
ag2
(g6
S']\x0f'
p12030
tp12031
Rp12032
ag2
(g6
S'^\x0f'
p12033
tp12034
Rp12035
ag2
(g6
S'_\x0f'
p12036
tp12037
Rp12038
ag2
(g6
S'`\x0f'
p12039
tp12040
Rp12041
ag2
(g6
S'g\x0f'
p12042
tp12043
Rp12044
ag2
(g6
S'h\x0f'
p12045
tp12046
Rp12047
ag2
(g6
S'i\x0f'
p12048
tp12049
Rp12050
ag2
(g6
S'j\x0f'
p12051
tp12052
Rp12053
ag2
(g6
S'k\x0f'
p12054
tp12055
Rp12056
ag2
(g6
S's\x0f'
p12057
tp12058
Rp12059
ag2
(g6
S't\x0f'
p12060
tp12061
Rp12062
ag2
(g6
S'u\x0f'
p12063
tp12064
Rp12065
ag2
(g6
S'v\x0f'
p12066
tp12067
Rp12068
ag2
(g6
S'w\x0f'
p12069
tp12070
Rp12071
ag2
(g6
S'\x80\x0f'
p12072
tp12073
Rp12074
ag2
(g6
S'\x81\x0f'
p12075
tp12076
Rp12077
ag2
(g6
S'\x82\x0f'
p12078
tp12079
Rp12080
ag2
(g6
S'\x83\x0f'
p12081
tp12082
Rp12083
ag2
(g6
S'\x8b\x0f'
p12084
tp12085
Rp12086
ag2
(g6
S'\x8c\x0f'
p12087
tp12088
Rp12089
ag2
(g6
S'\x8d\x0f'
p12090
tp12091
Rp12092
ag2
(g6
S'\x8e\x0f'
p12093
tp12094
Rp12095
ag2
(g6
S'\xd7\x10'
p12096
tp12097
Rp12098
ag2
(g6
S'\xdc\x10'
p12099
tp12100
Rp12101
ag2
(g6
S'\xdd\x10'
p12102
tp12103
Rp12104
ag2
(g6
S'\xe2\x10'
p12105
tp12106
Rp12107
ag2
(g6
S'\xe3\x10'
p12108
tp12109
Rp12110
ag2
(g6
S'\xe7\x10'
p12111
tp12112
Rp12113
ag2
(g6
S'\xe8\x10'
p12114
tp12115
Rp12116
ag2
(g6
S'\xee\x10'
p12117
tp12118
Rp12119
ag2
(g6
S'\xef\x10'
p12120
tp12121
Rp12122
ag2
(g6
S'\xf8\x10'
p12123
tp12124
Rp12125
ag2
(g6
S'\xf9\x10'
p12126
tp12127
Rp12128
ag2
(g6
S'\x03\x11'
p12129
tp12130
Rp12131
ag2
(g6
S'\x04\x11'
p12132
tp12133
Rp12134
aa(lp12135
g2
(g6
S'\xcf\x00'
p12136
tp12137
Rp12138
ag2
(g6
S'\xd0\x00'
p12139
tp12140
Rp12141
ag2
(g6
S'\xd1\x00'
p12142
tp12143
Rp12144
ag2
(g6
S'\xd2\x00'
p12145
tp12146
Rp12147
ag2
(g6
S'\xd3\x00'
p12148
tp12149
Rp12150
ag2
(g6
S'\xd4\x00'
p12151
tp12152
Rp12153
ag2
(g6
S'\xe7\x00'
p12154
tp12155
Rp12156
ag2
(g6
S'\xe8\x00'
p12157
tp12158
Rp12159
ag2
(g6
S'\xe9\x00'
p12160
tp12161
Rp12162
ag2
(g6
S'\xea\x00'
p12163
tp12164
Rp12165
ag2
(g6
S'\xeb\x00'
p12166
tp12167
Rp12168
ag2
(g6
S'\xec\x00'
p12169
tp12170
Rp12171
ag2
(g6
S'\xed\x00'
p12172
tp12173
Rp12174
ag2
(g6
S'\xee\x00'
p12175
tp12176
Rp12177
ag2
(g6
S'\xef\x00'
p12178
tp12179
Rp12180
ag2
(g6
S'\xff\x00'
p12181
tp12182
Rp12183
ag2
(g6
S'\x00\x01'
p12184
tp12185
Rp12186
ag2
(g6
S'\x01\x01'
p12187
tp12188
Rp12189
ag2
(g6
S'\x02\x01'
p12190
tp12191
Rp12192
ag2
(g6
S'\x03\x01'
p12193
tp12194
Rp12195
ag2
(g6
S'\x14\x01'
p12196
tp12197
Rp12198
ag2
(g6
S'\x15\x01'
p12199
tp12200
Rp12201
ag2
(g6
S'\x16\x01'
p12202
tp12203
Rp12204
ag2
(g6
S'\x17\x01'
p12205
tp12206
Rp12207
ag2
(g6
S'x\x03'
p12208
tp12209
Rp12210
ag2
(g6
S'\x8e\x03'
p12211
tp12212
Rp12213
ag2
(g6
S'\x8f\x03'
p12214
tp12215
Rp12216
ag2
(g6
S'\x90\x03'
p12217
tp12218
Rp12219
ag2
(g6
S'\x91\x03'
p12220
tp12221
Rp12222
ag2
(g6
S'\x03\x06'
p12223
tp12224
Rp12225
ag2
(g6
S'\x04\x06'
p12226
tp12227
Rp12228
ag2
(g6
S'\x11\x06'
p12229
tp12230
Rp12231
ag2
(g6
S'\x12\x06'
p12232
tp12233
Rp12234
ag2
(g6
S'\x13\x06'
p12235
tp12236
Rp12237
ag2
(g6
S'\x14\x06'
p12238
tp12239
Rp12240
ag2
(g6
S'\x15\x06'
p12241
tp12242
Rp12243
ag2
(g6
S' \x06'
p12244
tp12245
Rp12246
ag2
(g6
S'!\x06'
p12247
tp12248
Rp12249
ag2
(g6
S'\x89\x08'
p12250
tp12251
Rp12252
ag2
(g6
S'\x98\x08'
p12253
tp12254
Rp12255
ag2
(g6
S'\x99\x08'
p12256
tp12257
Rp12258
ag2
(g6
S'\xa7\x08'
p12259
tp12260
Rp12261
ag2
(g6
S'\xa8\x08'
p12262
tp12263
Rp12264
aa(lp12265
g2
(g6
S'>\x01'
p12266
tp12267
Rp12268
ag2
(g6
S'I\x01'
p12269
tp12270
Rp12271
ag2
(g6
S'S\x01'
p12272
tp12273
Rp12274
ag2
(g6
S'T\x01'
p12275
tp12276
Rp12277
ag2
(g6
S'U\x01'
p12278
tp12279
Rp12280
ag2
(g6
S'V\x01'
p12281
tp12282
Rp12283
ag2
(g6
S'W\x01'
p12284
tp12285
Rp12286
ag2
(g6
S'[\x01'
p12287
tp12288
Rp12289
ag2
(g6
S'\\\x01'
p12290
tp12291
Rp12292
ag2
(g6
S']\x01'
p12293
tp12294
Rp12295
ag2
(g6
S'^\x01'
p12296
tp12297
Rp12298
ag2
(g6
S'_\x01'
p12299
tp12300
Rp12301
ag2
(g6
S'`\x01'
p12302
tp12303
Rp12304
ag2
(g6
S'f\x01'
p12305
tp12306
Rp12307
ag2
(g6
S'g\x01'
p12308
tp12309
Rp12310
ag2
(g6
S'h\x01'
p12311
tp12312
Rp12313
ag2
(g6
S'i\x01'
p12314
tp12315
Rp12316
ag2
(g6
S'j\x01'
p12317
tp12318
Rp12319
ag2
(g6
S'k\x01'
p12320
tp12321
Rp12322
ag2
(g6
S'\xd6\x03'
p12323
tp12324
Rp12325
ag2
(g6
S'\xd7\x03'
p12326
tp12327
Rp12328
ag2
(g6
S'\xd8\x03'
p12329
tp12330
Rp12331
ag2
(g6
S'\xe1\x03'
p12332
tp12333
Rp12334
ag2
(g6
S'\xe2\x03'
p12335
tp12336
Rp12337
ag2
(g6
S'\xe3\x03'
p12338
tp12339
Rp12340
ag2
(g6
S'\xe4\x03'
p12341
tp12342
Rp12343
ag2
(g6
S'\xe5\x03'
p12344
tp12345
Rp12346
ag2
(g6
S'\xe6\x03'
p12347
tp12348
Rp12349
ag2
(g6
S'\xe7\x03'
p12350
tp12351
Rp12352
ag2
(g6
S'\xe8\x03'
p12353
tp12354
Rp12355
ag2
(g6
S'\xe9\x03'
p12356
tp12357
Rp12358
ag2
(g6
S'\xea\x03'
p12359
tp12360
Rp12361
ag2
(g6
S'\xeb\x03'
p12362
tp12363
Rp12364
ag2
(g6
S'\xec\x03'
p12365
tp12366
Rp12367
ag2
(g6
S'\xed\x03'
p12368
tp12369
Rp12370
ag2
(g6
S'\xee\x03'
p12371
tp12372
Rp12373
ag2
(g6
S'\xf5\x03'
p12374
tp12375
Rp12376
ag2
(g6
S'\xf6\x03'
p12377
tp12378
Rp12379
ag2
(g6
S'1\x06'
p12380
tp12381
Rp12382
ag2
(g6
S'2\x06'
p12383
tp12384
Rp12385
ag2
(g6
S'3\x06'
p12386
tp12387
Rp12388
ag2
(g6
S'4\x06'
p12389
tp12390
Rp12391
ag2
(g6
S'5\x06'
p12392
tp12393
Rp12394
ag2
(g6
S'6\x06'
p12395
tp12396
Rp12397
ag2
(g6
S'7\x06'
p12398
tp12399
Rp12400
ag2
(g6
S'=\x06'
p12401
tp12402
Rp12403
ag2
(g6
S'>\x06'
p12404
tp12405
Rp12406
ag2
(g6
S'?\x06'
p12407
tp12408
Rp12409
ag2
(g6
S'@\x06'
p12410
tp12411
Rp12412
ag2
(g6
S'A\x06'
p12413
tp12414
Rp12415
ag2
(g6
S'B\x06'
p12416
tp12417
Rp12418
ag2
(g6
S'C\x06'
p12419
tp12420
Rp12421
ag2
(g6
S'L\x06'
p12422
tp12423
Rp12424
ag2
(g6
S'M\x06'
p12425
tp12426
Rp12427
ag2
(g6
S'N\x06'
p12428
tp12429
Rp12430
ag2
(g6
S'O\x06'
p12431
tp12432
Rp12433
ag2
(g6
S'P\x06'
p12434
tp12435
Rp12436
aa(lp12437
g2
(g6
S'\x92\x01'
p12438
tp12439
Rp12440
ag2
(g6
S'\xa8\x01'
p12441
tp12442
Rp12443
ag2
(g6
S'\xc0\x01'
p12444
tp12445
Rp12446
ag2
(g6
S'\xc1\x01'
p12447
tp12448
Rp12449
ag2
(g6
S'\xd8\x01'
p12450
tp12451
Rp12452
ag2
(g6
S'\xd9\x01'
p12453
tp12454
Rp12455
ag2
(g6
S'\xda\x01'
p12456
tp12457
Rp12458
ag2
(g6
S'\xf1\x01'
p12459
tp12460
Rp12461
ag2
(g6
S'\xf2\x01'
p12462
tp12463
Rp12464
ag2
(g6
S'\xf3\x01'
p12465
tp12466
Rp12467
ag2
(g6
S'\xf4\x01'
p12468
tp12469
Rp12470
ag2
(g6
S'\x0c\x02'
p12471
tp12472
Rp12473
ag2
(g6
S'\r\x02'
p12474
tp12475
Rp12476
ag2
(g6
S'\x0e\x02'
p12477
tp12478
Rp12479
ag2
(g6
S'\x0f\x02'
p12480
tp12481
Rp12482
ag2
(g6
S'\x10\x02'
p12483
tp12484
Rp12485
ag2
(g6
S'(\x02'
p12486
tp12487
Rp12488
ag2
(g6
S')\x02'
p12489
tp12490
Rp12491
ag2
(g6
S'*\x02'
p12492
tp12493
Rp12494
ag2
(g6
S'B\x02'
p12495
tp12496
Rp12497
ag2
(g6
S'C\x02'
p12498
tp12499
Rp12500
ag2
(g6
S'D\x02'
p12501
tp12502
Rp12503
ag2
(g6
S'Z\x02'
p12504
tp12505
Rp12506
ag2
(g6
S'[\x02'
p12507
tp12508
Rp12509
ag2
(g6
S'\\\x02'
p12510
tp12511
Rp12512
ag2
(g6
S'p\x02'
p12513
tp12514
Rp12515
ag2
(g6
S'q\x02'
p12516
tp12517
Rp12518
ag2
(g6
S'r\x02'
p12519
tp12520
Rp12521
ag2
(g6
S'\r\x04'
p12522
tp12523
Rp12524
ag2
(g6
S'#\x04'
p12525
tp12526
Rp12527
ag2
(g6
S'$\x04'
p12528
tp12529
Rp12530
ag2
(g6
S'<\x04'
p12531
tp12532
Rp12533
ag2
(g6
S'=\x04'
p12534
tp12535
Rp12536
ag2
(g6
S'>\x04'
p12537
tp12538
Rp12539
ag2
(g6
S'U\x04'
p12540
tp12541
Rp12542
ag2
(g6
S'V\x04'
p12543
tp12544
Rp12545
ag2
(g6
S'W\x04'
p12546
tp12547
Rp12548
ag2
(g6
S'X\x04'
p12549
tp12550
Rp12551
ag2
(g6
S'q\x04'
p12552
tp12553
Rp12554
ag2
(g6
S'r\x04'
p12555
tp12556
Rp12557
ag2
(g6
S's\x04'
p12558
tp12559
Rp12560
ag2
(g6
S't\x04'
p12561
tp12562
Rp12563
ag2
(g6
S'\x8c\x04'
p12564
tp12565
Rp12566
ag2
(g6
S'\x8d\x04'
p12567
tp12568
Rp12569
ag2
(g6
S'\x8e\x04'
p12570
tp12571
Rp12572
ag2
(g6
S'\x8f\x04'
p12573
tp12574
Rp12575
ag2
(g6
S'\x90\x04'
p12576
tp12577
Rp12578
ag2
(g6
S'\x91\x04'
p12579
tp12580
Rp12581
ag2
(g6
S'\xa9\x04'
p12582
tp12583
Rp12584
ag2
(g6
S'\xaa\x04'
p12585
tp12586
Rp12587
ag2
(g6
S'\xab\x04'
p12588
tp12589
Rp12590
ag2
(g6
S'\xac\x04'
p12591
tp12592
Rp12593
ag2
(g6
S'\xad\x04'
p12594
tp12595
Rp12596
ag2
(g6
S'\xae\x04'
p12597
tp12598
Rp12599
ag2
(g6
S'\xc6\x04'
p12600
tp12601
Rp12602
ag2
(g6
S'\xc7\x04'
p12603
tp12604
Rp12605
ag2
(g6
S'\xc8\x04'
p12606
tp12607
Rp12608
ag2
(g6
S'\xc9\x04'
p12609
tp12610
Rp12611
ag2
(g6
S'\xca\x04'
p12612
tp12613
Rp12614
ag2
(g6
S'\xcb\x04'
p12615
tp12616
Rp12617
ag2
(g6
S'\xe4\x04'
p12618
tp12619
Rp12620
ag2
(g6
S'\xe5\x04'
p12621
tp12622
Rp12623
ag2
(g6
S'\xe6\x04'
p12624
tp12625
Rp12626
ag2
(g6
S'\xe7\x04'
p12627
tp12628
Rp12629
ag2
(g6
S'\xfe\x04'
p12630
tp12631
Rp12632
ag2
(g6
S'\xff\x04'
p12633
tp12634
Rp12635
ag2
(g6
S'\x00\x05'
p12636
tp12637
Rp12638
ag2
(g6
S'\x01\x05'
p12639
tp12640
Rp12641
ag2
(g6
S'\x17\x05'
p12642
tp12643
Rp12644
ag2
(g6
S'\x18\x05'
p12645
tp12646
Rp12647
ag2
(g6
S'\x19\x05'
p12648
tp12649
Rp12650
ag2
(g6
S'b\x06'
p12651
tp12652
Rp12653
ag2
(g6
S'c\x06'
p12654
tp12655
Rp12656
ag2
(g6
S'u\x06'
p12657
tp12658
Rp12659
ag2
(g6
S'v\x06'
p12660
tp12661
Rp12662
ag2
(g6
S'w\x06'
p12663
tp12664
Rp12665
ag2
(g6
S'x\x06'
p12666
tp12667
Rp12668
ag2
(g6
S'\x8a\x06'
p12669
tp12670
Rp12671
ag2
(g6
S'\x8b\x06'
p12672
tp12673
Rp12674
ag2
(g6
S'\x8c\x06'
p12675
tp12676
Rp12677
ag2
(g6
S'\x8d\x06'
p12678
tp12679
Rp12680
ag2
(g6
S'\x8e\x06'
p12681
tp12682
Rp12683
ag2
(g6
S'\x8f\x06'
p12684
tp12685
Rp12686
ag2
(g6
S'\xa2\x06'
p12687
tp12688
Rp12689
ag2
(g6
S'\xa3\x06'
p12690
tp12691
Rp12692
ag2
(g6
S'\xa4\x06'
p12693
tp12694
Rp12695
ag2
(g6
S'\xa5\x06'
p12696
tp12697
Rp12698
ag2
(g6
S'\xa6\x06'
p12699
tp12700
Rp12701
ag2
(g6
S'\xa7\x06'
p12702
tp12703
Rp12704
ag2
(g6
S'\xa8\x06'
p12705
tp12706
Rp12707
ag2
(g6
S'\xbe\x06'
p12708
tp12709
Rp12710
ag2
(g6
S'\xbf\x06'
p12711
tp12712
Rp12713
ag2
(g6
S'\xc0\x06'
p12714
tp12715
Rp12716
ag2
(g6
S'\xc1\x06'
p12717
tp12718
Rp12719
ag2
(g6
S'\xc2\x06'
p12720
tp12721
Rp12722
ag2
(g6
S'\xc3\x06'
p12723
tp12724
Rp12725
ag2
(g6
S'\xc4\x06'
p12726
tp12727
Rp12728
ag2
(g6
S'\xdc\x06'
p12729
tp12730
Rp12731
ag2
(g6
S'\xdd\x06'
p12732
tp12733
Rp12734
ag2
(g6
S'\xde\x06'
p12735
tp12736
Rp12737
ag2
(g6
S'\xdf\x06'
p12738
tp12739
Rp12740
ag2
(g6
S'\xe0\x06'
p12741
tp12742
Rp12743
ag2
(g6
S'\xf8\x06'
p12744
tp12745
Rp12746
ag2
(g6
S'\xf9\x06'
p12747
tp12748
Rp12749
ag2
(g6
S'\xfa\x06'
p12750
tp12751
Rp12752
ag2
(g6
S'\xfb\x06'
p12753
tp12754
Rp12755
ag2
(g6
S'\xfc\x06'
p12756
tp12757
Rp12758
ag2
(g6
S'\x15\x07'
p12759
tp12760
Rp12761
ag2
(g6
S'\x16\x07'
p12762
tp12763
Rp12764
ag2
(g6
S'\x17\x07'
p12765
tp12766
Rp12767
ag2
(g6
S'\x18\x07'
p12768
tp12769
Rp12770
ag2
(g6
S'\x19\x07'
p12771
tp12772
Rp12773
ag2
(g6
S'1\x07'
p12774
tp12775
Rp12776
ag2
(g6
S'2\x07'
p12777
tp12778
Rp12779
ag2
(g6
S'3\x07'
p12780
tp12781
Rp12782
ag2
(g6
S'4\x07'
p12783
tp12784
Rp12785
ag2
(g6
S'M\x07'
p12786
tp12787
Rp12788
ag2
(g6
S'N\x07'
p12789
tp12790
Rp12791
ag2
(g6
S'O\x07'
p12792
tp12793
Rp12794
aa(lp12795
g2
(g6
S'\x9a\n'
p12796
tp12797
Rp12798
ag2
(g6
S'\x9b\n'
p12799
tp12800
Rp12801
ag2
(g6
S'\x9c\n'
p12802
tp12803
Rp12804
ag2
(g6
S'\x9d\n'
p12805
tp12806
Rp12807
ag2
(g6
S'\x9e\n'
p12808
tp12809
Rp12810
ag2
(g6
S'\x9f\n'
p12811
tp12812
Rp12813
ag2
(g6
S'\xa0\n'
p12814
tp12815
Rp12816
ag2
(g6
S'\xa5\n'
p12817
tp12818
Rp12819
ag2
(g6
S'\xa6\n'
p12820
tp12821
Rp12822
ag2
(g6
S'\xa7\n'
p12823
tp12824
Rp12825
ag2
(g6
S'\xa8\n'
p12826
tp12827
Rp12828
ag2
(g6
S'\xa9\n'
p12829
tp12830
Rp12831
ag2
(g6
S'\xaa\n'
p12832
tp12833
Rp12834
ag2
(g6
S'\xb1\n'
p12835
tp12836
Rp12837
ag2
(g6
S'\xb2\n'
p12838
tp12839
Rp12840
ag2
(g6
S'\xb3\n'
p12841
tp12842
Rp12843
ag2
(g6
S'\xb4\n'
p12844
tp12845
Rp12846
ag2
(g6
S'\xb5\n'
p12847
tp12848
Rp12849
ag2
(g6
S'\xb6\n'
p12850
tp12851
Rp12852
ag2
(g6
S'\xbe\n'
p12853
tp12854
Rp12855
ag2
(g6
S'\xbf\n'
p12856
tp12857
Rp12858
ag2
(g6
S'\xc0\n'
p12859
tp12860
Rp12861
ag2
(g6
S'\xc1\n'
p12862
tp12863
Rp12864
ag2
(g6
S'\xc2\n'
p12865
tp12866
Rp12867
ag2
(g6
S'\xc3\n'
p12868
tp12869
Rp12870
ag2
(g6
S'\xc4\n'
p12871
tp12872
Rp12873
ag2
(g6
S'\xcd\n'
p12874
tp12875
Rp12876
ag2
(g6
S'\xce\n'
p12877
tp12878
Rp12879
ag2
(g6
S'\xcf\n'
p12880
tp12881
Rp12882
ag2
(g6
S'\xd0\n'
p12883
tp12884
Rp12885
ag2
(g6
S'\xd1\n'
p12886
tp12887
Rp12888
ag2
(g6
S'\xd2\n'
p12889
tp12890
Rp12891
ag2
(g6
S'\xd3\n'
p12892
tp12893
Rp12894
ag2
(g6
S'\xdc\n'
p12895
tp12896
Rp12897
ag2
(g6
S'\xdd\n'
p12898
tp12899
Rp12900
ag2
(g6
S'\xde\n'
p12901
tp12902
Rp12903
ag2
(g6
S'\xdf\n'
p12904
tp12905
Rp12906
ag2
(g6
S'\xe0\n'
p12907
tp12908
Rp12909
ag2
(g6
S'\xe1\n'
p12910
tp12911
Rp12912
ag2
(g6
S'\xe2\n'
p12913
tp12914
Rp12915
ag2
(g6
S'\xe3\n'
p12916
tp12917
Rp12918
ag2
(g6
S'\xed\n'
p12919
tp12920
Rp12921
ag2
(g6
S'\xee\n'
p12922
tp12923
Rp12924
ag2
(g6
S'\xef\n'
p12925
tp12926
Rp12927
ag2
(g6
S'\xf0\n'
p12928
tp12929
Rp12930
ag2
(g6
S'\xf1\n'
p12931
tp12932
Rp12933
ag2
(g6
S'\xf2\n'
p12934
tp12935
Rp12936
ag2
(g6
S'\xf3\n'
p12937
tp12938
Rp12939
ag2
(g6
S'\xf4\n'
p12940
tp12941
Rp12942
ag2
(g6
S'\xfe\n'
p12943
tp12944
Rp12945
ag2
(g6
S'\xff\n'
p12946
tp12947
Rp12948
ag2
(g6
S'\x00\x0b'
p12949
tp12950
Rp12951
ag2
(g6
S'\x01\x0b'
p12952
tp12953
Rp12954
ag2
(g6
S'\x02\x0b'
p12955
tp12956
Rp12957
ag2
(g6
S'\x03\x0b'
p12958
tp12959
Rp12960
ag2
(g6
S'\x04\x0b'
p12961
tp12962
Rp12963
ag2
(g6
S'\x05\x0b'
p12964
tp12965
Rp12966
ag2
(g6
S'\x0f\x0b'
p12967
tp12968
Rp12969
ag2
(g6
S'\x10\x0b'
p12970
tp12971
Rp12972
ag2
(g6
S'\x11\x0b'
p12973
tp12974
Rp12975
ag2
(g6
S'\x12\x0b'
p12976
tp12977
Rp12978
ag2
(g6
S'\x13\x0b'
p12979
tp12980
Rp12981
ag2
(g6
S'\x14\x0b'
p12982
tp12983
Rp12984
ag2
(g6
S'\x15\x0b'
p12985
tp12986
Rp12987
ag2
(g6
S'\x16\x0b'
p12988
tp12989
Rp12990
ag2
(g6
S' \x0b'
p12991
tp12992
Rp12993
ag2
(g6
S'!\x0b'
p12994
tp12995
Rp12996
ag2
(g6
S'"\x0b'
p12997
tp12998
Rp12999
ag2
(g6
S'#\x0b'
p13000
tp13001
Rp13002
ag2
(g6
S'$\x0b'
p13003
tp13004
Rp13005
ag2
(g6
S'%\x0b'
p13006
tp13007
Rp13008
ag2
(g6
S'&\x0b'
p13009
tp13010
Rp13011
ag2
(g6
S'0\x0b'
p13012
tp13013
Rp13014
ag2
(g6
S'1\x0b'
p13015
tp13016
Rp13017
ag2
(g6
S'2\x0b'
p13018
tp13019
Rp13020
ag2
(g6
S'3\x0b'
p13021
tp13022
Rp13023
ag2
(g6
S'4\x0b'
p13024
tp13025
Rp13026
ag2
(g6
S'5\x0b'
p13027
tp13028
Rp13029
ag2
(g6
S'6\x0b'
p13030
tp13031
Rp13032
ag2
(g6
S'@\x0b'
p13033
tp13034
Rp13035
ag2
(g6
S'A\x0b'
p13036
tp13037
Rp13038
ag2
(g6
S'B\x0b'
p13039
tp13040
Rp13041
ag2
(g6
S'C\x0b'
p13042
tp13043
Rp13044
ag2
(g6
S'D\x0b'
p13045
tp13046
Rp13047
ag2
(g6
S'E\x0b'
p13048
tp13049
Rp13050
ag2
(g6
S'F\x0b'
p13051
tp13052
Rp13053
ag2
(g6
S'P\x0b'
p13054
tp13055
Rp13056
ag2
(g6
S'Q\x0b'
p13057
tp13058
Rp13059
ag2
(g6
S'R\x0b'
p13060
tp13061
Rp13062
ag2
(g6
S'S\x0b'
p13063
tp13064
Rp13065
ag2
(g6
S'e\x0b'
p13066
tp13067
Rp13068
ag2
(g6
S'/\r'
p13069
tp13070
Rp13071
ag2
(g6
S'0\r'
p13072
tp13073
Rp13074
ag2
(g6
S'1\r'
p13075
tp13076
Rp13077
ag2
(g6
S'2\r'
p13078
tp13079
Rp13080
ag2
(g6
S'3\r'
p13081
tp13082
Rp13083
ag2
(g6
S'4\r'
p13084
tp13085
Rp13086
ag2
(g6
S'9\r'
p13087
tp13088
Rp13089
ag2
(g6
S':\r'
p13090
tp13091
Rp13092
ag2
(g6
S';\r'
p13093
tp13094
Rp13095
ag2
(g6
S'<\r'
p13096
tp13097
Rp13098
ag2
(g6
S'=\r'
p13099
tp13100
Rp13101
ag2
(g6
S'>\r'
p13102
tp13103
Rp13104
ag2
(g6
S'?\r'
p13105
tp13106
Rp13107
ag2
(g6
S'D\r'
p13108
tp13109
Rp13110
ag2
(g6
S'E\r'
p13111
tp13112
Rp13113
ag2
(g6
S'F\r'
p13114
tp13115
Rp13116
ag2
(g6
S'G\r'
p13117
tp13118
Rp13119
ag2
(g6
S'H\r'
p13120
tp13121
Rp13122
ag2
(g6
S'I\r'
p13123
tp13124
Rp13125
ag2
(g6
S'J\r'
p13126
tp13127
Rp13128
ag2
(g6
S'K\r'
p13129
tp13130
Rp13131
ag2
(g6
S'L\r'
p13132
tp13133
Rp13134
ag2
(g6
S'Q\r'
p13135
tp13136
Rp13137
ag2
(g6
S'R\r'
p13138
tp13139
Rp13140
ag2
(g6
S'S\r'
p13141
tp13142
Rp13143
ag2
(g6
S'T\r'
p13144
tp13145
Rp13146
ag2
(g6
S'U\r'
p13147
tp13148
Rp13149
ag2
(g6
S'V\r'
p13150
tp13151
Rp13152
ag2
(g6
S'W\r'
p13153
tp13154
Rp13155
ag2
(g6
S'X\r'
p13156
tp13157
Rp13158
ag2
(g6
S'Y\r'
p13159
tp13160
Rp13161
ag2
(g6
S'`\r'
p13162
tp13163
Rp13164
ag2
(g6
S'a\r'
p13165
tp13166
Rp13167
ag2
(g6
S'b\r'
p13168
tp13169
Rp13170
ag2
(g6
S'c\r'
p13171
tp13172
Rp13173
ag2
(g6
S'd\r'
p13174
tp13175
Rp13176
ag2
(g6
S'e\r'
p13177
tp13178
Rp13179
ag2
(g6
S'f\r'
p13180
tp13181
Rp13182
ag2
(g6
S'g\r'
p13183
tp13184
Rp13185
ag2
(g6
S'h\r'
p13186
tp13187
Rp13188
ag2
(g6
S'p\r'
p13189
tp13190
Rp13191
ag2
(g6
S'q\r'
p13192
tp13193
Rp13194
ag2
(g6
S'r\r'
p13195
tp13196
Rp13197
ag2
(g6
S's\r'
p13198
tp13199
Rp13200
ag2
(g6
S't\r'
p13201
tp13202
Rp13203
ag2
(g6
S'u\r'
p13204
tp13205
Rp13206
ag2
(g6
S'v\r'
p13207
tp13208
Rp13209
ag2
(g6
S'w\r'
p13210
tp13211
Rp13212
ag2
(g6
S'x\r'
p13213
tp13214
Rp13215
ag2
(g6
S'\x80\r'
p13216
tp13217
Rp13218
ag2
(g6
S'\x81\r'
p13219
tp13220
Rp13221
ag2
(g6
S'\x82\r'
p13222
tp13223
Rp13224
ag2
(g6
S'\x83\r'
p13225
tp13226
Rp13227
ag2
(g6
S'\x84\r'
p13228
tp13229
Rp13230
ag2
(g6
S'\x85\r'
p13231
tp13232
Rp13233
ag2
(g6
S'\x86\r'
p13234
tp13235
Rp13236
ag2
(g6
S'\x87\r'
p13237
tp13238
Rp13239
ag2
(g6
S'\x88\r'
p13240
tp13241
Rp13242
ag2
(g6
S'\x91\r'
p13243
tp13244
Rp13245
ag2
(g6
S'\x92\r'
p13246
tp13247
Rp13248
ag2
(g6
S'\x93\r'
p13249
tp13250
Rp13251
ag2
(g6
S'\x94\r'
p13252
tp13253
Rp13254
ag2
(g6
S'\x95\r'
p13255
tp13256
Rp13257
ag2
(g6
S'\x96\r'
p13258
tp13259
Rp13260
ag2
(g6
S'\x97\r'
p13261
tp13262
Rp13263
ag2
(g6
S'\x98\r'
p13264
tp13265
Rp13266
ag2
(g6
S'\x99\r'
p13267
tp13268
Rp13269
ag2
(g6
S'\xa1\r'
p13270
tp13271
Rp13272
ag2
(g6
S'\xa2\r'
p13273
tp13274
Rp13275
ag2
(g6
S'\xa3\r'
p13276
tp13277
Rp13278
ag2
(g6
S'\xa4\r'
p13279
tp13280
Rp13281
ag2
(g6
S'\xa5\r'
p13282
tp13283
Rp13284
ag2
(g6
S'\xa6\r'
p13285
tp13286
Rp13287
ag2
(g6
S'\xa7\r'
p13288
tp13289
Rp13290
ag2
(g6
S'\xa8\r'
p13291
tp13292
Rp13293
ag2
(g6
S'\xa9\r'
p13294
tp13295
Rp13296
ag2
(g6
S'\xaa\r'
p13297
tp13298
Rp13299
ag2
(g6
S'\xb2\r'
p13300
tp13301
Rp13302
ag2
(g6
S'\xb3\r'
p13303
tp13304
Rp13305
ag2
(g6
S'\xb4\r'
p13306
tp13307
Rp13308
ag2
(g6
S'\xb5\r'
p13309
tp13310
Rp13311
ag2
(g6
S'\xb6\r'
p13312
tp13313
Rp13314
ag2
(g6
S'\xb7\r'
p13315
tp13316
Rp13317
ag2
(g6
S'\xb8\r'
p13318
tp13319
Rp13320
ag2
(g6
S'\xb9\r'
p13321
tp13322
Rp13323
ag2
(g6
S'\xba\r'
p13324
tp13325
Rp13326
ag2
(g6
S'\xbb\r'
p13327
tp13328
Rp13329
ag2
(g6
S'\xc3\r'
p13330
tp13331
Rp13332
ag2
(g6
S'\xc4\r'
p13333
tp13334
Rp13335
ag2
(g6
S'\xc5\r'
p13336
tp13337
Rp13338
ag2
(g6
S'\xc6\r'
p13339
tp13340
Rp13341
ag2
(g6
S'\xc7\r'
p13342
tp13343
Rp13344
ag2
(g6
S'\xc8\r'
p13345
tp13346
Rp13347
ag2
(g6
S'\xc9\r'
p13348
tp13349
Rp13350
ag2
(g6
S'\xca\r'
p13351
tp13352
Rp13353
ag2
(g6
S'\xcb\r'
p13354
tp13355
Rp13356
ag2
(g6
S'\xd3\r'
p13357
tp13358
Rp13359
ag2
(g6
S'\xd4\r'
p13360
tp13361
Rp13362
ag2
(g6
S'\xd5\r'
p13363
tp13364
Rp13365
ag2
(g6
S'\xd6\r'
p13366
tp13367
Rp13368
ag2
(g6
S'\xe2\r'
p13369
tp13370
Rp13371
ag2
(g6
S'\xe3\r'
p13372
tp13373
Rp13374
ag2
(g6
S'\xe4\r'
p13375
tp13376
Rp13377
ag2
(g6
S'\xf3\r'
p13378
tp13379
Rp13380
ag2
(g6
S'\xf4\r'
p13381
tp13382
Rp13383
ag2
(g6
S'N\x0f'
p13384
tp13385
Rp13386
ag2
(g6
S'Y\x0f'
p13387
tp13388
Rp13389
ag2
(g6
S'Z\x0f'
p13390
tp13391
Rp13392
ag2
(g6
S'd\x0f'
p13393
tp13394
Rp13395
ag2
(g6
S'e\x0f'
p13396
tp13397
Rp13398
ag2
(g6
S'f\x0f'
p13399
tp13400
Rp13401
ag2
(g6
S'p\x0f'
p13402
tp13403
Rp13404
ag2
(g6
S'q\x0f'
p13405
tp13406
Rp13407
ag2
(g6
S'r\x0f'
p13408
tp13409
Rp13410
ag2
(g6
S'}\x0f'
p13411
tp13412
Rp13413
ag2
(g6
S'~\x0f'
p13414
tp13415
Rp13416
ag2
(g6
S'\x7f\x0f'
p13417
tp13418
Rp13419
ag2
(g6
S'\x87\x0f'
p13420
tp13421
Rp13422
ag2
(g6
S'\x88\x0f'
p13423
tp13424
Rp13425
ag2
(g6
S'\x89\x0f'
p13426
tp13427
Rp13428
ag2
(g6
S'\x8a\x0f'
p13429
tp13430
Rp13431
ag2
(g6
S'\x92\x0f'
p13432
tp13433
Rp13434
ag2
(g6
S'\x93\x0f'
p13435
tp13436
Rp13437
ag2
(g6
S'\x94\x0f'
p13438
tp13439
Rp13440
ag2
(g6
S'\x95\x0f'
p13441
tp13442
Rp13443
ag2
(g6
S'\x9a\x0f'
p13444
tp13445
Rp13446
ag2
(g6
S'\x9b\x0f'
p13447
tp13448
Rp13449
ag2
(g6
S'\x9c\x0f'
p13450
tp13451
Rp13452
ag2
(g6
S'\x9d\x0f'
p13453
tp13454
Rp13455
ag2
(g6
S'\x9e\x0f'
p13456
tp13457
Rp13458
ag2
(g6
S'\xa1\x0f'
p13459
tp13460
Rp13461
ag2
(g6
S'\xa2\x0f'
p13462
tp13463
Rp13464
ag2
(g6
S'\xa3\x0f'
p13465
tp13466
Rp13467
ag2
(g6
S'\xa4\x0f'
p13468
tp13469
Rp13470
ag2
(g6
S'\xa5\x0f'
p13471
tp13472
Rp13473
ag2
(g6
S'\xaa\x0f'
p13474
tp13475
Rp13476
ag2
(g6
S'\xab\x0f'
p13477
tp13478
Rp13479
ag2
(g6
S'\xac\x0f'
p13480
tp13481
Rp13482
ag2
(g6
S'\xad\x0f'
p13483
tp13484
Rp13485
ag2
(g6
S'\xae\x0f'
p13486
tp13487
Rp13488
ag2
(g6
S'\xb5\x0f'
p13489
tp13490
Rp13491
ag2
(g6
S'\xb6\x0f'
p13492
tp13493
Rp13494
ag2
(g6
S'\xb7\x0f'
p13495
tp13496
Rp13497
ag2
(g6
S'\xb8\x0f'
p13498
tp13499
Rp13500
ag2
(g6
S'\xb9\x0f'
p13501
tp13502
Rp13503
ag2
(g6
S'\xba\x0f'
p13504
tp13505
Rp13506
ag2
(g6
S'\xc2\x0f'
p13507
tp13508
Rp13509
ag2
(g6
S'\xc3\x0f'
p13510
tp13511
Rp13512
ag2
(g6
S'\xc4\x0f'
p13513
tp13514
Rp13515
ag2
(g6
S'\xc5\x0f'
p13516
tp13517
Rp13518
ag2
(g6
S'\xc6\x0f'
p13519
tp13520
Rp13521
ag2
(g6
S'\xc7\x0f'
p13522
tp13523
Rp13524
ag2
(g6
S'\xcf\x0f'
p13525
tp13526
Rp13527
ag2
(g6
S'\xd0\x0f'
p13528
tp13529
Rp13530
ag2
(g6
S'\xd1\x0f'
p13531
tp13532
Rp13533
ag2
(g6
S'\xd2\x0f'
p13534
tp13535
Rp13536
ag2
(g6
S'\xd3\x0f'
p13537
tp13538
Rp13539
ag2
(g6
S'\xd4\x0f'
p13540
tp13541
Rp13542
ag2
(g6
S'\xdd\x0f'
p13543
tp13544
Rp13545
ag2
(g6
S'\xde\x0f'
p13546
tp13547
Rp13548
ag2
(g6
S'\xdf\x0f'
p13549
tp13550
Rp13551
ag2
(g6
S'\xe0\x0f'
p13552
tp13553
Rp13554
ag2
(g6
S'\xe1\x0f'
p13555
tp13556
Rp13557
ag2
(g6
S'\xe2\x0f'
p13558
tp13559
Rp13560
ag2
(g6
S'\xe3\x0f'
p13561
tp13562
Rp13563
ag2
(g6
S'\xec\x0f'
p13564
tp13565
Rp13566
ag2
(g6
S'\xed\x0f'
p13567
tp13568
Rp13569
ag2
(g6
S'\xee\x0f'
p13570
tp13571
Rp13572
ag2
(g6
S'\xef\x0f'
p13573
tp13574
Rp13575
ag2
(g6
S'\xf0\x0f'
p13576
tp13577
Rp13578
ag2
(g6
S'\xf1\x0f'
p13579
tp13580
Rp13581
ag2
(g6
S'\xf2\x0f'
p13582
tp13583
Rp13584
ag2
(g6
S'\xfb\x0f'
p13585
tp13586
Rp13587
ag2
(g6
S'\xfc\x0f'
p13588
tp13589
Rp13590
ag2
(g6
S'\xfd\x0f'
p13591
tp13592
Rp13593
ag2
(g6
S'\xfe\x0f'
p13594
tp13595
Rp13596
ag2
(g6
S'\xff\x0f'
p13597
tp13598
Rp13599
ag2
(g6
S'\x00\x10'
p13600
tp13601
Rp13602
ag2
(g6
S'\x01\x10'
p13603
tp13604
Rp13605
ag2
(g6
S'\t\x10'
p13606
tp13607
Rp13608
ag2
(g6
S'\n\x10'
p13609
tp13610
Rp13611
ag2
(g6
S'\x0b\x10'
p13612
tp13613
Rp13614
ag2
(g6
S'\x0c\x10'
p13615
tp13616
Rp13617
ag2
(g6
S'\r\x10'
p13618
tp13619
Rp13620
ag2
(g6
S'\x0e\x10'
p13621
tp13622
Rp13623
ag2
(g6
S'\x16\x10'
p13624
tp13625
Rp13626
ag2
(g6
S'\x17\x10'
p13627
tp13628
Rp13629
ag2
(g6
S'\x18\x10'
p13630
tp13631
Rp13632
ag2
(g6
S'\x19\x10'
p13633
tp13634
Rp13635
ag2
(g6
S'\x1a\x10'
p13636
tp13637
Rp13638
ag2
(g6
S'\x1b\x10'
p13639
tp13640
Rp13641
ag2
(g6
S'"\x10'
p13642
tp13643
Rp13644
ag2
(g6
S'#\x10'
p13645
tp13646
Rp13647
ag2
(g6
S'$\x10'
p13648
tp13649
Rp13650
ag2
(g6
S'0\x10'
p13651
tp13652
Rp13653
ag2
(g6
S'1\x10'
p13654
tp13655
Rp13656
ag2
(g6
S'2\x10'
p13657
tp13658
Rp13659
ag2
(g6
S'?\x10'
p13660
tp13661
Rp13662
ag2
(g6
S'@\x10'
p13663
tp13664
Rp13665
ag2
(g6
S'A\x10'
p13666
tp13667
Rp13668
ag2
(g6
S'N\x10'
p13669
tp13670
Rp13671
ag2
(g6
S'\xe6\x10'
p13672
tp13673
Rp13674
ag2
(g6
S'\xeb\x10'
p13675
tp13676
Rp13677
ag2
(g6
S'\xec\x10'
p13678
tp13679
Rp13680
ag2
(g6
S'\xed\x10'
p13681
tp13682
Rp13683
ag2
(g6
S'\xf5\x10'
p13684
tp13685
Rp13686
ag2
(g6
S'\xf6\x10'
p13687
tp13688
Rp13689
ag2
(g6
S'\xf7\x10'
p13690
tp13691
Rp13692
ag2
(g6
S'\xff\x10'
p13693
tp13694
Rp13695
ag2
(g6
S'\x00\x11'
p13696
tp13697
Rp13698
ag2
(g6
S'\x01\x11'
p13699
tp13700
Rp13701
ag2
(g6
S'\x02\x11'
p13702
tp13703
Rp13704
ag2
(g6
S'\x0b\x11'
p13705
tp13706
Rp13707
ag2
(g6
S'\x0c\x11'
p13708
tp13709
Rp13710
ag2
(g6
S'\r\x11'
p13711
tp13712
Rp13713
ag2
(g6
S'\x0e\x11'
p13714
tp13715
Rp13716
ag2
(g6
S'\x16\x11'
p13717
tp13718
Rp13719
ag2
(g6
S'\x17\x11'
p13720
tp13721
Rp13722
ag2
(g6
S'\x18\x11'
p13723
tp13724
Rp13725
ag2
(g6
S'\x19\x11'
p13726
tp13727
Rp13728
ag2
(g6
S'\x1a\x11'
p13729
tp13730
Rp13731
ag2
(g6
S' \x11'
p13732
tp13733
Rp13734
ag2
(g6
S'!\x11'
p13735
tp13736
Rp13737
ag2
(g6
S'"\x11'
p13738
tp13739
Rp13740
ag2
(g6
S'#\x11'
p13741
tp13742
Rp13743
ag2
(g6
S'$\x11'
p13744
tp13745
Rp13746
ag2
(g6
S',\x11'
p13747
tp13748
Rp13749
ag2
(g6
S'-\x11'
p13750
tp13751
Rp13752
ag2
(g6
S'.\x11'
p13753
tp13754
Rp13755
ag2
(g6
S'/\x11'
p13756
tp13757
Rp13758
ag2
(g6
S'0\x11'
p13759
tp13760
Rp13761
ag2
(g6
S'1\x11'
p13762
tp13763
Rp13764
ag2
(g6
S'9\x11'
p13765
tp13766
Rp13767
ag2
(g6
S':\x11'
p13768
tp13769
Rp13770
ag2
(g6
S';\x11'
p13771
tp13772
Rp13773
ag2
(g6
S'<\x11'
p13774
tp13775
Rp13776
ag2
(g6
S'=\x11'
p13777
tp13778
Rp13779
ag2
(g6
S'>\x11'
p13780
tp13781
Rp13782
ag2
(g6
S'?\x11'
p13783
tp13784
Rp13785
ag2
(g6
S'H\x11'
p13786
tp13787
Rp13788
ag2
(g6
S'I\x11'
p13789
tp13790
Rp13791
ag2
(g6
S'J\x11'
p13792
tp13793
Rp13794
ag2
(g6
S'K\x11'
p13795
tp13796
Rp13797
ag2
(g6
S'L\x11'
p13798
tp13799
Rp13800
ag2
(g6
S'M\x11'
p13801
tp13802
Rp13803
ag2
(g6
S'N\x11'
p13804
tp13805
Rp13806
ag2
(g6
S'W\x11'
p13807
tp13808
Rp13809
ag2
(g6
S'X\x11'
p13810
tp13811
Rp13812
ag2
(g6
S'Y\x11'
p13813
tp13814
Rp13815
ag2
(g6
S'Z\x11'
p13816
tp13817
Rp13818
ag2
(g6
S'[\x11'
p13819
tp13820
Rp13821
ag2
(g6
S'\\\x11'
p13822
tp13823
Rp13824
ag2
(g6
S']\x11'
p13825
tp13826
Rp13827
ag2
(g6
S'f\x11'
p13828
tp13829
Rp13830
ag2
(g6
S'g\x11'
p13831
tp13832
Rp13833
ag2
(g6
S'h\x11'
p13834
tp13835
Rp13836
ag2
(g6
S'i\x11'
p13837
tp13838
Rp13839
ag2
(g6
S'j\x11'
p13840
tp13841
Rp13842
ag2
(g6
S'k\x11'
p13843
tp13844
Rp13845
ag2
(g6
S't\x11'
p13846
tp13847
Rp13848
ag2
(g6
S'u\x11'
p13849
tp13850
Rp13851
ag2
(g6
S'v\x11'
p13852
tp13853
Rp13854
ag2
(g6
S'w\x11'
p13855
tp13856
Rp13857
ag2
(g6
S'x\x11'
p13858
tp13859
Rp13860
ag2
(g6
S'y\x11'
p13861
tp13862
Rp13863
ag2
(g6
S'z\x11'
p13864
tp13865
Rp13866
aa(lp13867
g2
(g6
S'\x0c\n'
p13868
tp13869
Rp13870
ag2
(g6
S'\r\n'
p13871
tp13872
Rp13873
ag2
(g6
S'\x0e\n'
p13874
tp13875
Rp13876
ag2
(g6
S'\x0f\n'
p13877
tp13878
Rp13879
ag2
(g6
S'\x10\n'
p13880
tp13881
Rp13882
ag2
(g6
S'\x19\n'
p13883
tp13884
Rp13885
ag2
(g6
S'\x1a\n'
p13886
tp13887
Rp13888
ag2
(g6
S'\x1b\n'
p13889
tp13890
Rp13891
ag2
(g6
S'\x1c\n'
p13892
tp13893
Rp13894
ag2
(g6
S'&\n'
p13895
tp13896
Rp13897
ag2
(g6
S"'\n"
p13898
tp13899
Rp13900
ag2
(g6
S'(\n'
p13901
tp13902
Rp13903
ag2
(g6
S'2\n'
p13904
tp13905
Rp13906
ag2
(g6
S'3\n'
p13907
tp13908
Rp13909
ag2
(g6
S'4\n'
p13910
tp13911
Rp13912
ag2
(g6
S'5\n'
p13913
tp13914
Rp13915
ag2
(g6
S'B\n'
p13916
tp13917
Rp13918
ag2
(g6
S'C\n'
p13919
tp13920
Rp13921
ag2
(g6
S'D\n'
p13922
tp13923
Rp13924
ag2
(g6
S'R\n'
p13925
tp13926
Rp13927
ag2
(g6
S'\x91\x0c'
p13928
tp13929
Rp13930
ag2
(g6
S'\x92\x0c'
p13931
tp13932
Rp13933
ag2
(g6
S'\x93\x0c'
p13934
tp13935
Rp13936
ag2
(g6
S'\x94\x0c'
p13937
tp13938
Rp13939
ag2
(g6
S'\x95\x0c'
p13940
tp13941
Rp13942
ag2
(g6
S'\x96\x0c'
p13943
tp13944
Rp13945
ag2
(g6
S'\x97\x0c'
p13946
tp13947
Rp13948
ag2
(g6
S'\xa2\x0c'
p13949
tp13950
Rp13951
ag2
(g6
S'\xa3\x0c'
p13952
tp13953
Rp13954
ag2
(g6
S'\xa4\x0c'
p13955
tp13956
Rp13957
ag2
(g6
S'\xa5\x0c'
p13958
tp13959
Rp13960
ag2
(g6
S'\xa6\x0c'
p13961
tp13962
Rp13963
ag2
(g6
S'\xa7\x0c'
p13964
tp13965
Rp13966
ag2
(g6
S'\xa8\x0c'
p13967
tp13968
Rp13969
ag2
(g6
S'\xa9\x0c'
p13970
tp13971
Rp13972
ag2
(g6
S'\xb2\x0c'
p13973
tp13974
Rp13975
ag2
(g6
S'\xb3\x0c'
p13976
tp13977
Rp13978
ag2
(g6
S'\xb4\x0c'
p13979
tp13980
Rp13981
ag2
(g6
S'\xb5\x0c'
p13982
tp13983
Rp13984
ag2
(g6
S'\xb6\x0c'
p13985
tp13986
Rp13987
ag2
(g6
S'\xb7\x0c'
p13988
tp13989
Rp13990
ag2
(g6
S'\xb8\x0c'
p13991
tp13992
Rp13993
ag2
(g6
S'\xc3\x0c'
p13994
tp13995
Rp13996
ag2
(g6
S'\xc4\x0c'
p13997
tp13998
Rp13999
ag2
(g6
S'\xc5\x0c'
p14000
tp14001
Rp14002
ag2
(g6
S'\xc6\x0c'
p14003
tp14004
Rp14005
ag2
(g6
S'\xc7\x0c'
p14006
tp14007
Rp14008
ag2
(g6
S'\xd2\x0c'
p14009
tp14010
Rp14011
ag2
(g6
S'\xd3\x0c'
p14012
tp14013
Rp14014
ag2
(g6
S'\xd4\x0c'
p14015
tp14016
Rp14017
ag2
(g6
S'\xd5\x0c'
p14018
tp14019
Rp14020
ag2
(g6
S'\xe0\x0e'
p14021
tp14022
Rp14023
ag2
(g6
S'\xe1\x0e'
p14024
tp14025
Rp14026
ag2
(g6
S'\xe2\x0e'
p14027
tp14028
Rp14029
ag2
(g6
S'\xe3\x0e'
p14030
tp14031
Rp14032
ag2
(g6
S'\xf3\x0e'
p14033
tp14034
Rp14035
ag2
(g6
S'\xf4\x0e'
p14036
tp14037
Rp14038
ag2
(g6
S'\xf5\x0e'
p14039
tp14040
Rp14041
ag2
(g6
S'\xf6\x0e'
p14042
tp14043
Rp14044
ag2
(g6
S'\xf7\x0e'
p14045
tp14046
Rp14047
ag2
(g6
S'\xf8\x0e'
p14048
tp14049
Rp14050
ag2
(g6
S'\xf9\x0e'
p14051
tp14052
Rp14053
ag2
(g6
S'\xfa\x0e'
p14054
tp14055
Rp14056
ag2
(g6
S'\x02\x0f'
p14057
tp14058
Rp14059
ag2
(g6
S'\x03\x0f'
p14060
tp14061
Rp14062
ag2
(g6
S'\x04\x0f'
p14063
tp14064
Rp14065
ag2
(g6
S'\x05\x0f'
p14066
tp14067
Rp14068
ag2
(g6
S'\x06\x0f'
p14069
tp14070
Rp14071
ag2
(g6
S'\x07\x0f'
p14072
tp14073
Rp14074
ag2
(g6
S'\x08\x0f'
p14075
tp14076
Rp14077
ag2
(g6
S'\t\x0f'
p14078
tp14079
Rp14080
ag2
(g6
S'\x13\x0f'
p14081
tp14082
Rp14083
ag2
(g6
S'\x14\x0f'
p14084
tp14085
Rp14086
ag2
(g6
S'\x15\x0f'
p14087
tp14088
Rp14089
ag2
(g6
S'\x16\x0f'
p14090
tp14091
Rp14092
ag2
(g6
S'\x17\x0f'
p14093
tp14094
Rp14095
ag2
(g6
S'\x18\x0f'
p14096
tp14097
Rp14098
ag2
(g6
S'\x19\x0f'
p14099
tp14100
Rp14101
ag2
(g6
S'\x1a\x0f'
p14102
tp14103
Rp14104
ag2
(g6
S'$\x0f'
p14105
tp14106
Rp14107
ag2
(g6
S'%\x0f'
p14108
tp14109
Rp14110
ag2
(g6
S'&\x0f'
p14111
tp14112
Rp14113
ag2
(g6
S"'\x0f"
p14114
tp14115
Rp14116
ag2
(g6
S'(\x0f'
p14117
tp14118
Rp14119
ag2
(g6
S')\x0f'
p14120
tp14121
Rp14122
ag2
(g6
S'*\x0f'
p14123
tp14124
Rp14125
ag2
(g6
S'+\x0f'
p14126
tp14127
Rp14128
ag2
(g6
S'5\x0f'
p14129
tp14130
Rp14131
ag2
(g6
S'6\x0f'
p14132
tp14133
Rp14134
ag2
(g6
S'7\x0f'
p14135
tp14136
Rp14137
ag2
(g6
S'8\x0f'
p14138
tp14139
Rp14140
ag2
(g6
S'\xb3\x10'
p14141
tp14142
Rp14143
ag2
(g6
S'\xb4\x10'
p14144
tp14145
Rp14146
ag2
(g6
S'\xb5\x10'
p14147
tp14148
Rp14149
ag2
(g6
S'\xb6\x10'
p14150
tp14151
Rp14152
ag2
(g6
S'\xb7\x10'
p14153
tp14154
Rp14155
ag2
(g6
S'\xb8\x10'
p14156
tp14157
Rp14158
ag2
(g6
S'\xb9\x10'
p14159
tp14160
Rp14161
ag2
(g6
S'\xba\x10'
p14162
tp14163
Rp14164
ag2
(g6
S'\xbb\x10'
p14165
tp14166
Rp14167
ag2
(g6
S'\xbc\x10'
p14168
tp14169
Rp14170
ag2
(g6
S'\xbd\x10'
p14171
tp14172
Rp14173
ag2
(g6
S'\xbe\x10'
p14174
tp14175
Rp14176
ag2
(g6
S'\xbf\x10'
p14177
tp14178
Rp14179
ag2
(g6
S'\xc0\x10'
p14180
tp14181
Rp14182
ag2
(g6
S'\xc1\x10'
p14183
tp14184
Rp14185
ag2
(g6
S'\xc2\x10'
p14186
tp14187
Rp14188
ag2
(g6
S'\xc3\x10'
p14189
tp14190
Rp14191
ag2
(g6
S'\xc4\x10'
p14192
tp14193
Rp14194
ag2
(g6
S'\xc5\x10'
p14195
tp14196
Rp14197
ag2
(g6
S'\xc6\x10'
p14198
tp14199
Rp14200
ag2
(g6
S'\xc7\x10'
p14201
tp14202
Rp14203
ag2
(g6
S'\xc8\x10'
p14204
tp14205
Rp14206
ag2
(g6
S'\xc9\x10'
p14207
tp14208
Rp14209
ag2
(g6
S'\xca\x10'
p14210
tp14211
Rp14212
ag2
(g6
S'\xcb\x10'
p14213
tp14214
Rp14215
ag2
(g6
S'\xcc\x10'
p14216
tp14217
Rp14218
ag2
(g6
S'\xd2\x10'
p14219
tp14220
Rp14221
aa(lp14222
g2
(g6
S'\xc1\x00'
p14223
tp14224
Rp14225
ag2
(g6
S'\xc2\x00'
p14226
tp14227
Rp14228
ag2
(g6
S'\xc3\x00'
p14229
tp14230
Rp14231
ag2
(g6
S'\xc4\x00'
p14232
tp14233
Rp14234
ag2
(g6
S'\xc5\x00'
p14235
tp14236
Rp14237
ag2
(g6
S'\xc6\x00'
p14238
tp14239
Rp14240
ag2
(g6
S'\xc7\x00'
p14241
tp14242
Rp14243
ag2
(g6
S'\xd9\x00'
p14244
tp14245
Rp14246
ag2
(g6
S'\xda\x00'
p14247
tp14248
Rp14249
ag2
(g6
S'\xdb\x00'
p14250
tp14251
Rp14252
ag2
(g6
S'\xdc\x00'
p14253
tp14254
Rp14255
ag2
(g6
S'\xdd\x00'
p14256
tp14257
Rp14258
ag2
(g6
S'\xde\x00'
p14259
tp14260
Rp14261
ag2
(g6
S'\xdf\x00'
p14262
tp14263
Rp14264
ag2
(g6
S'\xe0\x00'
p14265
tp14266
Rp14267
ag2
(g6
S'\xe1\x00'
p14268
tp14269
Rp14270
ag2
(g6
S'\xf0\x00'
p14271
tp14272
Rp14273
ag2
(g6
S'\xf1\x00'
p14274
tp14275
Rp14276
ag2
(g6
S'\xf2\x00'
p14277
tp14278
Rp14279
ag2
(g6
S'\xf3\x00'
p14280
tp14281
Rp14282
ag2
(g6
S'\xf4\x00'
p14283
tp14284
Rp14285
ag2
(g6
S'\xf5\x00'
p14286
tp14287
Rp14288
ag2
(g6
S'\xf6\x00'
p14289
tp14290
Rp14291
ag2
(g6
S'\xf7\x00'
p14292
tp14293
Rp14294
ag2
(g6
S'\xf8\x00'
p14295
tp14296
Rp14297
ag2
(g6
S'\x04\x01'
p14298
tp14299
Rp14300
ag2
(g6
S'\x05\x01'
p14301
tp14302
Rp14303
ag2
(g6
S'\x06\x01'
p14304
tp14305
Rp14306
ag2
(g6
S'\x07\x01'
p14307
tp14308
Rp14309
ag2
(g6
S'\x08\x01'
p14310
tp14311
Rp14312
ag2
(g6
S'\t\x01'
p14313
tp14314
Rp14315
ag2
(g6
S'\n\x01'
p14316
tp14317
Rp14318
ag2
(g6
S'\x0b\x01'
p14319
tp14320
Rp14321
ag2
(g6
S'\x0c\x01'
p14322
tp14323
Rp14324
ag2
(g6
S'\x18\x01'
p14325
tp14326
Rp14327
ag2
(g6
S'\x19\x01'
p14328
tp14329
Rp14330
ag2
(g6
S'\x1a\x01'
p14331
tp14332
Rp14333
ag2
(g6
S'\x1b\x01'
p14334
tp14335
Rp14336
ag2
(g6
S'\x1c\x01'
p14337
tp14338
Rp14339
ag2
(g6
S'\x1d\x01'
p14340
tp14341
Rp14342
ag2
(g6
S'\x1e\x01'
p14343
tp14344
Rp14345
ag2
(g6
S'\x1f\x01'
p14346
tp14347
Rp14348
ag2
(g6
S' \x01'
p14349
tp14350
Rp14351
ag2
(g6
S'!\x01'
p14352
tp14353
Rp14354
ag2
(g6
S"'\x01"
p14355
tp14356
Rp14357
ag2
(g6
S'(\x01'
p14358
tp14359
Rp14360
ag2
(g6
S')\x01'
p14361
tp14362
Rp14363
ag2
(g6
S'*\x01'
p14364
tp14365
Rp14366
ag2
(g6
S'+\x01'
p14367
tp14368
Rp14369
ag2
(g6
S',\x01'
p14370
tp14371
Rp14372
ag2
(g6
S'-\x01'
p14373
tp14374
Rp14375
ag2
(g6
S'.\x01'
p14376
tp14377
Rp14378
ag2
(g6
S'/\x01'
p14379
tp14380
Rp14381
ag2
(g6
S'0\x01'
p14382
tp14383
Rp14384
ag2
(g6
S'3\x01'
p14385
tp14386
Rp14387
ag2
(g6
S'4\x01'
p14388
tp14389
Rp14390
ag2
(g6
S'5\x01'
p14391
tp14392
Rp14393
ag2
(g6
S'6\x01'
p14394
tp14395
Rp14396
ag2
(g6
S'7\x01'
p14397
tp14398
Rp14399
ag2
(g6
S'8\x01'
p14400
tp14401
Rp14402
ag2
(g6
S'9\x01'
p14403
tp14404
Rp14405
ag2
(g6
S':\x01'
p14406
tp14407
Rp14408
ag2
(g6
S';\x01'
p14409
tp14410
Rp14411
ag2
(g6
S'<\x01'
p14412
tp14413
Rp14414
ag2
(g6
S'?\x01'
p14415
tp14416
Rp14417
ag2
(g6
S'@\x01'
p14418
tp14419
Rp14420
ag2
(g6
S'A\x01'
p14421
tp14422
Rp14423
ag2
(g6
S'B\x01'
p14424
tp14425
Rp14426
ag2
(g6
S'C\x01'
p14427
tp14428
Rp14429
ag2
(g6
S'D\x01'
p14430
tp14431
Rp14432
ag2
(g6
S'E\x01'
p14433
tp14434
Rp14435
ag2
(g6
S'F\x01'
p14436
tp14437
Rp14438
ag2
(g6
S'G\x01'
p14439
tp14440
Rp14441
ag2
(g6
S'H\x01'
p14442
tp14443
Rp14444
ag2
(g6
S'J\x01'
p14445
tp14446
Rp14447
ag2
(g6
S'K\x01'
p14448
tp14449
Rp14450
ag2
(g6
S'L\x01'
p14451
tp14452
Rp14453
ag2
(g6
S'M\x01'
p14454
tp14455
Rp14456
ag2
(g6
S'N\x01'
p14457
tp14458
Rp14459
ag2
(g6
S'O\x01'
p14460
tp14461
Rp14462
ag2
(g6
S'P\x01'
p14463
tp14464
Rp14465
ag2
(g6
S'Q\x01'
p14466
tp14467
Rp14468
ag2
(g6
S'R\x01'
p14469
tp14470
Rp14471
ag2
(g6
S'g\x03'
p14472
tp14473
Rp14474
ag2
(g6
S'h\x03'
p14475
tp14476
Rp14477
ag2
(g6
S'i\x03'
p14478
tp14479
Rp14480
ag2
(g6
S'j\x03'
p14481
tp14482
Rp14483
ag2
(g6
S'k\x03'
p14484
tp14485
Rp14486
ag2
(g6
S'l\x03'
p14487
tp14488
Rp14489
ag2
(g6
S'm\x03'
p14490
tp14491
Rp14492
ag2
(g6
S'n\x03'
p14493
tp14494
Rp14495
ag2
(g6
S'~\x03'
p14496
tp14497
Rp14498
ag2
(g6
S'\x7f\x03'
p14499
tp14500
Rp14501
ag2
(g6
S'\x80\x03'
p14502
tp14503
Rp14504
ag2
(g6
S'\x81\x03'
p14505
tp14506
Rp14507
ag2
(g6
S'\x82\x03'
p14508
tp14509
Rp14510
ag2
(g6
S'\x83\x03'
p14511
tp14512
Rp14513
ag2
(g6
S'\x84\x03'
p14514
tp14515
Rp14516
ag2
(g6
S'\x85\x03'
p14517
tp14518
Rp14519
ag2
(g6
S'\x92\x03'
p14520
tp14521
Rp14522
ag2
(g6
S'\x93\x03'
p14523
tp14524
Rp14525
ag2
(g6
S'\x94\x03'
p14526
tp14527
Rp14528
ag2
(g6
S'\x95\x03'
p14529
tp14530
Rp14531
ag2
(g6
S'\x96\x03'
p14532
tp14533
Rp14534
ag2
(g6
S'\x97\x03'
p14535
tp14536
Rp14537
ag2
(g6
S'\x98\x03'
p14538
tp14539
Rp14540
ag2
(g6
S'\x99\x03'
p14541
tp14542
Rp14543
ag2
(g6
S'\x9f\x03'
p14544
tp14545
Rp14546
ag2
(g6
S'\xa0\x03'
p14547
tp14548
Rp14549
ag2
(g6
S'\xa1\x03'
p14550
tp14551
Rp14552
ag2
(g6
S'\xa2\x03'
p14553
tp14554
Rp14555
ag2
(g6
S'\xa3\x03'
p14556
tp14557
Rp14558
ag2
(g6
S'\xa4\x03'
p14559
tp14560
Rp14561
ag2
(g6
S'\xa5\x03'
p14562
tp14563
Rp14564
ag2
(g6
S'\xa6\x03'
p14565
tp14566
Rp14567
ag2
(g6
S'\xad\x03'
p14568
tp14569
Rp14570
ag2
(g6
S'\xae\x03'
p14571
tp14572
Rp14573
ag2
(g6
S'\xaf\x03'
p14574
tp14575
Rp14576
ag2
(g6
S'\xb0\x03'
p14577
tp14578
Rp14579
ag2
(g6
S'\xb1\x03'
p14580
tp14581
Rp14582
ag2
(g6
S'\xb2\x03'
p14583
tp14584
Rp14585
ag2
(g6
S'\xb3\x03'
p14586
tp14587
Rp14588
ag2
(g6
S'\xb4\x03'
p14589
tp14590
Rp14591
ag2
(g6
S'\xbc\x03'
p14592
tp14593
Rp14594
ag2
(g6
S'\xbd\x03'
p14595
tp14596
Rp14597
ag2
(g6
S'\xbe\x03'
p14598
tp14599
Rp14600
ag2
(g6
S'\xbf\x03'
p14601
tp14602
Rp14603
ag2
(g6
S'\xc0\x03'
p14604
tp14605
Rp14606
ag2
(g6
S'\xc1\x03'
p14607
tp14608
Rp14609
ag2
(g6
S'\xc2\x03'
p14610
tp14611
Rp14612
ag2
(g6
S'\xc3\x03'
p14613
tp14614
Rp14615
ag2
(g6
S'\xc6\x03'
p14616
tp14617
Rp14618
ag2
(g6
S'\xc7\x03'
p14619
tp14620
Rp14621
ag2
(g6
S'\xc8\x03'
p14622
tp14623
Rp14624
ag2
(g6
S'\xc9\x03'
p14625
tp14626
Rp14627
ag2
(g6
S'\xca\x03'
p14628
tp14629
Rp14630
ag2
(g6
S'\xcb\x03'
p14631
tp14632
Rp14633
ag2
(g6
S'\xcc\x03'
p14634
tp14635
Rp14636
ag2
(g6
S'\xcd\x03'
p14637
tp14638
Rp14639
ag2
(g6
S'\xce\x03'
p14640
tp14641
Rp14642
ag2
(g6
S'\xcf\x03'
p14643
tp14644
Rp14645
ag2
(g6
S'\xd0\x03'
p14646
tp14647
Rp14648
ag2
(g6
S'\xd1\x03'
p14649
tp14650
Rp14651
ag2
(g6
S'\xd2\x03'
p14652
tp14653
Rp14654
ag2
(g6
S'\xd3\x03'
p14655
tp14656
Rp14657
ag2
(g6
S'\xd4\x03'
p14658
tp14659
Rp14660
ag2
(g6
S'\xd5\x03'
p14661
tp14662
Rp14663
ag2
(g6
S'\xd9\x03'
p14664
tp14665
Rp14666
ag2
(g6
S'\xda\x03'
p14667
tp14668
Rp14669
ag2
(g6
S'\xdb\x03'
p14670
tp14671
Rp14672
ag2
(g6
S'\xdc\x03'
p14673
tp14674
Rp14675
ag2
(g6
S'\xdd\x03'
p14676
tp14677
Rp14678
ag2
(g6
S'\xde\x03'
p14679
tp14680
Rp14681
ag2
(g6
S'\xdf\x03'
p14682
tp14683
Rp14684
ag2
(g6
S'\xe0\x03'
p14685
tp14686
Rp14687
aa.