(lp0
(lp1
cnumpy.core.multiarray
scalar
p2
(cnumpy
dtype
p3
(S'u2'
p4
I0
I1
tp5
Rp6
(I3
S'<'
p7
NNNI-1
I-1
I0
tp8
bS'o\n'
p9
tp10
Rp11
ag2
(g6
S'p\n'
p12
tp13
Rp14
ag2
(g6
S'q\n'
p15
tp16
Rp17
ag2
(g6
S'\x82\n'
p18
tp19
Rp20
ag2
(g6
S'\x83\n'
p21
tp22
Rp23
ag2
(g6
S'\x84\n'
p24
tp25
Rp26
ag2
(g6
S'\x85\n'
p27
tp28
Rp29
ag2
(g6
S'\x86\n'
p30
tp31
Rp32
ag2
(g6
S'\x87\n'
p33
tp34
Rp35
ag2
(g6
S'\x88\n'
p36
tp37
Rp38
ag2
(g6
S'\x89\n'
p39
tp40
Rp41
ag2
(g6
S'\x8a\n'
p42
tp43
Rp44
ag2
(g6
S'\x8b\n'
p45
tp46
Rp47
ag2
(g6
S'\x8c\n'
p48
tp49
Rp50
ag2
(g6
S'\x9d\n'
p51
tp52
Rp53
ag2
(g6
S'\x9e\n'
p54
tp55
Rp56
ag2
(g6
S'\x9f\n'
p57
tp58
Rp59
ag2
(g6
S'\xa0\n'
p60
tp61
Rp62
ag2
(g6
S'\xa1\n'
p63
tp64
Rp65
ag2
(g6
S'\xa2\n'
p66
tp67
Rp68
ag2
(g6
S'\xa3\n'
p69
tp70
Rp71
ag2
(g6
S'\xa4\n'
p72
tp73
Rp74
ag2
(g6
S'\xa5\n'
p75
tp76
Rp77
ag2
(g6
S'\xa6\n'
p78
tp79
Rp80
ag2
(g6
S'\xa7\n'
p81
tp82
Rp83
ag2
(g6
S'\xa8\n'
p84
tp85
Rp86
ag2
(g6
S'\xa9\n'
p87
tp88
Rp89
ag2
(g6
S'\xba\n'
p90
tp91
Rp92
ag2
(g6
S'\xbb\n'
p93
tp94
Rp95
ag2
(g6
S'\xbc\n'
p96
tp97
Rp98
ag2
(g6
S'\xbd\n'
p99
tp100
Rp101
ag2
(g6
S'\xbe\n'
p102
tp103
Rp104
ag2
(g6
S'\xbf\n'
p105
tp106
Rp107
ag2
(g6
S'\xc0\n'
p108
tp109
Rp110
ag2
(g6
S'\xc1\n'
p111
tp112
Rp113
ag2
(g6
S'\xc2\n'
p114
tp115
Rp116
ag2
(g6
S'\xc3\n'
p117
tp118
Rp119
ag2
(g6
S'\xc4\n'
p120
tp121
Rp122
ag2
(g6
S'\xc5\n'
p123
tp124
Rp125
ag2
(g6
S'\xc6\n'
p126
tp127
Rp128
ag2
(g6
S'\xd7\n'
p129
tp130
Rp131
ag2
(g6
S'\xd8\n'
p132
tp133
Rp134
ag2
(g6
S'\xd9\n'
p135
tp136
Rp137
ag2
(g6
S'\xda\n'
p138
tp139
Rp140
ag2
(g6
S'\xdb\n'
p141
tp142
Rp143
ag2
(g6
S'\xdc\n'
p144
tp145
Rp146
ag2
(g6
S'\xdd\n'
p147
tp148
Rp149
ag2
(g6
S'\xde\n'
p150
tp151
Rp152
ag2
(g6
S'\xdf\n'
p153
tp154
Rp155
ag2
(g6
S'\xe0\n'
p156
tp157
Rp158
ag2
(g6
S'\xe1\n'
p159
tp160
Rp161
ag2
(g6
S'\xf1\n'
p162
tp163
Rp164
ag2
(g6
S'\xf2\n'
p165
tp166
Rp167
ag2
(g6
S'\xf3\n'
p168
tp169
Rp170
ag2
(g6
S'\xf4\n'
p171
tp172
Rp173
ag2
(g6
S'\xf5\n'
p174
tp175
Rp176
ag2
(g6
S'\xf6\n'
p177
tp178
Rp179
ag2
(g6
S'\xf7\n'
p180
tp181
Rp182
ag2
(g6
S'\xf8\n'
p183
tp184
Rp185
ag2
(g6
S'\xf9\n'
p186
tp187
Rp188
ag2
(g6
S'\xfa\n'
p189
tp190
Rp191
ag2
(g6
S'\n\x0b'
p192
tp193
Rp194
ag2
(g6
S'\x0b\x0b'
p195
tp196
Rp197
ag2
(g6
S'\x0c\x0b'
p198
tp199
Rp200
ag2
(g6
S'\r\x0b'
p201
tp202
Rp203
ag2
(g6
S'\x0e\x0b'
p204
tp205
Rp206
ag2
(g6
S'\x0f\x0b'
p207
tp208
Rp209
ag2
(g6
S'\x10\x0b'
p210
tp211
Rp212
ag2
(g6
S'\x1e\x0b'
p213
tp214
Rp215
ag2
(g6
S'\x1f\x0b'
p216
tp217
Rp218
ag2
(g6
S' \x0b'
p219
tp220
Rp221
ag2
(g6
S'!\x0b'
p222
tp223
Rp224
ag2
(g6
S'"\x0b'
p225
tp226
Rp227
ag2
(g6
S'#\x0b'
p228
tp229
Rp230
ag2
(g6
S'/\x0b'
p231
tp232
Rp233
ag2
(g6
S'0\x0b'
p234
tp235
Rp236
ag2
(g6
S'1\x0b'
p237
tp238
Rp239
ag2
(g6
S'2\x0b'
p240
tp241
Rp242
ag2
(g6
S'3\x0b'
p243
tp244
Rp245
ag2
(g6
S'4\x0b'
p246
tp247
Rp248
ag2
(g6
S'5\x0b'
p249
tp250
Rp251
ag2
(g6
S'6\x0b'
p252
tp253
Rp254
ag2
(g6
S'7\x0b'
p255
tp256
Rp257
ag2
(g6
S'8\x0b'
p258
tp259
Rp260
ag2
(g6
S'9\x0b'
p261
tp262
Rp263
ag2
(g6
S':\x0b'
p264
tp265
Rp266
ag2
(g6
S';\x0b'
p267
tp268
Rp269
ag2
(g6
S'<\x0b'
p270
tp271
Rp272
ag2
(g6
S'=\x0b'
p273
tp274
Rp275
ag2
(g6
S'>\x0b'
p276
tp277
Rp278
ag2
(g6
S'?\x0b'
p279
tp280
Rp281
ag2
(g6
S'@\x0b'
p282
tp283
Rp284
ag2
(g6
S'\xc3\x0c'
p285
tp286
Rp287
ag2
(g6
S'\xc4\x0c'
p288
tp289
Rp290
ag2
(g6
S'\xc5\x0c'
p291
tp292
Rp293
ag2
(g6
S'\xd5\x0c'
p294
tp295
Rp296
ag2
(g6
S'\xd6\x0c'
p297
tp298
Rp299
ag2
(g6
S'\xd7\x0c'
p300
tp301
Rp302
ag2
(g6
S'\xd8\x0c'
p303
tp304
Rp305
ag2
(g6
S'\xd9\x0c'
p306
tp307
Rp308
ag2
(g6
S'\xda\x0c'
p309
tp310
Rp311
ag2
(g6
S'\xdb\x0c'
p312
tp313
Rp314
ag2
(g6
S'\xdc\x0c'
p315
tp316
Rp317
ag2
(g6
S'\xea\x0c'
p318
tp319
Rp320
ag2
(g6
S'\xeb\x0c'
p321
tp322
Rp323
ag2
(g6
S'\xec\x0c'
p324
tp325
Rp326
ag2
(g6
S'\xed\x0c'
p327
tp328
Rp329
ag2
(g6
S'\xee\x0c'
p330
tp331
Rp332
ag2
(g6
S'\xef\x0c'
p333
tp334
Rp335
ag2
(g6
S'\xf0\x0c'
p336
tp337
Rp338
ag2
(g6
S'\xf1\x0c'
p339
tp340
Rp341
ag2
(g6
S'\x00\r'
p342
tp343
Rp344
ag2
(g6
S'\x01\r'
p345
tp346
Rp347
ag2
(g6
S'\x02\r'
p348
tp349
Rp350
ag2
(g6
S'\x03\r'
p351
tp352
Rp353
ag2
(g6
S'\x04\r'
p354
tp355
Rp356
ag2
(g6
S'\x05\r'
p357
tp358
Rp359
ag2
(g6
S'\x06\r'
p360
tp361
Rp362
ag2
(g6
S'\x07\r'
p363
tp364
Rp365
ag2
(g6
S'\x08\r'
p366
tp367
Rp368
ag2
(g6
S'\x17\r'
p369
tp370
Rp371
ag2
(g6
S'\x18\r'
p372
tp373
Rp374
ag2
(g6
S'\x19\r'
p375
tp376
Rp377
ag2
(g6
S'\x1a\r'
p378
tp379
Rp380
ag2
(g6
S'\x1b\r'
p381
tp382
Rp383
ag2
(g6
S'\x1c\r'
p384
tp385
Rp386
ag2
(g6
S'\x1d\r'
p387
tp388
Rp389
ag2
(g6
S'\x1e\r'
p390
tp391
Rp392
ag2
(g6
S'\x1f\r'
p393
tp394
Rp395
ag2
(g6
S'.\r'
p396
tp397
Rp398
ag2
(g6
S'/\r'
p399
tp400
Rp401
ag2
(g6
S'0\r'
p402
tp403
Rp404
ag2
(g6
S'1\r'
p405
tp406
Rp407
ag2
(g6
S'2\r'
p408
tp409
Rp410
ag2
(g6
S'3\r'
p411
tp412
Rp413
ag2
(g6
S'4\r'
p414
tp415
Rp416
ag2
(g6
S'5\r'
p417
tp418
Rp419
ag2
(g6
S'6\r'
p420
tp421
Rp422
ag2
(g6
S'E\r'
p423
tp424
Rp425
ag2
(g6
S'F\r'
p426
tp427
Rp428
ag2
(g6
S'G\r'
p429
tp430
Rp431
ag2
(g6
S'H\r'
p432
tp433
Rp434
ag2
(g6
S'I\r'
p435
tp436
Rp437
ag2
(g6
S'J\r'
p438
tp439
Rp440
ag2
(g6
S'K\r'
p441
tp442
Rp443
ag2
(g6
S'L\r'
p444
tp445
Rp446
ag2
(g6
S'M\r'
p447
tp448
Rp449
ag2
(g6
S'Z\r'
p450
tp451
Rp452
ag2
(g6
S'[\r'
p453
tp454
Rp455
ag2
(g6
S'\\\r'
p456
tp457
Rp458
ag2
(g6
S']\r'
p459
tp460
Rp461
ag2
(g6
S'^\r'
p462
tp463
Rp464
ag2
(g6
S'_\r'
p465
tp466
Rp467
ag2
(g6
S'`\r'
p468
tp469
Rp470
ag2
(g6
S'a\r'
p471
tp472
Rp473
ag2
(g6
S'd\r'
p474
tp475
Rp476
ag2
(g6
S'e\r'
p477
tp478
Rp479
ag2
(g6
S'f\r'
p480
tp481
Rp482
ag2
(g6
S'g\r'
p483
tp484
Rp485
ag2
(g6
S'h\r'
p486
tp487
Rp488
ag2
(g6
S'i\r'
p489
tp490
Rp491
ag2
(g6
S'j\r'
p492
tp493
Rp494
ag2
(g6
S'k\r'
p495
tp496
Rp497
ag2
(g6
S'\x0f\x0f'
p498
tp499
Rp500
ag2
(g6
S'\x10\x0f'
p501
tp502
Rp503
ag2
(g6
S'\x11\x0f'
p504
tp505
Rp506
ag2
(g6
S'\x12\x0f'
p507
tp508
Rp509
ag2
(g6
S'\x13\x0f'
p510
tp511
Rp512
ag2
(g6
S'\x14\x0f'
p513
tp514
Rp515
ag2
(g6
S'\x15\x0f'
p516
tp517
Rp518
ag2
(g6
S'\x16\x0f'
p519
tp520
Rp521
ag2
(g6
S'\x17\x0f'
p522
tp523
Rp524
ag2
(g6
S'\x18\x0f'
p525
tp526
Rp527
ag2
(g6
S'\x19\x0f'
p528
tp529
Rp530
ag2
(g6
S')\x0f'
p531
tp532
Rp533
ag2
(g6
S'*\x0f'
p534
tp535
Rp536
ag2
(g6
S'+\x0f'
p537
tp538
Rp539
ag2
(g6
S',\x0f'
p540
tp541
Rp542
ag2
(g6
S'-\x0f'
p543
tp544
Rp545
ag2
(g6
S'.\x0f'
p546
tp547
Rp548
ag2
(g6
S'/\x0f'
p549
tp550
Rp551
ag2
(g6
S'0\x0f'
p552
tp553
Rp554
ag2
(g6
S'1\x0f'
p555
tp556
Rp557
ag2
(g6
S'2\x0f'
p558
tp559
Rp560
ag2
(g6
S'3\x0f'
p561
tp562
Rp563
ag2
(g6
S'A\x0f'
p564
tp565
Rp566
ag2
(g6
S'B\x0f'
p567
tp568
Rp569
ag2
(g6
S'C\x0f'
p570
tp571
Rp572
ag2
(g6
S'D\x0f'
p573
tp574
Rp575
ag2
(g6
S'E\x0f'
p576
tp577
Rp578
ag2
(g6
S'F\x0f'
p579
tp580
Rp581
ag2
(g6
S'G\x0f'
p582
tp583
Rp584
ag2
(g6
S'H\x0f'
p585
tp586
Rp587
ag2
(g6
S'I\x0f'
p588
tp589
Rp590
ag2
(g6
S'J\x0f'
p591
tp592
Rp593
ag2
(g6
S'K\x0f'
p594
tp595
Rp596
ag2
(g6
S'Y\x0f'
p597
tp598
Rp599
ag2
(g6
S'Z\x0f'
p600
tp601
Rp602
ag2
(g6
S'[\x0f'
p603
tp604
Rp605
ag2
(g6
S'\\\x0f'
p606
tp607
Rp608
ag2
(g6
S']\x0f'
p609
tp610
Rp611
ag2
(g6
S'^\x0f'
p612
tp613
Rp614
ag2
(g6
S'_\x0f'
p615
tp616
Rp617
ag2
(g6
S'`\x0f'
p618
tp619
Rp620
ag2
(g6
S'a\x0f'
p621
tp622
Rp623
ag2
(g6
S'o\x0f'
p624
tp625
Rp626
ag2
(g6
S'p\x0f'
p627
tp628
Rp629
ag2
(g6
S'q\x0f'
p630
tp631
Rp632
ag2
(g6
S'r\x0f'
p633
tp634
Rp635
ag2
(g6
S's\x0f'
p636
tp637
Rp638
ag2
(g6
S't\x0f'
p639
tp640
Rp641
ag2
(g6
S'u\x0f'
p642
tp643
Rp644
ag2
(g6
S'v\x0f'
p645
tp646
Rp647
ag2
(g6
S'w\x0f'
p648
tp649
Rp650
ag2
(g6
S'\x85\x0f'
p651
tp652
Rp653
ag2
(g6
S'\x86\x0f'
p654
tp655
Rp656
ag2
(g6
S'\x87\x0f'
p657
tp658
Rp659
ag2
(g6
S'\x88\x0f'
p660
tp661
Rp662
ag2
(g6
S'\x89\x0f'
p663
tp664
Rp665
ag2
(g6
S'\x8a\x0f'
p666
tp667
Rp668
ag2
(g6
S'\x8b\x0f'
p669
tp670
Rp671
ag2
(g6
S'\x8c\x0f'
p672
tp673
Rp674
ag2
(g6
S'\x98\x0f'
p675
tp676
Rp677
ag2
(g6
S'\x99\x0f'
p678
tp679
Rp680
ag2
(g6
S'\x9a\x0f'
p681
tp682
Rp683
ag2
(g6
S'\x9b\x0f'
p684
tp685
Rp686
ag2
(g6
S'\x9c\x0f'
p687
tp688
Rp689
ag2
(g6
S'\x9d\x0f'
p690
tp691
Rp692
ag2
(g6
S'\x9e\x0f'
p693
tp694
Rp695
ag2
(g6
S'\x9f\x0f'
p696
tp697
Rp698
ag2
(g6
S'\xa0\x0f'
p699
tp700
Rp701
ag2
(g6
S'\xac\x0f'
p702
tp703
Rp704
ag2
(g6
S'\xad\x0f'
p705
tp706
Rp707
ag2
(g6
S'\xae\x0f'
p708
tp709
Rp710
ag2
(g6
S'\xaf\x0f'
p711
tp712
Rp713
ag2
(g6
S'\xb0\x0f'
p714
tp715
Rp716
ag2
(g6
S'\xb1\x0f'
p717
tp718
Rp719
ag2
(g6
S'\xb2\x0f'
p720
tp721
Rp722
ag2
(g6
S'\xb3\x0f'
p723
tp724
Rp725
ag2
(g6
S'\xb4\x0f'
p726
tp727
Rp728
ag2
(g6
S'\xb5\x0f'
p729
tp730
Rp731
ag2
(g6
S'\xb6\x0f'
p732
tp733
Rp734
ag2
(g6
S'\xb7\x0f'
p735
tp736
Rp737
ag2
(g6
S'\xb8\x0f'
p738
tp739
Rp740
ag2
(g6
S'\xb9\x0f'
p741
tp742
Rp743
ag2
(g6
S'\xba\x0f'
p744
tp745
Rp746
ag2
(g6
S'\xbb\x0f'
p747
tp748
Rp749
ag2
(g6
S'\xbc\x0f'
p750
tp751
Rp752
ag2
(g6
S'\xbd\x0f'
p753
tp754
Rp755
ag2
(g6
S'\xbe\x0f'
p756
tp757
Rp758
ag2
(g6
S'\xbf\x0f'
p759
tp760
Rp761
ag2
(g6
S'\xc0\x0f'
p762
tp763
Rp764
ag2
(g6
S'\xc1\x0f'
p765
tp766
Rp767
ag2
(g6
S'\xd0\x11'
p768
tp769
Rp770
ag2
(g6
S'\xd1\x11'
p771
tp772
Rp773
ag2
(g6
S'\xd2\x11'
p774
tp775
Rp776
ag2
(g6
S'\xd3\x11'
p777
tp778
Rp779
ag2
(g6
S'\xd4\x11'
p780
tp781
Rp782
ag2
(g6
S'\xe5\x11'
p783
tp784
Rp785
ag2
(g6
S'\xe6\x11'
p786
tp787
Rp788
ag2
(g6
S'\xe7\x11'
p789
tp790
Rp791
ag2
(g6
S'\xe8\x11'
p792
tp793
Rp794
ag2
(g6
S'\xe9\x11'
p795
tp796
Rp797
ag2
(g6
S'\xea\x11'
p798
tp799
Rp800
ag2
(g6
S'\xeb\x11'
p801
tp802
Rp803
ag2
(g6
S'\xfc\x11'
p804
tp805
Rp806
ag2
(g6
S'\xfd\x11'
p807
tp808
Rp809
ag2
(g6
S'\xfe\x11'
p810
tp811
Rp812
ag2
(g6
S'\xff\x11'
p813
tp814
Rp815
ag2
(g6
S'\x00\x12'
p816
tp817
Rp818
ag2
(g6
S'\x01\x12'
p819
tp820
Rp821
ag2
(g6
S'\x02\x12'
p822
tp823
Rp824
ag2
(g6
S'\x03\x12'
p825
tp826
Rp827
ag2
(g6
S'\x04\x12'
p828
tp829
Rp830
ag2
(g6
S'\x12\x12'
p831
tp832
Rp833
ag2
(g6
S'\x13\x12'
p834
tp835
Rp836
ag2
(g6
S'\x14\x12'
p837
tp838
Rp839
ag2
(g6
S'\x15\x12'
p840
tp841
Rp842
ag2
(g6
S'\x16\x12'
p843
tp844
Rp845
ag2
(g6
S'\x17\x12'
p846
tp847
Rp848
ag2
(g6
S'\x18\x12'
p849
tp850
Rp851
ag2
(g6
S'\x19\x12'
p852
tp853
Rp854
ag2
(g6
S'\x1a\x12'
p855
tp856
Rp857
ag2
(g6
S'\x1b\x12'
p858
tp859
Rp860
ag2
(g6
S'(\x12'
p861
tp862
Rp863
ag2
(g6
S')\x12'
p864
tp865
Rp866
ag2
(g6
S'*\x12'
p867
tp868
Rp869
ag2
(g6
S'+\x12'
p870
tp871
Rp872
ag2
(g6
S',\x12'
p873
tp874
Rp875
ag2
(g6
S'-\x12'
p876
tp877
Rp878
ag2
(g6
S'.\x12'
p879
tp880
Rp881
ag2
(g6
S'/\x12'
p882
tp883
Rp884
ag2
(g6
S'0\x12'
p885
tp886
Rp887
ag2
(g6
S'=\x12'
p888
tp889
Rp890
ag2
(g6
S'>\x12'
p891
tp892
Rp893
ag2
(g6
S'?\x12'
p894
tp895
Rp896
ag2
(g6
S'@\x12'
p897
tp898
Rp899
ag2
(g6
S'A\x12'
p900
tp901
Rp902
ag2
(g6
S'B\x12'
p903
tp904
Rp905
ag2
(g6
S'C\x12'
p906
tp907
Rp908
ag2
(g6
S'D\x12'
p909
tp910
Rp911
ag2
(g6
S'E\x12'
p912
tp913
Rp914
ag2
(g6
S'K\x12'
p915
tp916
Rp917
ag2
(g6
S'L\x12'
p918
tp919
Rp920
ag2
(g6
S'M\x12'
p921
tp922
Rp923
ag2
(g6
S'N\x12'
p924
tp925
Rp926
ag2
(g6
S'O\x12'
p927
tp928
Rp929
ag2
(g6
S'P\x12'
p930
tp931
Rp932
ag2
(g6
S'Q\x12'
p933
tp934
Rp935
ag2
(g6
S'R\x12'
p936
tp937
Rp938
ag2
(g6
S'S\x12'
p939
tp940
Rp941
ag2
(g6
S'T\x12'
p942
tp943
Rp944
ag2
(g6
S'U\x12'
p945
tp946
Rp947
ag2
(g6
S'V\x12'
p948
tp949
Rp950
ag2
(g6
S'W\x12'
p951
tp952
Rp953
ag2
(g6
S'X\x12'
p954
tp955
Rp956
ag2
(g6
S'Y\x12'
p957
tp958
Rp959
ag2
(g6
S'Z\x12'
p960
tp961
Rp962
aa(lp963
g2
(g6
S'\x04\x00'
p964
tp965
Rp966
ag2
(g6
S'\x05\x00'
p967
tp968
Rp969
ag2
(g6
S'\x08\x00'
p970
tp971
Rp972
ag2
(g6
S'\t\x00'
p973
tp974
Rp975
ag2
(g6
S'\n\x00'
p976
tp977
Rp978
ag2
(g6
S'\x0b\x00'
p979
tp980
Rp981
ag2
(g6
S'\x0c\x00'
p982
tp983
Rp984
ag2
(g6
S'\r\x00'
p985
tp986
Rp987
ag2
(g6
S'\x11\x00'
p988
tp989
Rp990
ag2
(g6
S'\x12\x00'
p991
tp992
Rp993
ag2
(g6
S'\x13\x00'
p994
tp995
Rp996
ag2
(g6
S'\x14\x00'
p997
tp998
Rp999
ag2
(g6
S'\x15\x00'
p1000
tp1001
Rp1002
ag2
(g6
S'\x1e\x00'
p1003
tp1004
Rp1005
ag2
(g6
S'\x1f\x00'
p1006
tp1007
Rp1008
ag2
(g6
S' \x00'
p1009
tp1010
Rp1011
ag2
(g6
S'!\x00'
p1012
tp1013
Rp1014
ag2
(g6
S'+\x00'
p1015
tp1016
Rp1017
ag2
(g6
S',\x00'
p1018
tp1019
Rp1020
ag2
(g6
S'-\x00'
p1021
tp1022
Rp1023
ag2
(g6
S'.\x00'
p1024
tp1025
Rp1026
ag2
(g6
S'9\x00'
p1027
tp1028
Rp1029
ag2
(g6
S':\x00'
p1030
tp1031
Rp1032
ag2
(g6
S';\x00'
p1033
tp1034
Rp1035
ag2
(g6
S'<\x00'
p1036
tp1037
Rp1038
ag2
(g6
S'=\x00'
p1039
tp1040
Rp1041
ag2
(g6
S'N\x00'
p1042
tp1043
Rp1044
ag2
(g6
S'O\x00'
p1045
tp1046
Rp1047
ag2
(g6
S'P\x00'
p1048
tp1049
Rp1050
ag2
(g6
S'Q\x00'
p1051
tp1052
Rp1053
ag2
(g6
S'R\x00'
p1054
tp1055
Rp1056
ag2
(g6
S'S\x00'
p1057
tp1058
Rp1059
ag2
(g6
S'e\x00'
p1060
tp1061
Rp1062
ag2
(g6
S'f\x00'
p1063
tp1064
Rp1065
ag2
(g6
S'g\x00'
p1066
tp1067
Rp1068
ag2
(g6
S'h\x00'
p1069
tp1070
Rp1071
ag2
(g6
S'i\x00'
p1072
tp1073
Rp1074
ag2
(g6
S'j\x00'
p1075
tp1076
Rp1077
ag2
(g6
S'|\x00'
p1078
tp1079
Rp1080
ag2
(g6
S'}\x00'
p1081
tp1082
Rp1083
ag2
(g6
S'~\x00'
p1084
tp1085
Rp1086
ag2
(g6
S'\x7f\x00'
p1087
tp1088
Rp1089
ag2
(g6
S'\x80\x00'
p1090
tp1091
Rp1092
ag2
(g6
S'\x96\x00'
p1093
tp1094
Rp1095
ag2
(g6
S'\xcb\x01'
p1096
tp1097
Rp1098
ag2
(g6
S'\xce\x01'
p1099
tp1100
Rp1101
ag2
(g6
S'\xcf\x01'
p1102
tp1103
Rp1104
ag2
(g6
S'\xd0\x01'
p1105
tp1106
Rp1107
ag2
(g6
S'\xd5\x01'
p1108
tp1109
Rp1110
ag2
(g6
S'\xd6\x01'
p1111
tp1112
Rp1113
ag2
(g6
S'\xd7\x01'
p1114
tp1115
Rp1116
ag2
(g6
S'\xd8\x01'
p1117
tp1118
Rp1119
ag2
(g6
S'\xdd\x01'
p1120
tp1121
Rp1122
ag2
(g6
S'\xde\x01'
p1123
tp1124
Rp1125
ag2
(g6
S'\xdf\x01'
p1126
tp1127
Rp1128
ag2
(g6
S'\xe0\x01'
p1129
tp1130
Rp1131
ag2
(g6
S'\xe1\x01'
p1132
tp1133
Rp1134
ag2
(g6
S'\xe7\x01'
p1135
tp1136
Rp1137
ag2
(g6
S'\xe8\x01'
p1138
tp1139
Rp1140
ag2
(g6
S'\xe9\x01'
p1141
tp1142
Rp1143
ag2
(g6
S'\xea\x01'
p1144
tp1145
Rp1146
ag2
(g6
S'\xeb\x01'
p1147
tp1148
Rp1149
ag2
(g6
S'\xec\x01'
p1150
tp1151
Rp1152
ag2
(g6
S'\xf4\x01'
p1153
tp1154
Rp1155
ag2
(g6
S'\xf5\x01'
p1156
tp1157
Rp1158
ag2
(g6
S'\xf6\x01'
p1159
tp1160
Rp1161
ag2
(g6
S'\xf7\x01'
p1162
tp1163
Rp1164
ag2
(g6
S'\xf8\x01'
p1165
tp1166
Rp1167
ag2
(g6
S'\xf9\x01'
p1168
tp1169
Rp1170
ag2
(g6
S'\x03\x02'
p1171
tp1172
Rp1173
ag2
(g6
S'\x04\x02'
p1174
tp1175
Rp1176
ag2
(g6
S'\x05\x02'
p1177
tp1178
Rp1179
ag2
(g6
S'\x06\x02'
p1180
tp1181
Rp1182
ag2
(g6
S'\x13\x02'
p1183
tp1184
Rp1185
ag2
(g6
S'\x14\x02'
p1186
tp1187
Rp1188
ag2
(g6
S'\x15\x02'
p1189
tp1190
Rp1191
ag2
(g6
S'\x16\x02'
p1192
tp1193
Rp1194
ag2
(g6
S'$\x02'
p1195
tp1196
Rp1197
ag2
(g6
S'%\x02'
p1198
tp1199
Rp1200
ag2
(g6
S'&\x02'
p1201
tp1202
Rp1203
ag2
(g6
S"'\x02"
p1204
tp1205
Rp1206
ag2
(g6
S'<\x02'
p1207
tp1208
Rp1209
ag2
(g6
S'=\x02'
p1210
tp1211
Rp1212
ag2
(g6
S'>\x02'
p1213
tp1214
Rp1215
ag2
(g6
S'?\x02'
p1216
tp1217
Rp1218
ag2
(g6
S'X\x02'
p1219
tp1220
Rp1221
ag2
(g6
S'Y\x02'
p1222
tp1223
Rp1224
ag2
(g6
S'Z\x02'
p1225
tp1226
Rp1227
ag2
(g6
S'r\x02'
p1228
tp1229
Rp1230
ag2
(g6
S's\x02'
p1231
tp1232
Rp1233
ag2
(g6
S'\xfa\x03'
p1234
tp1235
Rp1236
ag2
(g6
S'\xfb\x03'
p1237
tp1238
Rp1239
ag2
(g6
S'\xff\x03'
p1240
tp1241
Rp1242
ag2
(g6
S'\x00\x04'
p1243
tp1244
Rp1245
ag2
(g6
S'\x01\x04'
p1246
tp1247
Rp1248
ag2
(g6
S'\x02\x04'
p1249
tp1250
Rp1251
ag2
(g6
S'\x07\x04'
p1252
tp1253
Rp1254
ag2
(g6
S'\x08\x04'
p1255
tp1256
Rp1257
ag2
(g6
S'\t\x04'
p1258
tp1259
Rp1260
ag2
(g6
S'\n\x04'
p1261
tp1262
Rp1263
ag2
(g6
S'\x0b\x04'
p1264
tp1265
Rp1266
ag2
(g6
S'\x12\x04'
p1267
tp1268
Rp1269
ag2
(g6
S'\x13\x04'
p1270
tp1271
Rp1272
ag2
(g6
S'\x14\x04'
p1273
tp1274
Rp1275
ag2
(g6
S'\x15\x04'
p1276
tp1277
Rp1278
ag2
(g6
S'\x16\x04'
p1279
tp1280
Rp1281
ag2
(g6
S'\x17\x04'
p1282
tp1283
Rp1284
ag2
(g6
S'\x1f\x04'
p1285
tp1286
Rp1287
ag2
(g6
S' \x04'
p1288
tp1289
Rp1290
ag2
(g6
S'!\x04'
p1291
tp1292
Rp1293
ag2
(g6
S'"\x04'
p1294
tp1295
Rp1296
ag2
(g6
S'#\x04'
p1297
tp1298
Rp1299
ag2
(g6
S'$\x04'
p1300
tp1301
Rp1302
ag2
(g6
S'%\x04'
p1303
tp1304
Rp1305
ag2
(g6
S',\x04'
p1306
tp1307
Rp1308
ag2
(g6
S'-\x04'
p1309
tp1310
Rp1311
ag2
(g6
S'.\x04'
p1312
tp1313
Rp1314
ag2
(g6
S'/\x04'
p1315
tp1316
Rp1317
ag2
(g6
S'0\x04'
p1318
tp1319
Rp1320
ag2
(g6
S'1\x04'
p1321
tp1322
Rp1323
ag2
(g6
S'2\x04'
p1324
tp1325
Rp1326
ag2
(g6
S'3\x04'
p1327
tp1328
Rp1329
ag2
(g6
S';\x04'
p1330
tp1331
Rp1332
ag2
(g6
S'<\x04'
p1333
tp1334
Rp1335
ag2
(g6
S'=\x04'
p1336
tp1337
Rp1338
ag2
(g6
S'>\x04'
p1339
tp1340
Rp1341
ag2
(g6
S'?\x04'
p1342
tp1343
Rp1344
ag2
(g6
S'@\x04'
p1345
tp1346
Rp1347
ag2
(g6
S'A\x04'
p1348
tp1349
Rp1350
ag2
(g6
S'B\x04'
p1351
tp1352
Rp1353
ag2
(g6
S'K\x04'
p1354
tp1355
Rp1356
ag2
(g6
S'L\x04'
p1357
tp1358
Rp1359
ag2
(g6
S'M\x04'
p1360
tp1361
Rp1362
ag2
(g6
S'N\x04'
p1363
tp1364
Rp1365
ag2
(g6
S'O\x04'
p1366
tp1367
Rp1368
ag2
(g6
S']\x04'
p1369
tp1370
Rp1371
ag2
(g6
S'^\x04'
p1372
tp1373
Rp1374
ag2
(g6
S'_\x04'
p1375
tp1376
Rp1377
ag2
(g6
S'`\x04'
p1378
tp1379
Rp1380
ag2
(g6
S'p\x04'
p1381
tp1382
Rp1383
ag2
(g6
S'q\x04'
p1384
tp1385
Rp1386
ag2
(g6
S'r\x04'
p1387
tp1388
Rp1389
ag2
(g6
S's\x04'
p1390
tp1391
Rp1392
ag2
(g6
S't\x04'
p1393
tp1394
Rp1395
ag2
(g6
S'\x8c\x04'
p1396
tp1397
Rp1398
ag2
(g6
S'\x8d\x04'
p1399
tp1400
Rp1401
ag2
(g6
S'\x8e\x04'
p1402
tp1403
Rp1404
ag2
(g6
S'\x8f\x04'
p1405
tp1406
Rp1407
ag2
(g6
S'\xaa\x04'
p1408
tp1409
Rp1410
ag2
(g6
S'\xab\x04'
p1411
tp1412
Rp1413
ag2
(g6
S'\xac\x04'
p1414
tp1415
Rp1416
ag2
(g6
S'\xc7\x04'
p1417
tp1418
Rp1419
ag2
(g6
S'\xc8\x04'
p1420
tp1421
Rp1422
ag2
(g6
S'\x97\x06'
p1423
tp1424
Rp1425
ag2
(g6
S'\x9c\x06'
p1426
tp1427
Rp1428
ag2
(g6
S'\x9d\x06'
p1429
tp1430
Rp1431
ag2
(g6
S'\xa3\x06'
p1432
tp1433
Rp1434
ag2
(g6
S'\xa4\x06'
p1435
tp1436
Rp1437
ag2
(g6
S'\xa5\x06'
p1438
tp1439
Rp1440
ag2
(g6
S'\xa6\x06'
p1441
tp1442
Rp1443
ag2
(g6
S'\xad\x06'
p1444
tp1445
Rp1446
ag2
(g6
S'\xae\x06'
p1447
tp1448
Rp1449
ag2
(g6
S'\xaf\x06'
p1450
tp1451
Rp1452
ag2
(g6
S'\xb0\x06'
p1453
tp1454
Rp1455
ag2
(g6
S'\xb1\x06'
p1456
tp1457
Rp1458
ag2
(g6
S'\xb2\x06'
p1459
tp1460
Rp1461
ag2
(g6
S'\xb9\x06'
p1462
tp1463
Rp1464
ag2
(g6
S'\xba\x06'
p1465
tp1466
Rp1467
ag2
(g6
S'\xbb\x06'
p1468
tp1469
Rp1470
ag2
(g6
S'\xbc\x06'
p1471
tp1472
Rp1473
ag2
(g6
S'\xbd\x06'
p1474
tp1475
Rp1476
ag2
(g6
S'\xbe\x06'
p1477
tp1478
Rp1479
ag2
(g6
S'\xbf\x06'
p1480
tp1481
Rp1482
ag2
(g6
S'\xc8\x06'
p1483
tp1484
Rp1485
ag2
(g6
S'\xc9\x06'
p1486
tp1487
Rp1488
ag2
(g6
S'\xca\x06'
p1489
tp1490
Rp1491
ag2
(g6
S'\xcb\x06'
p1492
tp1493
Rp1494
ag2
(g6
S'\xcc\x06'
p1495
tp1496
Rp1497
ag2
(g6
S'\xcd\x06'
p1498
tp1499
Rp1500
ag2
(g6
S'\xce\x06'
p1501
tp1502
Rp1503
ag2
(g6
S'\xcf\x06'
p1504
tp1505
Rp1506
ag2
(g6
S'\xd8\x06'
p1507
tp1508
Rp1509
ag2
(g6
S'\xd9\x06'
p1510
tp1511
Rp1512
ag2
(g6
S'\xda\x06'
p1513
tp1514
Rp1515
ag2
(g6
S'\xdb\x06'
p1516
tp1517
Rp1518
ag2
(g6
S'\xdc\x06'
p1519
tp1520
Rp1521
ag2
(g6
S'\xdd\x06'
p1522
tp1523
Rp1524
ag2
(g6
S'\xde\x06'
p1525
tp1526
Rp1527
ag2
(g6
S'\xdf\x06'
p1528
tp1529
Rp1530
ag2
(g6
S'\xe0\x06'
p1531
tp1532
Rp1533
ag2
(g6
S'\xe9\x06'
p1534
tp1535
Rp1536
ag2
(g6
S'\xea\x06'
p1537
tp1538
Rp1539
ag2
(g6
S'\xeb\x06'
p1540
tp1541
Rp1542
ag2
(g6
S'\xec\x06'
p1543
tp1544
Rp1545
ag2
(g6
S'\xed\x06'
p1546
tp1547
Rp1548
ag2
(g6
S'\xee\x06'
p1549
tp1550
Rp1551
ag2
(g6
S'\xef\x06'
p1552
tp1553
Rp1554
ag2
(g6
S'\xf0\x06'
p1555
tp1556
Rp1557
ag2
(g6
S'\xf1\x06'
p1558
tp1559
Rp1560
ag2
(g6
S'\xfa\x06'
p1561
tp1562
Rp1563
ag2
(g6
S'\xfb\x06'
p1564
tp1565
Rp1566
ag2
(g6
S'\xfc\x06'
p1567
tp1568
Rp1569
ag2
(g6
S'\xfd\x06'
p1570
tp1571
Rp1572
ag2
(g6
S'\x0c\x07'
p1573
tp1574
Rp1575
ag2
(g6
S'\r\x07'
p1576
tp1577
Rp1578
ag2
(g6
S'\x0e\x07'
p1579
tp1580
Rp1581
ag2
(g6
S'\x1e\x07'
p1582
tp1583
Rp1584
ag2
(g6
S'\x1f\x07'
p1585
tp1586
Rp1587
ag2
(g6
S'\t\t'
p1588
tp1589
Rp1590
ag2
(g6
S'\n\t'
p1591
tp1592
Rp1593
ag2
(g6
S'\x0f\t'
p1594
tp1595
Rp1596
ag2
(g6
S'\x10\t'
p1597
tp1598
Rp1599
ag2
(g6
S'\x11\t'
p1600
tp1601
Rp1602
ag2
(g6
S'\x12\t'
p1603
tp1604
Rp1605
ag2
(g6
S'\x17\t'
p1606
tp1607
Rp1608
ag2
(g6
S'\x18\t'
p1609
tp1610
Rp1611
ag2
(g6
S'\x19\t'
p1612
tp1613
Rp1614
ag2
(g6
S'\x1a\t'
p1615
tp1616
Rp1617
ag2
(g6
S'\x1b\t'
p1618
tp1619
Rp1620
ag2
(g6
S'\x1c\t'
p1621
tp1622
Rp1623
ag2
(g6
S'\x1d\t'
p1624
tp1625
Rp1626
ag2
(g6
S'#\t'
p1627
tp1628
Rp1629
ag2
(g6
S'$\t'
p1630
tp1631
Rp1632
ag2
(g6
S'%\t'
p1633
tp1634
Rp1635
ag2
(g6
S'&\t'
p1636
tp1637
Rp1638
ag2
(g6
S"'\t"
p1639
tp1640
Rp1641
ag2
(g6
S'(\t'
p1642
tp1643
Rp1644
ag2
(g6
S')\t'
p1645
tp1646
Rp1647
ag2
(g6
S'*\t'
p1648
tp1649
Rp1650
ag2
(g6
S'0\t'
p1651
tp1652
Rp1653
ag2
(g6
S'1\t'
p1654
tp1655
Rp1656
ag2
(g6
S'2\t'
p1657
tp1658
Rp1659
ag2
(g6
S'3\t'
p1660
tp1661
Rp1662
ag2
(g6
S'4\t'
p1663
tp1664
Rp1665
ag2
(g6
S'5\t'
p1666
tp1667
Rp1668
ag2
(g6
S'6\t'
p1669
tp1670
Rp1671
ag2
(g6
S'7\t'
p1672
tp1673
Rp1674
ag2
(g6
S'=\t'
p1675
tp1676
Rp1677
ag2
(g6
S'>\t'
p1678
tp1679
Rp1680
ag2
(g6
S'?\t'
p1681
tp1682
Rp1683
ag2
(g6
S'@\t'
p1684
tp1685
Rp1686
ag2
(g6
S'A\t'
p1687
tp1688
Rp1689
ag2
(g6
S'B\t'
p1690
tp1691
Rp1692
ag2
(g6
S'C\t'
p1693
tp1694
Rp1695
ag2
(g6
S'D\t'
p1696
tp1697
Rp1698
ag2
(g6
S'J\t'
p1699
tp1700
Rp1701
ag2
(g6
S'K\t'
p1702
tp1703
Rp1704
ag2
(g6
S'L\t'
p1705
tp1706
Rp1707
ag2
(g6
S'M\t'
p1708
tp1709
Rp1710
ag2
(g6
S'N\t'
p1711
tp1712
Rp1713
ag2
(g6
S'O\t'
p1714
tp1715
Rp1716
ag2
(g6
S'P\t'
p1717
tp1718
Rp1719
ag2
(g6
S'Q\t'
p1720
tp1721
Rp1722
ag2
(g6
S'Y\t'
p1723
tp1724
Rp1725
ag2
(g6
S'Z\t'
p1726
tp1727
Rp1728
ag2
(g6
S'[\t'
p1729
tp1730
Rp1731
ag2
(g6
S'\\\t'
p1732
tp1733
Rp1734
ag2
(g6
S']\t'
p1735
tp1736
Rp1737
ag2
(g6
S'^\t'
p1738
tp1739
Rp1740
ag2
(g6
S'_\t'
p1741
tp1742
Rp1743
ag2
(g6
S'`\t'
p1744
tp1745
Rp1746
ag2
(g6
S'h\t'
p1747
tp1748
Rp1749
ag2
(g6
S'i\t'
p1750
tp1751
Rp1752
ag2
(g6
S'j\t'
p1753
tp1754
Rp1755
ag2
(g6
S'k\t'
p1756
tp1757
Rp1758
ag2
(g6
S'A\x0b'
p1759
tp1760
Rp1761
ag2
(g6
S'D\x0b'
p1762
tp1763
Rp1764
ag2
(g6
S'E\x0b'
p1765
tp1766
Rp1767
ag2
(g6
S'F\x0b'
p1768
tp1769
Rp1770
ag2
(g6
S'K\x0b'
p1771
tp1772
Rp1773
ag2
(g6
S'L\x0b'
p1774
tp1775
Rp1776
ag2
(g6
S'M\x0b'
p1777
tp1778
Rp1779
ag2
(g6
S'N\x0b'
p1780
tp1781
Rp1782
ag2
(g6
S'O\x0b'
p1783
tp1784
Rp1785
ag2
(g6
S'U\x0b'
p1786
tp1787
Rp1788
ag2
(g6
S'V\x0b'
p1789
tp1790
Rp1791
ag2
(g6
S'W\x0b'
p1792
tp1793
Rp1794
ag2
(g6
S'X\x0b'
p1795
tp1796
Rp1797
ag2
(g6
S'Y\x0b'
p1798
tp1799
Rp1800
ag2
(g6
S'Z\x0b'
p1801
tp1802
Rp1803
ag2
(g6
S'a\x0b'
p1804
tp1805
Rp1806
ag2
(g6
S'b\x0b'
p1807
tp1808
Rp1809
ag2
(g6
S'c\x0b'
p1810
tp1811
Rp1812
ag2
(g6
S'd\x0b'
p1813
tp1814
Rp1815
ag2
(g6
S'e\x0b'
p1816
tp1817
Rp1818
ag2
(g6
S'f\x0b'
p1819
tp1820
Rp1821
ag2
(g6
S'g\x0b'
p1822
tp1823
Rp1824
ag2
(g6
S'n\x0b'
p1825
tp1826
Rp1827
ag2
(g6
S'o\x0b'
p1828
tp1829
Rp1830
ag2
(g6
S'p\x0b'
p1831
tp1832
Rp1833
ag2
(g6
S'q\x0b'
p1834
tp1835
Rp1836
ag2
(g6
S'r\x0b'
p1837
tp1838
Rp1839
ag2
(g6
S's\x0b'
p1840
tp1841
Rp1842
ag2
(g6
S'z\x0b'
p1843
tp1844
Rp1845
ag2
(g6
S'{\x0b'
p1846
tp1847
Rp1848
ag2
(g6
S'|\x0b'
p1849
tp1850
Rp1851
ag2
(g6
S'}\x0b'
p1852
tp1853
Rp1854
ag2
(g6
S'~\x0b'
p1855
tp1856
Rp1857
ag2
(g6
S'\x7f\x0b'
p1858
tp1859
Rp1860
ag2
(g6
S'\x86\x0b'
p1861
tp1862
Rp1863
ag2
(g6
S'\x87\x0b'
p1864
tp1865
Rp1866
ag2
(g6
S'\x88\x0b'
p1867
tp1868
Rp1869
ag2
(g6
S'\x89\x0b'
p1870
tp1871
Rp1872
ag2
(g6
S'\x8a\x0b'
p1873
tp1874
Rp1875
ag2
(g6
S'\x8b\x0b'
p1876
tp1877
Rp1878
ag2
(g6
S'\x8c\x0b'
p1879
tp1880
Rp1881
ag2
(g6
S'\x93\x0b'
p1882
tp1883
Rp1884
ag2
(g6
S'\x94\x0b'
p1885
tp1886
Rp1887
ag2
(g6
S'\x95\x0b'
p1888
tp1889
Rp1890
ag2
(g6
S'\x96\x0b'
p1891
tp1892
Rp1893
ag2
(g6
S'\x97\x0b'
p1894
tp1895
Rp1896
ag2
(g6
S'\x98\x0b'
p1897
tp1898
Rp1899
ag2
(g6
S'\x99\x0b'
p1900
tp1901
Rp1902
ag2
(g6
S'\x9a\x0b'
p1903
tp1904
Rp1905
ag2
(g6
S'\xa1\x0b'
p1906
tp1907
Rp1908
ag2
(g6
S'\xa2\x0b'
p1909
tp1910
Rp1911
ag2
(g6
S'\xa3\x0b'
p1912
tp1913
Rp1914
ag2
(g6
S'\xa4\x0b'
p1915
tp1916
Rp1917
ag2
(g6
S'\xa5\x0b'
p1918
tp1919
Rp1920
ag2
(g6
S'\xa6\x0b'
p1921
tp1922
Rp1923
ag2
(g6
S'\xa7\x0b'
p1924
tp1925
Rp1926
ag2
(g6
S'\xa8\x0b'
p1927
tp1928
Rp1929
ag2
(g6
S'\xa9\x0b'
p1930
tp1931
Rp1932
ag2
(g6
S'\xb1\x0b'
p1933
tp1934
Rp1935
ag2
(g6
S'\xb2\x0b'
p1936
tp1937
Rp1938
ag2
(g6
S'\xb3\x0b'
p1939
tp1940
Rp1941
ag2
(g6
S'\xb4\x0b'
p1942
tp1943
Rp1944
ag2
(g6
S'\xb5\x0b'
p1945
tp1946
Rp1947
ag2
(g6
S'\xb6\x0b'
p1948
tp1949
Rp1950
ag2
(g6
S'\xb7\x0b'
p1951
tp1952
Rp1953
ag2
(g6
S'\xb8\x0b'
p1954
tp1955
Rp1956
ag2
(g6
S'\xb9\x0b'
p1957
tp1958
Rp1959
ag2
(g6
S'o\r'
p1960
tp1961
Rp1962
ag2
(g6
S'p\r'
p1963
tp1964
Rp1965
ag2
(g6
S'q\r'
p1966
tp1967
Rp1968
ag2
(g6
S'u\r'
p1969
tp1970
Rp1971
ag2
(g6
S'v\r'
p1972
tp1973
Rp1974
ag2
(g6
S'w\r'
p1975
tp1976
Rp1977
ag2
(g6
S'x\r'
p1978
tp1979
Rp1980
ag2
(g6
S'~\r'
p1981
tp1982
Rp1983
ag2
(g6
S'\x7f\r'
p1984
tp1985
Rp1986
ag2
(g6
S'\x80\r'
p1987
tp1988
Rp1989
ag2
(g6
S'\x81\r'
p1990
tp1991
Rp1992
ag2
(g6
S'\x82\r'
p1993
tp1994
Rp1995
ag2
(g6
S'\x83\r'
p1996
tp1997
Rp1998
ag2
(g6
S'\x89\r'
p1999
tp2000
Rp2001
ag2
(g6
S'\x8a\r'
p2002
tp2003
Rp2004
ag2
(g6
S'\x8b\r'
p2005
tp2006
Rp2007
ag2
(g6
S'\x8c\r'
p2008
tp2009
Rp2010
ag2
(g6
S'\x8d\r'
p2011
tp2012
Rp2013
ag2
(g6
S'\x8e\r'
p2014
tp2015
Rp2016
ag2
(g6
S'\x94\r'
p2017
tp2018
Rp2019
ag2
(g6
S'\x95\r'
p2020
tp2021
Rp2022
ag2
(g6
S'\x96\r'
p2023
tp2024
Rp2025
ag2
(g6
S'\x97\r'
p2026
tp2027
Rp2028
ag2
(g6
S'\x98\r'
p2029
tp2030
Rp2031
ag2
(g6
S'\x99\r'
p2032
tp2033
Rp2034
ag2
(g6
S'\x9f\r'
p2035
tp2036
Rp2037
ag2
(g6
S'\xa0\r'
p2038
tp2039
Rp2040
ag2
(g6
S'\xa1\r'
p2041
tp2042
Rp2043
ag2
(g6
S'\xa2\r'
p2044
tp2045
Rp2046
ag2
(g6
S'\xa3\r'
p2047
tp2048
Rp2049
ag2
(g6
S'\xa4\r'
p2050
tp2051
Rp2052
ag2
(g6
S'\xa9\r'
p2053
tp2054
Rp2055
ag2
(g6
S'\xaa\r'
p2056
tp2057
Rp2058
ag2
(g6
S'\xab\r'
p2059
tp2060
Rp2061
ag2
(g6
S'\xac\r'
p2062
tp2063
Rp2064
ag2
(g6
S'\xad\r'
p2065
tp2066
Rp2067
ag2
(g6
S'\xae\r'
p2068
tp2069
Rp2070
ag2
(g6
S'\xaf\r'
p2071
tp2072
Rp2073
ag2
(g6
S'\xb5\r'
p2074
tp2075
Rp2076
ag2
(g6
S'\xb6\r'
p2077
tp2078
Rp2079
ag2
(g6
S'\xb7\r'
p2080
tp2081
Rp2082
ag2
(g6
S'\xb8\r'
p2083
tp2084
Rp2085
ag2
(g6
S'\xb9\r'
p2086
tp2087
Rp2088
ag2
(g6
S'\xba\r'
p2089
tp2090
Rp2091
ag2
(g6
S'\xbb\r'
p2092
tp2093
Rp2094
ag2
(g6
S'\xc3\r'
p2095
tp2096
Rp2097
ag2
(g6
S'\xc4\r'
p2098
tp2099
Rp2100
ag2
(g6
S'\xc5\r'
p2101
tp2102
Rp2103
ag2
(g6
S'\xc6\r'
p2104
tp2105
Rp2106
ag2
(g6
S'\xc7\r'
p2107
tp2108
Rp2109
ag2
(g6
S'\xc8\r'
p2110
tp2111
Rp2112
ag2
(g6
S'\xc9\r'
p2113
tp2114
Rp2115
ag2
(g6
S'\xca\r'
p2116
tp2117
Rp2118
ag2
(g6
S'\xd2\r'
p2119
tp2120
Rp2121
ag2
(g6
S'\xd3\r'
p2122
tp2123
Rp2124
ag2
(g6
S'\xd4\r'
p2125
tp2126
Rp2127
ag2
(g6
S'\xd5\r'
p2128
tp2129
Rp2130
ag2
(g6
S'\xc7\x0f'
p2131
tp2132
Rp2133
ag2
(g6
S'\xc8\x0f'
p2134
tp2135
Rp2136
ag2
(g6
S'\xc9\x0f'
p2137
tp2138
Rp2139
ag2
(g6
S'\xca\x0f'
p2140
tp2141
Rp2142
ag2
(g6
S'\xcd\x0f'
p2143
tp2144
Rp2145
ag2
(g6
S'\xce\x0f'
p2146
tp2147
Rp2148
ag2
(g6
S'\xcf\x0f'
p2149
tp2150
Rp2151
ag2
(g6
S'\xd0\x0f'
p2152
tp2153
Rp2154
ag2
(g6
S'\xd4\x0f'
p2155
tp2156
Rp2157
ag2
(g6
S'\xd5\x0f'
p2158
tp2159
Rp2160
ag2
(g6
S'\xd6\x0f'
p2161
tp2162
Rp2163
ag2
(g6
S'\xd7\x0f'
p2164
tp2165
Rp2166
ag2
(g6
S'\xdd\x0f'
p2167
tp2168
Rp2169
ag2
(g6
S'\xde\x0f'
p2170
tp2171
Rp2172
ag2
(g6
S'\xdf\x0f'
p2173
tp2174
Rp2175
ag2
(g6
S'\xe0\x0f'
p2176
tp2177
Rp2178
ag2
(g6
S'\xe1\x0f'
p2179
tp2180
Rp2181
ag2
(g6
S'\xe9\x0f'
p2182
tp2183
Rp2184
ag2
(g6
S'\xea\x0f'
p2185
tp2186
Rp2187
ag2
(g6
S'\xeb\x0f'
p2188
tp2189
Rp2190
ag2
(g6
S'\xec\x0f'
p2191
tp2192
Rp2193
ag2
(g6
S'\xed\x0f'
p2194
tp2195
Rp2196
ag2
(g6
S'\xee\x0f'
p2197
tp2198
Rp2199
ag2
(g6
S'\xf5\x0f'
p2200
tp2201
Rp2202
ag2
(g6
S'\xf6\x0f'
p2203
tp2204
Rp2205
ag2
(g6
S'\xf7\x0f'
p2206
tp2207
Rp2208
ag2
(g6
S'\xf8\x0f'
p2209
tp2210
Rp2211
ag2
(g6
S'\xf9\x0f'
p2212
tp2213
Rp2214
ag2
(g6
S'\xfa\x0f'
p2215
tp2216
Rp2217
ag2
(g6
S'\x01\x10'
p2218
tp2219
Rp2220
ag2
(g6
S'\x02\x10'
p2221
tp2222
Rp2223
ag2
(g6
S'\x03\x10'
p2224
tp2225
Rp2226
ag2
(g6
S'\x04\x10'
p2227
tp2228
Rp2229
ag2
(g6
S'\x05\x10'
p2230
tp2231
Rp2232
ag2
(g6
S'\x06\x10'
p2233
tp2234
Rp2235
ag2
(g6
S'\x07\x10'
p2236
tp2237
Rp2238
ag2
(g6
S'\x08\x10'
p2239
tp2240
Rp2241
ag2
(g6
S'\x0f\x10'
p2242
tp2243
Rp2244
ag2
(g6
S'\x10\x10'
p2245
tp2246
Rp2247
ag2
(g6
S'\x11\x10'
p2248
tp2249
Rp2250
ag2
(g6
S'\x12\x10'
p2251
tp2252
Rp2253
ag2
(g6
S'\x13\x10'
p2254
tp2255
Rp2256
ag2
(g6
S'\x14\x10'
p2257
tp2258
Rp2259
ag2
(g6
S'\x15\x10'
p2260
tp2261
Rp2262
ag2
(g6
S'\x1c\x10'
p2263
tp2264
Rp2265
ag2
(g6
S'\x1d\x10'
p2266
tp2267
Rp2268
ag2
(g6
S'\x1e\x10'
p2269
tp2270
Rp2271
ag2
(g6
S'\x1f\x10'
p2272
tp2273
Rp2274
ag2
(g6
S' \x10'
p2275
tp2276
Rp2277
ag2
(g6
S'!\x10'
p2278
tp2279
Rp2280
ag2
(g6
S'"\x10'
p2281
tp2282
Rp2283
aa(lp2284
g2
(g6
S'\x16\x00'
p2285
tp2286
Rp2287
ag2
(g6
S'\x17\x00'
p2288
tp2289
Rp2290
ag2
(g6
S'\x18\x00'
p2291
tp2292
Rp2293
ag2
(g6
S'"\x00'
p2294
tp2295
Rp2296
ag2
(g6
S'#\x00'
p2297
tp2298
Rp2299
ag2
(g6
S'$\x00'
p2300
tp2301
Rp2302
ag2
(g6
S'/\x00'
p2303
tp2304
Rp2305
ag2
(g6
S'0\x00'
p2306
tp2307
Rp2308
ag2
(g6
S'1\x00'
p2309
tp2310
Rp2311
ag2
(g6
S'2\x00'
p2312
tp2313
Rp2314
ag2
(g6
S'>\x00'
p2315
tp2316
Rp2317
ag2
(g6
S'?\x00'
p2318
tp2319
Rp2320
ag2
(g6
S'@\x00'
p2321
tp2322
Rp2323
ag2
(g6
S'T\x00'
p2324
tp2325
Rp2326
ag2
(g6
S'U\x00'
p2327
tp2328
Rp2329
ag2
(g6
S'V\x00'
p2330
tp2331
Rp2332
ag2
(g6
S'k\x00'
p2333
tp2334
Rp2335
ag2
(g6
S'l\x00'
p2336
tp2337
Rp2338
ag2
(g6
S'm\x00'
p2339
tp2340
Rp2341
ag2
(g6
S'\xfa\x01'
p2342
tp2343
Rp2344
ag2
(g6
S'\x07\x02'
p2345
tp2346
Rp2347
ag2
(g6
S'\x08\x02'
p2348
tp2349
Rp2350
ag2
(g6
S'\t\x02'
p2351
tp2352
Rp2353
ag2
(g6
S'\n\x02'
p2354
tp2355
Rp2356
ag2
(g6
S'\x0b\x02'
p2357
tp2358
Rp2359
ag2
(g6
S'\x17\x02'
p2360
tp2361
Rp2362
ag2
(g6
S'\x18\x02'
p2363
tp2364
Rp2365
ag2
(g6
S'\x19\x02'
p2366
tp2367
Rp2368
ag2
(g6
S'\x1a\x02'
p2369
tp2370
Rp2371
ag2
(g6
S'\x1b\x02'
p2372
tp2373
Rp2374
ag2
(g6
S'\x1c\x02'
p2375
tp2376
Rp2377
ag2
(g6
S'(\x02'
p2378
tp2379
Rp2380
ag2
(g6
S')\x02'
p2381
tp2382
Rp2383
ag2
(g6
S'*\x02'
p2384
tp2385
Rp2386
ag2
(g6
S'+\x02'
p2387
tp2388
Rp2389
ag2
(g6
S',\x02'
p2390
tp2391
Rp2392
ag2
(g6
S'-\x02'
p2393
tp2394
Rp2395
ag2
(g6
S'@\x02'
p2396
tp2397
Rp2398
ag2
(g6
S'A\x02'
p2399
tp2400
Rp2401
ag2
(g6
S'B\x02'
p2402
tp2403
Rp2404
ag2
(g6
S'C\x02'
p2405
tp2406
Rp2407
ag2
(g6
S'D\x02'
p2408
tp2409
Rp2410
ag2
(g6
S'E\x02'
p2411
tp2412
Rp2413
ag2
(g6
S'[\x02'
p2414
tp2415
Rp2416
ag2
(g6
S'\\\x02'
p2417
tp2418
Rp2419
ag2
(g6
S']\x02'
p2420
tp2421
Rp2422
ag2
(g6
S'^\x02'
p2423
tp2424
Rp2425
ag2
(g6
S'_\x02'
p2426
tp2427
Rp2428
ag2
(g6
S'`\x02'
p2429
tp2430
Rp2431
ag2
(g6
S'P\x04'
p2432
tp2433
Rp2434
ag2
(g6
S'Q\x04'
p2435
tp2436
Rp2437
ag2
(g6
S'R\x04'
p2438
tp2439
Rp2440
ag2
(g6
S'S\x04'
p2441
tp2442
Rp2443
ag2
(g6
S'T\x04'
p2444
tp2445
Rp2446
ag2
(g6
S'a\x04'
p2447
tp2448
Rp2449
ag2
(g6
S'b\x04'
p2450
tp2451
Rp2452
ag2
(g6
S'c\x04'
p2453
tp2454
Rp2455
ag2
(g6
S'd\x04'
p2456
tp2457
Rp2458
ag2
(g6
S'e\x04'
p2459
tp2460
Rp2461
ag2
(g6
S'f\x04'
p2462
tp2463
Rp2464
ag2
(g6
S'g\x04'
p2465
tp2466
Rp2467
ag2
(g6
S'u\x04'
p2468
tp2469
Rp2470
ag2
(g6
S'v\x04'
p2471
tp2472
Rp2473
ag2
(g6
S'w\x04'
p2474
tp2475
Rp2476
ag2
(g6
S'x\x04'
p2477
tp2478
Rp2479
ag2
(g6
S'y\x04'
p2480
tp2481
Rp2482
ag2
(g6
S'z\x04'
p2483
tp2484
Rp2485
ag2
(g6
S'\x90\x04'
p2486
tp2487
Rp2488
ag2
(g6
S'\x91\x04'
p2489
tp2490
Rp2491
ag2
(g6
S'\x92\x04'
p2492
tp2493
Rp2494
ag2
(g6
S'\x93\x04'
p2495
tp2496
Rp2497
ag2
(g6
S'\x94\x04'
p2498
tp2499
Rp2500
ag2
(g6
S'\xad\x04'
p2501
tp2502
Rp2503
ag2
(g6
S'\xae\x04'
p2504
tp2505
Rp2506
ag2
(g6
S'\xaf\x04'
p2507
tp2508
Rp2509
ag2
(g6
S'\xfe\x06'
p2510
tp2511
Rp2512
ag2
(g6
S'\xff\x06'
p2513
tp2514
Rp2515
ag2
(g6
S'\x00\x07'
p2516
tp2517
Rp2518
ag2
(g6
S'\x01\x07'
p2519
tp2520
Rp2521
ag2
(g6
S'\x02\x07'
p2522
tp2523
Rp2524
ag2
(g6
S'\x03\x07'
p2525
tp2526
Rp2527
ag2
(g6
S'\x0f\x07'
p2528
tp2529
Rp2530
ag2
(g6
S'\x10\x07'
p2531
tp2532
Rp2533
ag2
(g6
S'\x11\x07'
p2534
tp2535
Rp2536
ag2
(g6
S'\x12\x07'
p2537
tp2538
Rp2539
ag2
(g6
S'\x13\x07'
p2540
tp2541
Rp2542
ag2
(g6
S'\x14\x07'
p2543
tp2544
Rp2545
ag2
(g6
S'\x15\x07'
p2546
tp2547
Rp2548
ag2
(g6
S' \x07'
p2549
tp2550
Rp2551
ag2
(g6
S'!\x07'
p2552
tp2553
Rp2554
ag2
(g6
S'"\x07'
p2555
tp2556
Rp2557
ag2
(g6
S'#\x07'
p2558
tp2559
Rp2560
ag2
(g6
S'$\x07'
p2561
tp2562
Rp2563
ag2
(g6
S'%\x07'
p2564
tp2565
Rp2566
ag2
(g6
S'&\x07'
p2567
tp2568
Rp2569
ag2
(g6
S"'\x07"
p2570
tp2571
Rp2572
ag2
(g6
S'-\x07'
p2573
tp2574
Rp2575
ag2
(g6
S'.\x07'
p2576
tp2577
Rp2578
ag2
(g6
S'/\x07'
p2579
tp2580
Rp2581
ag2
(g6
S'0\x07'
p2582
tp2583
Rp2584
ag2
(g6
S'1\x07'
p2585
tp2586
Rp2587
ag2
(g6
S'2\x07'
p2588
tp2589
Rp2590
ag2
(g6
S';\x07'
p2591
tp2592
Rp2593
ag2
(g6
S'<\x07'
p2594
tp2595
Rp2596
ag2
(g6
S'=\x07'
p2597
tp2598
Rp2599
ag2
(g6
S'>\x07'
p2600
tp2601
Rp2602
ag2
(g6
S'?\x07'
p2603
tp2604
Rp2605
ag2
(g6
S'L\x07'
p2606
tp2607
Rp2608
ag2
(g6
S'M\x07'
p2609
tp2610
Rp2611
aa(lp2612
g2
(g6
S'l\t'
p2613
tp2614
Rp2615
ag2
(g6
S'm\t'
p2616
tp2617
Rp2618
ag2
(g6
S'n\t'
p2619
tp2620
Rp2621
ag2
(g6
S'o\t'
p2622
tp2623
Rp2624
ag2
(g6
S'w\t'
p2625
tp2626
Rp2627
ag2
(g6
S'x\t'
p2628
tp2629
Rp2630
ag2
(g6
S'y\t'
p2631
tp2632
Rp2633
ag2
(g6
S'z\t'
p2634
tp2635
Rp2636
ag2
(g6
S'{\t'
p2637
tp2638
Rp2639
ag2
(g6
S'\x80\t'
p2640
tp2641
Rp2642
ag2
(g6
S'\x81\t'
p2643
tp2644
Rp2645
ag2
(g6
S'\x82\t'
p2646
tp2647
Rp2648
ag2
(g6
S'\x83\t'
p2649
tp2650
Rp2651
ag2
(g6
S'\x84\t'
p2652
tp2653
Rp2654
ag2
(g6
S'\x85\t'
p2655
tp2656
Rp2657
ag2
(g6
S'\x8b\t'
p2658
tp2659
Rp2660
ag2
(g6
S'\x8c\t'
p2661
tp2662
Rp2663
ag2
(g6
S'\x8d\t'
p2664
tp2665
Rp2666
ag2
(g6
S'\x8e\t'
p2667
tp2668
Rp2669
ag2
(g6
S'\x8f\t'
p2670
tp2671
Rp2672
ag2
(g6
S'\x90\t'
p2673
tp2674
Rp2675
ag2
(g6
S'\x91\t'
p2676
tp2677
Rp2678
ag2
(g6
S'\x97\t'
p2679
tp2680
Rp2681
ag2
(g6
S'\x98\t'
p2682
tp2683
Rp2684
ag2
(g6
S'\x99\t'
p2685
tp2686
Rp2687
ag2
(g6
S'\x9a\t'
p2688
tp2689
Rp2690
ag2
(g6
S'\x9b\t'
p2691
tp2692
Rp2693
ag2
(g6
S'\x9c\t'
p2694
tp2695
Rp2696
ag2
(g6
S'\x9d\t'
p2697
tp2698
Rp2699
ag2
(g6
S'\xa3\t'
p2700
tp2701
Rp2702
ag2
(g6
S'\xa4\t'
p2703
tp2704
Rp2705
ag2
(g6
S'\xa5\t'
p2706
tp2707
Rp2708
ag2
(g6
S'\xa6\t'
p2709
tp2710
Rp2711
ag2
(g6
S'\xa7\t'
p2712
tp2713
Rp2714
ag2
(g6
S'\xa8\t'
p2715
tp2716
Rp2717
ag2
(g6
S'\xa9\t'
p2718
tp2719
Rp2720
ag2
(g6
S'\xb0\t'
p2721
tp2722
Rp2723
ag2
(g6
S'\xb1\t'
p2724
tp2725
Rp2726
ag2
(g6
S'\xb2\t'
p2727
tp2728
Rp2729
ag2
(g6
S'\xb3\t'
p2730
tp2731
Rp2732
ag2
(g6
S'\xb4\t'
p2733
tp2734
Rp2735
ag2
(g6
S'\xb5\t'
p2736
tp2737
Rp2738
ag2
(g6
S'\xb6\t'
p2739
tp2740
Rp2741
ag2
(g6
S'\xbd\t'
p2742
tp2743
Rp2744
ag2
(g6
S'\xbe\t'
p2745
tp2746
Rp2747
ag2
(g6
S'\xbf\t'
p2748
tp2749
Rp2750
ag2
(g6
S'\xc0\t'
p2751
tp2752
Rp2753
ag2
(g6
S'\xc1\t'
p2754
tp2755
Rp2756
ag2
(g6
S'\xc2\t'
p2757
tp2758
Rp2759
ag2
(g6
S'\xc3\t'
p2760
tp2761
Rp2762
ag2
(g6
S'\xc7\t'
p2763
tp2764
Rp2765
ag2
(g6
S'\xc8\t'
p2766
tp2767
Rp2768
ag2
(g6
S'\xc9\t'
p2769
tp2770
Rp2771
ag2
(g6
S'\xca\t'
p2772
tp2773
Rp2774
ag2
(g6
S'\xcb\t'
p2775
tp2776
Rp2777
ag2
(g6
S'\xcc\t'
p2778
tp2779
Rp2780
ag2
(g6
S'\xd1\t'
p2781
tp2782
Rp2783
ag2
(g6
S'\xd2\t'
p2784
tp2785
Rp2786
ag2
(g6
S'\xd3\t'
p2787
tp2788
Rp2789
ag2
(g6
S'\xd4\t'
p2790
tp2791
Rp2792
ag2
(g6
S'\xc1\x0b'
p2793
tp2794
Rp2795
ag2
(g6
S'\xc2\x0b'
p2796
tp2797
Rp2798
ag2
(g6
S'\xc3\x0b'
p2799
tp2800
Rp2801
ag2
(g6
S'\xcb\x0b'
p2802
tp2803
Rp2804
ag2
(g6
S'\xcc\x0b'
p2805
tp2806
Rp2807
ag2
(g6
S'\xcd\x0b'
p2808
tp2809
Rp2810
ag2
(g6
S'\xce\x0b'
p2811
tp2812
Rp2813
ag2
(g6
S'\xcf\x0b'
p2814
tp2815
Rp2816
ag2
(g6
S'\xd6\x0b'
p2817
tp2818
Rp2819
ag2
(g6
S'\xd7\x0b'
p2820
tp2821
Rp2822
ag2
(g6
S'\xd8\x0b'
p2823
tp2824
Rp2825
ag2
(g6
S'\xd9\x0b'
p2826
tp2827
Rp2828
ag2
(g6
S'\xda\x0b'
p2829
tp2830
Rp2831
ag2
(g6
S'\xdb\x0b'
p2832
tp2833
Rp2834
ag2
(g6
S'\xe1\x0b'
p2835
tp2836
Rp2837
ag2
(g6
S'\xe2\x0b'
p2838
tp2839
Rp2840
ag2
(g6
S'\xe3\x0b'
p2841
tp2842
Rp2843
ag2
(g6
S'\xe4\x0b'
p2844
tp2845
Rp2846
ag2
(g6
S'\xe5\x0b'
p2847
tp2848
Rp2849
ag2
(g6
S'\xe6\x0b'
p2850
tp2851
Rp2852
ag2
(g6
S'\xe7\x0b'
p2853
tp2854
Rp2855
ag2
(g6
S'\xed\x0b'
p2856
tp2857
Rp2858
ag2
(g6
S'\xee\x0b'
p2859
tp2860
Rp2861
ag2
(g6
S'\xef\x0b'
p2862
tp2863
Rp2864
ag2
(g6
S'\xf0\x0b'
p2865
tp2866
Rp2867
ag2
(g6
S'\xf1\x0b'
p2868
tp2869
Rp2870
ag2
(g6
S'\xf2\x0b'
p2871
tp2872
Rp2873
ag2
(g6
S'\xf3\x0b'
p2874
tp2875
Rp2876
ag2
(g6
S'\xf4\x0b'
p2877
tp2878
Rp2879
ag2
(g6
S'\xfb\x0b'
p2880
tp2881
Rp2882
ag2
(g6
S'\xfc\x0b'
p2883
tp2884
Rp2885
ag2
(g6
S'\xfd\x0b'
p2886
tp2887
Rp2888
ag2
(g6
S'\xfe\x0b'
p2889
tp2890
Rp2891
ag2
(g6
S'\xff\x0b'
p2892
tp2893
Rp2894
ag2
(g6
S'\x00\x0c'
p2895
tp2896
Rp2897
ag2
(g6
S'\x01\x0c'
p2898
tp2899
Rp2900
ag2
(g6
S'\x02\x0c'
p2901
tp2902
Rp2903
ag2
(g6
S'\x08\x0c'
p2904
tp2905
Rp2906
ag2
(g6
S'\t\x0c'
p2907
tp2908
Rp2909
ag2
(g6
S'\n\x0c'
p2910
tp2911
Rp2912
ag2
(g6
S'\x0b\x0c'
p2913
tp2914
Rp2915
ag2
(g6
S'\x0c\x0c'
p2916
tp2917
Rp2918
ag2
(g6
S'\r\x0c'
p2919
tp2920
Rp2921
ag2
(g6
S'\x0e\x0c'
p2922
tp2923
Rp2924
ag2
(g6
S'\x14\x0c'
p2925
tp2926
Rp2927
ag2
(g6
S'\x15\x0c'
p2928
tp2929
Rp2930
ag2
(g6
S'\x16\x0c'
p2931
tp2932
Rp2933
ag2
(g6
S'\x17\x0c'
p2934
tp2935
Rp2936
ag2
(g6
S'\x18\x0c'
p2937
tp2938
Rp2939
ag2
(g6
S'\x19\x0c'
p2940
tp2941
Rp2942
ag2
(g6
S'\x1a\x0c'
p2943
tp2944
Rp2945
ag2
(g6
S'\x1f\x0c'
p2946
tp2947
Rp2948
ag2
(g6
S'\xd6\r'
p2949
tp2950
Rp2951
ag2
(g6
S'\xd7\r'
p2952
tp2953
Rp2954
ag2
(g6
S'\xd8\r'
p2955
tp2956
Rp2957
ag2
(g6
S'\xd9\r'
p2958
tp2959
Rp2960
ag2
(g6
S'\xe2\r'
p2961
tp2962
Rp2963
ag2
(g6
S'\xe3\r'
p2964
tp2965
Rp2966
ag2
(g6
S'\xe4\r'
p2967
tp2968
Rp2969
ag2
(g6
S'\xe5\r'
p2970
tp2971
Rp2972
ag2
(g6
S'\xe6\r'
p2973
tp2974
Rp2975
ag2
(g6
S'\xe7\r'
p2976
tp2977
Rp2978
ag2
(g6
S'\xe8\r'
p2979
tp2980
Rp2981
ag2
(g6
S'\xe9\r'
p2982
tp2983
Rp2984
ag2
(g6
S'\xf1\r'
p2985
tp2986
Rp2987
ag2
(g6
S'\xf2\r'
p2988
tp2989
Rp2990
ag2
(g6
S'\xf3\r'
p2991
tp2992
Rp2993
ag2
(g6
S'\xf4\r'
p2994
tp2995
Rp2996
ag2
(g6
S'\xf5\r'
p2997
tp2998
Rp2999
ag2
(g6
S'\xf6\r'
p3000
tp3001
Rp3002
ag2
(g6
S'\xf7\r'
p3003
tp3004
Rp3005
ag2
(g6
S'\xf8\r'
p3006
tp3007
Rp3008
ag2
(g6
S'\xff\r'
p3009
tp3010
Rp3011
ag2
(g6
S'\x00\x0e'
p3012
tp3013
Rp3014
ag2
(g6
S'\x01\x0e'
p3015
tp3016
Rp3017
ag2
(g6
S'\x02\x0e'
p3018
tp3019
Rp3020
ag2
(g6
S'\x03\x0e'
p3021
tp3022
Rp3023
ag2
(g6
S'\x04\x0e'
p3024
tp3025
Rp3026
ag2
(g6
S'\x05\x0e'
p3027
tp3028
Rp3029
ag2
(g6
S'\x06\x0e'
p3030
tp3031
Rp3032
ag2
(g6
S'\x0c\x0e'
p3033
tp3034
Rp3035
ag2
(g6
S'\r\x0e'
p3036
tp3037
Rp3038
ag2
(g6
S'\x0e\x0e'
p3039
tp3040
Rp3041
ag2
(g6
S'\x0f\x0e'
p3042
tp3043
Rp3044
ag2
(g6
S'\x10\x0e'
p3045
tp3046
Rp3047
ag2
(g6
S'\x11\x0e'
p3048
tp3049
Rp3050
ag2
(g6
S'\x12\x0e'
p3051
tp3052
Rp3053
ag2
(g6
S'\x13\x0e'
p3054
tp3055
Rp3056
ag2
(g6
S'\x18\x0e'
p3057
tp3058
Rp3059
ag2
(g6
S'\x19\x0e'
p3060
tp3061
Rp3062
ag2
(g6
S'\x1a\x0e'
p3063
tp3064
Rp3065
ag2
(g6
S'\x1b\x0e'
p3066
tp3067
Rp3068
ag2
(g6
S'\x1c\x0e'
p3069
tp3070
Rp3071
ag2
(g6
S'\x1d\x0e'
p3072
tp3073
Rp3074
ag2
(g6
S'\x1e\x0e'
p3075
tp3076
Rp3077
ag2
(g6
S'\x1f\x0e'
p3078
tp3079
Rp3080
ag2
(g6
S' \x0e'
p3081
tp3082
Rp3083
ag2
(g6
S'%\x0e'
p3084
tp3085
Rp3086
ag2
(g6
S'&\x0e'
p3087
tp3088
Rp3089
ag2
(g6
S"'\x0e"
p3090
tp3091
Rp3092
ag2
(g6
S'(\x0e'
p3093
tp3094
Rp3095
ag2
(g6
S')\x0e'
p3096
tp3097
Rp3098
ag2
(g6
S'*\x0e'
p3099
tp3100
Rp3101
ag2
(g6
S'+\x0e'
p3102
tp3103
Rp3104
ag2
(g6
S',\x0e'
p3105
tp3106
Rp3107
ag2
(g6
S'-\x0e'
p3108
tp3109
Rp3110
ag2
(g6
S'2\x0e'
p3111
tp3112
Rp3113
ag2
(g6
S'3\x0e'
p3114
tp3115
Rp3116
ag2
(g6
S'4\x0e'
p3117
tp3118
Rp3119
ag2
(g6
S'5\x0e'
p3120
tp3121
Rp3122
ag2
(g6
S'6\x0e'
p3123
tp3124
Rp3125
ag2
(g6
S'7\x0e'
p3126
tp3127
Rp3128
ag2
(g6
S'8\x0e'
p3129
tp3130
Rp3131
ag2
(g6
S'=\x0e'
p3132
tp3133
Rp3134
ag2
(g6
S'>\x0e'
p3135
tp3136
Rp3137
ag2
(g6
S'?\x0e'
p3138
tp3139
Rp3140
ag2
(g6
S'@\x0e'
p3141
tp3142
Rp3143
ag2
(g6
S'A\x0e'
p3144
tp3145
Rp3146
ag2
(g6
S'B\x0e'
p3147
tp3148
Rp3149
ag2
(g6
S'C\x0e'
p3150
tp3151
Rp3152
ag2
(g6
S'H\x0e'
p3153
tp3154
Rp3155
ag2
(g6
S'I\x0e'
p3156
tp3157
Rp3158
ag2
(g6
S'J\x0e'
p3159
tp3160
Rp3161
ag2
(g6
S'K\x0e'
p3162
tp3163
Rp3164
ag2
(g6
S'L\x0e'
p3165
tp3166
Rp3167
ag2
(g6
S'M\x0e'
p3168
tp3169
Rp3170
ag2
(g6
S'N\x0e'
p3171
tp3172
Rp3173
ag2
(g6
S'S\x0e'
p3174
tp3175
Rp3176
ag2
(g6
S'T\x0e'
p3177
tp3178
Rp3179
ag2
(g6
S'U\x0e'
p3180
tp3181
Rp3182
ag2
(g6
S'V\x0e'
p3183
tp3184
Rp3185
ag2
(g6
S'W\x0e'
p3186
tp3187
Rp3188
ag2
(g6
S'X\x0e'
p3189
tp3190
Rp3191
ag2
(g6
S'*\x10'
p3192
tp3193
Rp3194
ag2
(g6
S'+\x10'
p3195
tp3196
Rp3197
ag2
(g6
S',\x10'
p3198
tp3199
Rp3200
ag2
(g6
S'-\x10'
p3201
tp3202
Rp3203
ag2
(g6
S'.\x10'
p3204
tp3205
Rp3206
ag2
(g6
S'/\x10'
p3207
tp3208
Rp3209
ag2
(g6
S'0\x10'
p3210
tp3211
Rp3212
ag2
(g6
S'7\x10'
p3213
tp3214
Rp3215
ag2
(g6
S'8\x10'
p3216
tp3217
Rp3218
ag2
(g6
S'9\x10'
p3219
tp3220
Rp3221
ag2
(g6
S':\x10'
p3222
tp3223
Rp3224
ag2
(g6
S';\x10'
p3225
tp3226
Rp3227
ag2
(g6
S'<\x10'
p3228
tp3229
Rp3230
ag2
(g6
S'=\x10'
p3231
tp3232
Rp3233
ag2
(g6
S'D\x10'
p3234
tp3235
Rp3236
ag2
(g6
S'E\x10'
p3237
tp3238
Rp3239
ag2
(g6
S'F\x10'
p3240
tp3241
Rp3242
ag2
(g6
S'G\x10'
p3243
tp3244
Rp3245
ag2
(g6
S'H\x10'
p3246
tp3247
Rp3248
ag2
(g6
S'I\x10'
p3249
tp3250
Rp3251
ag2
(g6
S'J\x10'
p3252
tp3253
Rp3254
ag2
(g6
S'R\x10'
p3255
tp3256
Rp3257
ag2
(g6
S'S\x10'
p3258
tp3259
Rp3260
ag2
(g6
S'T\x10'
p3261
tp3262
Rp3263
ag2
(g6
S'U\x10'
p3264
tp3265
Rp3266
ag2
(g6
S'V\x10'
p3267
tp3268
Rp3269
ag2
(g6
S'W\x10'
p3270
tp3271
Rp3272
ag2
(g6
S'X\x10'
p3273
tp3274
Rp3275
ag2
(g6
S'`\x10'
p3276
tp3277
Rp3278
ag2
(g6
S'a\x10'
p3279
tp3280
Rp3281
ag2
(g6
S'b\x10'
p3282
tp3283
Rp3284
ag2
(g6
S'c\x10'
p3285
tp3286
Rp3287
ag2
(g6
S'd\x10'
p3288
tp3289
Rp3290
ag2
(g6
S'e\x10'
p3291
tp3292
Rp3293
ag2
(g6
S'f\x10'
p3294
tp3295
Rp3296
ag2
(g6
S'l\x10'
p3297
tp3298
Rp3299
ag2
(g6
S'm\x10'
p3300
tp3301
Rp3302
ag2
(g6
S'n\x10'
p3303
tp3304
Rp3305
ag2
(g6
S'o\x10'
p3306
tp3307
Rp3308
ag2
(g6
S'p\x10'
p3309
tp3310
Rp3311
ag2
(g6
S'q\x10'
p3312
tp3313
Rp3314
ag2
(g6
S'r\x10'
p3315
tp3316
Rp3317
ag2
(g6
S'w\x10'
p3318
tp3319
Rp3320
ag2
(g6
S'x\x10'
p3321
tp3322
Rp3323
ag2
(g6
S'y\x10'
p3324
tp3325
Rp3326
ag2
(g6
S'z\x10'
p3327
tp3328
Rp3329
ag2
(g6
S'{\x10'
p3330
tp3331
Rp3332
ag2
(g6
S'|\x10'
p3333
tp3334
Rp3335
ag2
(g6
S'}\x10'
p3336
tp3337
Rp3338
ag2
(g6
S'~\x10'
p3339
tp3340
Rp3341
ag2
(g6
S'\x7f\x10'
p3342
tp3343
Rp3344
ag2
(g6
S'\x85\x10'
p3345
tp3346
Rp3347
ag2
(g6
S'\x86\x10'
p3348
tp3349
Rp3350
ag2
(g6
S'\x87\x10'
p3351
tp3352
Rp3353
ag2
(g6
S'\x8a\x10'
p3354
tp3355
Rp3356
ag2
(g6
S'\x8b\x10'
p3357
tp3358
Rp3359
ag2
(g6
S'\x88\x10'
p3360
tp3361
Rp3362
ag2
(g6
S'\x89\x10'
p3363
tp3364
Rp3365
ag2
(g6
S'\x8c\x10'
p3366
tp3367
Rp3368
ag2
(g6
S'\x8d\x10'
p3369
tp3370
Rp3371
ag2
(g6
S'\x94\x10'
p3372
tp3373
Rp3374
ag2
(g6
S'\x95\x10'
p3375
tp3376
Rp3377
ag2
(g6
S'\x96\x10'
p3378
tp3379
Rp3380
ag2
(g6
S'\x97\x10'
p3381
tp3382
Rp3383
ag2
(g6
S'\x98\x10'
p3384
tp3385
Rp3386
ag2
(g6
S'\x99\x10'
p3387
tp3388
Rp3389
ag2
(g6
S'\x9a\x10'
p3390
tp3391
Rp3392
ag2
(g6
S'\x9b\x10'
p3393
tp3394
Rp3395
ag2
(g6
S'\x9c\x10'
p3396
tp3397
Rp3398
ag2
(g6
S'\xa2\x10'
p3399
tp3400
Rp3401
ag2
(g6
S'\xa3\x10'
p3402
tp3403
Rp3404
ag2
(g6
S'\xa4\x10'
p3405
tp3406
Rp3407
ag2
(g6
S'\xa5\x10'
p3408
tp3409
Rp3410
ag2
(g6
S'\xa6\x10'
p3411
tp3412
Rp3413
ag2
(g6
S'\xa7\x10'
p3414
tp3415
Rp3416
ag2
(g6
S'\xa8\x10'
p3417
tp3418
Rp3419
ag2
(g6
S'\xa9\x10'
p3420
tp3421
Rp3422
ag2
(g6
S'\xad\x10'
p3423
tp3424
Rp3425
ag2
(g6
S'\xae\x10'
p3426
tp3427
Rp3428
ag2
(g6
S'\xaf\x10'
p3429
tp3430
Rp3431
ag2
(g6
S'\xb0\x10'
p3432
tp3433
Rp3434
ag2
(g6
S'\xb1\x10'
p3435
tp3436
Rp3437
ag2
(g6
S'\xb2\x10'
p3438
tp3439
Rp3440
ag2
(g6
S'\xb4\x10'
p3441
tp3442
Rp3443
ag2
(g6
S'\xb5\x10'
p3444
tp3445
Rp3446
ag2
(g6
S'\xb6\x10'
p3447
tp3448
Rp3449
ag2
(g6
S'\xb7\x10'
p3450
tp3451
Rp3452
ag2
(g6
S'\xb8\x10'
p3453
tp3454
Rp3455
ag2
(g6
S'\xb9\x10'
p3456
tp3457
Rp3458
aa(lp3459
g2
(g6
S'\xf8\x00'
p3460
tp3461
Rp3462
ag2
(g6
S'\xf9\x00'
p3463
tp3464
Rp3465
ag2
(g6
S'\xfa\x00'
p3466
tp3467
Rp3468
ag2
(g6
S'\xfb\x00'
p3469
tp3470
Rp3471
ag2
(g6
S'\xfc\x00'
p3472
tp3473
Rp3474
ag2
(g6
S'\x04\x01'
p3475
tp3476
Rp3477
ag2
(g6
S'\x05\x01'
p3478
tp3479
Rp3480
ag2
(g6
S'\x06\x01'
p3481
tp3482
Rp3483
ag2
(g6
S'\x07\x01'
p3484
tp3485
Rp3486
ag2
(g6
S'\x08\x01'
p3487
tp3488
Rp3489
ag2
(g6
S'\t\x01'
p3490
tp3491
Rp3492
ag2
(g6
S'\n\x01'
p3493
tp3494
Rp3495
ag2
(g6
S'\x0b\x01'
p3496
tp3497
Rp3498
ag2
(g6
S'\x17\x01'
p3499
tp3500
Rp3501
ag2
(g6
S'\x18\x01'
p3502
tp3503
Rp3504
ag2
(g6
S'\x19\x01'
p3505
tp3506
Rp3507
ag2
(g6
S'\x1a\x01'
p3508
tp3509
Rp3510
ag2
(g6
S'\x1b\x01'
p3511
tp3512
Rp3513
ag2
(g6
S'\x1c\x01'
p3514
tp3515
Rp3516
ag2
(g6
S'\x1d\x01'
p3517
tp3518
Rp3519
ag2
(g6
S'\x1e\x01'
p3520
tp3521
Rp3522
ag2
(g6
S'*\x01'
p3523
tp3524
Rp3525
ag2
(g6
S'+\x01'
p3526
tp3527
Rp3528
ag2
(g6
S',\x01'
p3529
tp3530
Rp3531
ag2
(g6
S'-\x01'
p3532
tp3533
Rp3534
ag2
(g6
S'.\x01'
p3535
tp3536
Rp3537
ag2
(g6
S'/\x01'
p3538
tp3539
Rp3540
ag2
(g6
S'0\x01'
p3541
tp3542
Rp3543
ag2
(g6
S'1\x01'
p3544
tp3545
Rp3546
ag2
(g6
S'2\x01'
p3547
tp3548
Rp3549
ag2
(g6
S'A\x01'
p3550
tp3551
Rp3552
ag2
(g6
S'B\x01'
p3553
tp3554
Rp3555
ag2
(g6
S'C\x01'
p3556
tp3557
Rp3558
ag2
(g6
S'D\x01'
p3559
tp3560
Rp3561
ag2
(g6
S'E\x01'
p3562
tp3563
Rp3564
ag2
(g6
S'F\x01'
p3565
tp3566
Rp3567
ag2
(g6
S'\xf1\x02'
p3568
tp3569
Rp3570
ag2
(g6
S'\xf2\x02'
p3571
tp3572
Rp3573
ag2
(g6
S'\xf3\x02'
p3574
tp3575
Rp3576
ag2
(g6
S'\xf4\x02'
p3577
tp3578
Rp3579
ag2
(g6
S'\xf5\x02'
p3580
tp3581
Rp3582
ag2
(g6
S'\xf6\x02'
p3583
tp3584
Rp3585
ag2
(g6
S'\xff\x02'
p3586
tp3587
Rp3588
ag2
(g6
S'\x00\x03'
p3589
tp3590
Rp3591
ag2
(g6
S'\x01\x03'
p3592
tp3593
Rp3594
ag2
(g6
S'\x02\x03'
p3595
tp3596
Rp3597
ag2
(g6
S'\x03\x03'
p3598
tp3599
Rp3600
ag2
(g6
S'\x04\x03'
p3601
tp3602
Rp3603
ag2
(g6
S'\x05\x03'
p3604
tp3605
Rp3606
ag2
(g6
S'\x06\x03'
p3607
tp3608
Rp3609
ag2
(g6
S'\x07\x03'
p3610
tp3611
Rp3612
ag2
(g6
S'\x08\x03'
p3613
tp3614
Rp3615
ag2
(g6
S'\x13\x03'
p3616
tp3617
Rp3618
ag2
(g6
S'\x14\x03'
p3619
tp3620
Rp3621
ag2
(g6
S'\x15\x03'
p3622
tp3623
Rp3624
ag2
(g6
S'\x16\x03'
p3625
tp3626
Rp3627
ag2
(g6
S'\x17\x03'
p3628
tp3629
Rp3630
ag2
(g6
S'\x18\x03'
p3631
tp3632
Rp3633
ag2
(g6
S'\x19\x03'
p3634
tp3635
Rp3636
ag2
(g6
S'\x1a\x03'
p3637
tp3638
Rp3639
ag2
(g6
S'\x1b\x03'
p3640
tp3641
Rp3642
ag2
(g6
S'\x1c\x03'
p3643
tp3644
Rp3645
ag2
(g6
S'\x1d\x03'
p3646
tp3647
Rp3648
ag2
(g6
S'\x1e\x03'
p3649
tp3650
Rp3651
ag2
(g6
S')\x03'
p3652
tp3653
Rp3654
ag2
(g6
S'*\x03'
p3655
tp3656
Rp3657
ag2
(g6
S'+\x03'
p3658
tp3659
Rp3660
ag2
(g6
S',\x03'
p3661
tp3662
Rp3663
ag2
(g6
S'-\x03'
p3664
tp3665
Rp3666
ag2
(g6
S'.\x03'
p3667
tp3668
Rp3669
ag2
(g6
S'/\x03'
p3670
tp3671
Rp3672
ag2
(g6
S'0\x03'
p3673
tp3674
Rp3675
ag2
(g6
S'1\x03'
p3676
tp3677
Rp3678
ag2
(g6
S'2\x03'
p3679
tp3680
Rp3681
ag2
(g6
S'3\x03'
p3682
tp3683
Rp3684
ag2
(g6
S'4\x03'
p3685
tp3686
Rp3687
ag2
(g6
S'M\x03'
p3688
tp3689
Rp3690
ag2
(g6
S'S\x05'
p3691
tp3692
Rp3693
ag2
(g6
S'T\x05'
p3694
tp3695
Rp3696
ag2
(g6
S'U\x05'
p3697
tp3698
Rp3699
ag2
(g6
S'V\x05'
p3700
tp3701
Rp3702
ag2
(g6
S'W\x05'
p3703
tp3704
Rp3705
ag2
(g6
S'X\x05'
p3706
tp3707
Rp3708
ag2
(g6
S'Y\x05'
p3709
tp3710
Rp3711
ag2
(g6
S'Z\x05'
p3712
tp3713
Rp3714
ag2
(g6
S'[\x05'
p3715
tp3716
Rp3717
ag2
(g6
S'i\x05'
p3718
tp3719
Rp3720
ag2
(g6
S'j\x05'
p3721
tp3722
Rp3723
ag2
(g6
S'k\x05'
p3724
tp3725
Rp3726
ag2
(g6
S'l\x05'
p3727
tp3728
Rp3729
ag2
(g6
S'm\x05'
p3730
tp3731
Rp3732
ag2
(g6
S'n\x05'
p3733
tp3734
Rp3735
ag2
(g6
S'o\x05'
p3736
tp3737
Rp3738
ag2
(g6
S'p\x05'
p3739
tp3740
Rp3741
ag2
(g6
S'q\x05'
p3742
tp3743
Rp3744
ag2
(g6
S'\x82\x05'
p3745
tp3746
Rp3747
ag2
(g6
S'\x83\x05'
p3748
tp3749
Rp3750
ag2
(g6
S'\x84\x05'
p3751
tp3752
Rp3753
ag2
(g6
S'\x85\x05'
p3754
tp3755
Rp3756
ag2
(g6
S'\x86\x05'
p3757
tp3758
Rp3759
ag2
(g6
S'\x87\x05'
p3760
tp3761
Rp3762
ag2
(g6
S'\x88\x05'
p3763
tp3764
Rp3765
ag2
(g6
S'\x89\x05'
p3766
tp3767
Rp3768
ag2
(g6
S'\x9a\x05'
p3769
tp3770
Rp3771
ag2
(g6
S'\x9b\x05'
p3772
tp3773
Rp3774
ag2
(g6
S'\x9f\x05'
p3775
tp3776
Rp3777
ag2
(g6
S'\xa0\x05'
p3778
tp3779
Rp3780
ag2
(g6
S'\xa1\x05'
p3781
tp3782
Rp3783
ag2
(g6
S'\xa2\x05'
p3784
tp3785
Rp3786
ag2
(g6
S'\xbd\x05'
p3787
tp3788
Rp3789
ag2
(g6
S'\xbe\x05'
p3790
tp3791
Rp3792
ag2
(g6
S'\xb1\x07'
p3793
tp3794
Rp3795
ag2
(g6
S'\xbf\x07'
p3796
tp3797
Rp3798
ag2
(g6
S'\xc0\x07'
p3799
tp3800
Rp3801
ag2
(g6
S'\xc1\x07'
p3802
tp3803
Rp3804
ag2
(g6
S'\xc2\x07'
p3805
tp3806
Rp3807
ag2
(g6
S'\xc3\x07'
p3808
tp3809
Rp3810
ag2
(g6
S'\xc4\x07'
p3811
tp3812
Rp3813
ag2
(g6
S'\xc5\x07'
p3814
tp3815
Rp3816
ag2
(g6
S'\xc6\x07'
p3817
tp3818
Rp3819
ag2
(g6
S'\xc7\x07'
p3820
tp3821
Rp3822
ag2
(g6
S'\xdb\x07'
p3823
tp3824
Rp3825
ag2
(g6
S'\xdc\x07'
p3826
tp3827
Rp3828
ag2
(g6
S'\xdd\x07'
p3829
tp3830
Rp3831
ag2
(g6
S'\xde\x07'
p3832
tp3833
Rp3834
ag2
(g6
S'\xdf\x07'
p3835
tp3836
Rp3837
ag2
(g6
S'\xf6\x07'
p3838
tp3839
Rp3840
ag2
(g6
S'\xf7\x07'
p3841
tp3842
Rp3843
ag2
(g6
S'\xf8\x07'
p3844
tp3845
Rp3846
ag2
(g6
S'\xf9\x07'
p3847
tp3848
Rp3849
ag2
(g6
S'\x13\x08'
p3850
tp3851
Rp3852
ag2
(g6
S'\x14\x08'
p3853
tp3854
Rp3855
ag2
(g6
S'\x15\x08'
p3856
tp3857
Rp3858
ag2
(g6
S'0\x08'
p3859
tp3860
Rp3861
aa(lp3862
g2
(g6
S'G\x01'
p3863
tp3864
Rp3865
ag2
(g6
S'H\x01'
p3866
tp3867
Rp3868
ag2
(g6
S']\x01'
p3869
tp3870
Rp3871
ag2
(g6
S'^\x01'
p3872
tp3873
Rp3874
ag2
(g6
S'_\x01'
p3875
tp3876
Rp3877
ag2
(g6
S'`\x01'
p3878
tp3879
Rp3880
ag2
(g6
S'a\x01'
p3881
tp3882
Rp3883
ag2
(g6
S'b\x01'
p3884
tp3885
Rp3886
ag2
(g6
S'w\x01'
p3887
tp3888
Rp3889
ag2
(g6
S'x\x01'
p3890
tp3891
Rp3892
ag2
(g6
S'y\x01'
p3893
tp3894
Rp3895
ag2
(g6
S'z\x01'
p3896
tp3897
Rp3898
ag2
(g6
S'{\x01'
p3899
tp3900
Rp3901
ag2
(g6
S'\x90\x01'
p3902
tp3903
Rp3904
ag2
(g6
S'\x91\x01'
p3905
tp3906
Rp3907
ag2
(g6
S'\x92\x01'
p3908
tp3909
Rp3910
ag2
(g6
S'\xa3\x01'
p3911
tp3912
Rp3913
ag2
(g6
S'\xa4\x01'
p3914
tp3915
Rp3916
ag2
(g6
S'\xa5\x01'
p3917
tp3918
Rp3919
ag2
(g6
S'\xb4\x01'
p3920
tp3921
Rp3922
ag2
(g6
S'\xb5\x01'
p3923
tp3924
Rp3925
ag2
(g6
S'\xb6\x01'
p3926
tp3927
Rp3928
ag2
(g6
S'\xc3\x01'
p3929
tp3930
Rp3931
ag2
(g6
S'\xc4\x01'
p3932
tp3933
Rp3934
ag2
(g6
S'\xc8\x01'
p3935
tp3936
Rp3937
ag2
(g6
S'\xc9\x01'
p3938
tp3939
Rp3940
ag2
(g6
S'\xca\x01'
p3941
tp3942
Rp3943
ag2
(g6
S'F\x03'
p3944
tp3945
Rp3946
ag2
(g6
S'G\x03'
p3947
tp3948
Rp3949
ag2
(g6
S'H\x03'
p3950
tp3951
Rp3952
ag2
(g6
S'I\x03'
p3953
tp3954
Rp3955
ag2
(g6
S'J\x03'
p3956
tp3957
Rp3958
ag2
(g6
S'K\x03'
p3959
tp3960
Rp3961
ag2
(g6
S'L\x03'
p3962
tp3963
Rp3964
ag2
(g6
S'`\x03'
p3965
tp3966
Rp3967
ag2
(g6
S'a\x03'
p3968
tp3969
Rp3970
ag2
(g6
S'b\x03'
p3971
tp3972
Rp3973
ag2
(g6
S'c\x03'
p3974
tp3975
Rp3976
ag2
(g6
S'd\x03'
p3977
tp3978
Rp3979
ag2
(g6
S'e\x03'
p3980
tp3981
Rp3982
ag2
(g6
S'f\x03'
p3983
tp3984
Rp3985
ag2
(g6
S'v\x03'
p3986
tp3987
Rp3988
ag2
(g6
S'w\x03'
p3989
tp3990
Rp3991
ag2
(g6
S'x\x03'
p3992
tp3993
Rp3994
ag2
(g6
S'y\x03'
p3995
tp3996
Rp3997
ag2
(g6
S'z\x03'
p3998
tp3999
Rp4000
ag2
(g6
S'{\x03'
p4001
tp4002
Rp4003
ag2
(g6
S'\x8f\x03'
p4004
tp4005
Rp4006
ag2
(g6
S'\x90\x03'
p4007
tp4008
Rp4009
ag2
(g6
S'\x91\x03'
p4010
tp4011
Rp4012
ag2
(g6
S'\x92\x03'
p4013
tp4014
Rp4015
ag2
(g6
S'\x93\x03'
p4016
tp4017
Rp4018
ag2
(g6
S'\x94\x03'
p4019
tp4020
Rp4021
ag2
(g6
S'\xa7\x03'
p4022
tp4023
Rp4024
ag2
(g6
S'\xa8\x03'
p4025
tp4026
Rp4027
ag2
(g6
S'\xa9\x03'
p4028
tp4029
Rp4030
ag2
(g6
S'\xaa\x03'
p4031
tp4032
Rp4033
ag2
(g6
S'\xab\x03'
p4034
tp4035
Rp4036
ag2
(g6
S'\xbd\x03'
p4037
tp4038
Rp4039
ag2
(g6
S'\xbe\x03'
p4040
tp4041
Rp4042
ag2
(g6
S'\xbf\x03'
p4043
tp4044
Rp4045
ag2
(g6
S'\xc0\x03'
p4046
tp4047
Rp4048
ag2
(g6
S'\xc1\x03'
p4049
tp4050
Rp4051
ag2
(g6
S'\xd1\x03'
p4052
tp4053
Rp4054
ag2
(g6
S'\xd2\x03'
p4055
tp4056
Rp4057
ag2
(g6
S'\xd3\x03'
p4058
tp4059
Rp4060
ag2
(g6
S'\xd4\x03'
p4061
tp4062
Rp4063
ag2
(g6
S'\xd5\x03'
p4064
tp4065
Rp4066
ag2
(g6
S'\xe3\x03'
p4067
tp4068
Rp4069
ag2
(g6
S'\xe4\x03'
p4070
tp4071
Rp4072
ag2
(g6
S'\xe5\x03'
p4073
tp4074
Rp4075
ag2
(g6
S'\xe6\x03'
p4076
tp4077
Rp4078
ag2
(g6
S'\xf1\x03'
p4079
tp4080
Rp4081
ag2
(g6
S'\xf2\x03'
p4082
tp4083
Rp4084
ag2
(g6
S'\xf3\x03'
p4085
tp4086
Rp4087
ag2
(g6
S'g\x05'
p4088
tp4089
Rp4090
ag2
(g6
S'h\x05'
p4091
tp4092
Rp4093
ag2
(g6
S'~\x05'
p4094
tp4095
Rp4096
ag2
(g6
S'\x7f\x05'
p4097
tp4098
Rp4099
ag2
(g6
S'\x80\x05'
p4100
tp4101
Rp4102
ag2
(g6
S'\x81\x05'
p4103
tp4104
Rp4105
ag2
(g6
S'\x96\x05'
p4106
tp4107
Rp4108
ag2
(g6
S'\x97\x05'
p4109
tp4110
Rp4111
ag2
(g6
S'\x98\x05'
p4112
tp4113
Rp4114
ag2
(g6
S'\x99\x05'
p4115
tp4116
Rp4117
ag2
(g6
S'\x9c\x05'
p4118
tp4119
Rp4120
ag2
(g6
S'\x9d\x05'
p4121
tp4122
Rp4123
ag2
(g6
S'\x9f\x05'
p4124
tp4125
Rp4126
ag2
(g6
S'\xb5\x05'
p4127
tp4128
Rp4129
ag2
(g6
S'\xb6\x05'
p4130
tp4131
Rp4132
ag2
(g6
S'\xb7\x05'
p4133
tp4134
Rp4135
ag2
(g6
S'\xb8\x05'
p4136
tp4137
Rp4138
ag2
(g6
S'\xb9\x05'
p4139
tp4140
Rp4141
ag2
(g6
S'\xba\x05'
p4142
tp4143
Rp4144
ag2
(g6
S'\xbb\x05'
p4145
tp4146
Rp4147
ag2
(g6
S'\xbc\x05'
p4148
tp4149
Rp4150
ag2
(g6
S'\xd3\x05'
p4151
tp4152
Rp4153
ag2
(g6
S'\xd4\x05'
p4154
tp4155
Rp4156
ag2
(g6
S'\xd5\x05'
p4157
tp4158
Rp4159
ag2
(g6
S'\xd6\x05'
p4160
tp4161
Rp4162
ag2
(g6
S'\xd7\x05'
p4163
tp4164
Rp4165
ag2
(g6
S'\xd8\x05'
p4166
tp4167
Rp4168
ag2
(g6
S'\xd9\x05'
p4169
tp4170
Rp4171
ag2
(g6
S'\xda\x05'
p4172
tp4173
Rp4174
ag2
(g6
S'\xdb\x05'
p4175
tp4176
Rp4177
ag2
(g6
S'\xf0\x05'
p4178
tp4179
Rp4180
ag2
(g6
S'\xf1\x05'
p4181
tp4182
Rp4183
ag2
(g6
S'\xf2\x05'
p4184
tp4185
Rp4186
ag2
(g6
S'\xf3\x05'
p4187
tp4188
Rp4189
ag2
(g6
S'\xf4\x05'
p4190
tp4191
Rp4192
ag2
(g6
S'\xf5\x05'
p4193
tp4194
Rp4195
ag2
(g6
S'\xf6\x05'
p4196
tp4197
Rp4198
ag2
(g6
S'\xf7\x05'
p4199
tp4200
Rp4201
ag2
(g6
S'\x0c\x06'
p4202
tp4203
Rp4204
ag2
(g6
S'\r\x06'
p4205
tp4206
Rp4207
ag2
(g6
S'\x0e\x06'
p4208
tp4209
Rp4210
ag2
(g6
S'\x0f\x06'
p4211
tp4212
Rp4213
ag2
(g6
S'\x10\x06'
p4214
tp4215
Rp4216
ag2
(g6
S'\x11\x06'
p4217
tp4218
Rp4219
ag2
(g6
S'\x12\x06'
p4220
tp4221
Rp4222
ag2
(g6
S'%\x06'
p4223
tp4224
Rp4225
ag2
(g6
S'&\x06'
p4226
tp4227
Rp4228
ag2
(g6
S"'\x06"
p4229
tp4230
Rp4231
ag2
(g6
S'(\x06'
p4232
tp4233
Rp4234
ag2
(g6
S')\x06'
p4235
tp4236
Rp4237
ag2
(g6
S'*\x06'
p4238
tp4239
Rp4240
ag2
(g6
S'+\x06'
p4241
tp4242
Rp4243
ag2
(g6
S',\x06'
p4244
tp4245
Rp4246
ag2
(g6
S'?\x06'
p4247
tp4248
Rp4249
ag2
(g6
S'@\x06'
p4250
tp4251
Rp4252
ag2
(g6
S'A\x06'
p4253
tp4254
Rp4255
ag2
(g6
S'B\x06'
p4256
tp4257
Rp4258
ag2
(g6
S'C\x06'
p4259
tp4260
Rp4261
ag2
(g6
S'D\x06'
p4262
tp4263
Rp4264
ag2
(g6
S'E\x06'
p4265
tp4266
Rp4267
ag2
(g6
S'V\x06'
p4268
tp4269
Rp4270
ag2
(g6
S'W\x06'
p4271
tp4272
Rp4273
ag2
(g6
S'X\x06'
p4274
tp4275
Rp4276
ag2
(g6
S'Y\x06'
p4277
tp4278
Rp4279
ag2
(g6
S'Z\x06'
p4280
tp4281
Rp4282
ag2
(g6
S'[\x06'
p4283
tp4284
Rp4285
ag2
(g6
S'l\x06'
p4286
tp4287
Rp4288
ag2
(g6
S'm\x06'
p4289
tp4290
Rp4291
ag2
(g6
S'n\x06'
p4292
tp4293
Rp4294
ag2
(g6
S'o\x06'
p4295
tp4296
Rp4297
ag2
(g6
S'~\x06'
p4298
tp4299
Rp4300
ag2
(g6
S'\x7f\x06'
p4301
tp4302
Rp4303
ag2
(g6
S'\x80\x06'
p4304
tp4305
Rp4306
ag2
(g6
S'\x8c\x06'
p4307
tp4308
Rp4309
ag2
(g6
S'\x8d\x06'
p4310
tp4311
Rp4312
ag2
(g6
S'\xbd\x07'
p4313
tp4314
Rp4315
ag2
(g6
S'\xbe\x07'
p4316
tp4317
Rp4318
ag2
(g6
S'\xd4\x07'
p4319
tp4320
Rp4321
ag2
(g6
S'\xd5\x07'
p4322
tp4323
Rp4324
ag2
(g6
S'\xd6\x07'
p4325
tp4326
Rp4327
ag2
(g6
S'\xd7\x07'
p4328
tp4329
Rp4330
ag2
(g6
S'\xd8\x07'
p4331
tp4332
Rp4333
ag2
(g6
S'\xd9\x07'
p4334
tp4335
Rp4336
ag2
(g6
S'\xda\x07'
p4337
tp4338
Rp4339
ag2
(g6
S'\xee\x07'
p4340
tp4341
Rp4342
ag2
(g6
S'\xef\x07'
p4343
tp4344
Rp4345
ag2
(g6
S'\xf0\x07'
p4346
tp4347
Rp4348
ag2
(g6
S'\xf1\x07'
p4349
tp4350
Rp4351
ag2
(g6
S'\xf2\x07'
p4352
tp4353
Rp4354
ag2
(g6
S'\xf3\x07'
p4355
tp4356
Rp4357
ag2
(g6
S'\xf4\x07'
p4358
tp4359
Rp4360
ag2
(g6
S'\xf5\x07'
p4361
tp4362
Rp4363
ag2
(g6
S'\x0b\x08'
p4364
tp4365
Rp4366
ag2
(g6
S'\x0c\x08'
p4367
tp4368
Rp4369
ag2
(g6
S'\r\x08'
p4370
tp4371
Rp4372
ag2
(g6
S'\x0e\x08'
p4373
tp4374
Rp4375
ag2
(g6
S'\x0f\x08'
p4376
tp4377
Rp4378
ag2
(g6
S'\x10\x08'
p4379
tp4380
Rp4381
ag2
(g6
S'\x11\x08'
p4382
tp4383
Rp4384
ag2
(g6
S'\x12\x08'
p4385
tp4386
Rp4387
ag2
(g6
S'(\x08'
p4388
tp4389
Rp4390
ag2
(g6
S')\x08'
p4391
tp4392
Rp4393
ag2
(g6
S'*\x08'
p4394
tp4395
Rp4396
ag2
(g6
S'+\x08'
p4397
tp4398
Rp4399
ag2
(g6
S',\x08'
p4400
tp4401
Rp4402
ag2
(g6
S'-\x08'
p4403
tp4404
Rp4405
ag2
(g6
S'.\x08'
p4406
tp4407
Rp4408
ag2
(g6
S'/\x08'
p4409
tp4410
Rp4411
ag2
(g6
S'E\x08'
p4412
tp4413
Rp4414
ag2
(g6
S'F\x08'
p4415
tp4416
Rp4417
ag2
(g6
S'G\x08'
p4418
tp4419
Rp4420
ag2
(g6
S'H\x08'
p4421
tp4422
Rp4423
ag2
(g6
S'I\x08'
p4424
tp4425
Rp4426
ag2
(g6
S'J\x08'
p4427
tp4428
Rp4429
ag2
(g6
S'K\x08'
p4430
tp4431
Rp4432
ag2
(g6
S'L\x08'
p4433
tp4434
Rp4435
ag2
(g6
S'b\x08'
p4436
tp4437
Rp4438
ag2
(g6
S'c\x08'
p4439
tp4440
Rp4441
ag2
(g6
S'd\x08'
p4442
tp4443
Rp4444
ag2
(g6
S'e\x08'
p4445
tp4446
Rp4447
ag2
(g6
S'f\x08'
p4448
tp4449
Rp4450
ag2
(g6
S'g\x08'
p4451
tp4452
Rp4453
ag2
(g6
S'h\x08'
p4454
tp4455
Rp4456
ag2
(g6
S'i\x08'
p4457
tp4458
Rp4459
ag2
(g6
S'~\x08'
p4460
tp4461
Rp4462
ag2
(g6
S'\x7f\x08'
p4463
tp4464
Rp4465
ag2
(g6
S'\x80\x08'
p4466
tp4467
Rp4468
ag2
(g6
S'\x81\x08'
p4469
tp4470
Rp4471
ag2
(g6
S'\x82\x08'
p4472
tp4473
Rp4474
ag2
(g6
S'\x83\x08'
p4475
tp4476
Rp4477
ag2
(g6
S'\x84\x08'
p4478
tp4479
Rp4480
ag2
(g6
S'\x96\x08'
p4481
tp4482
Rp4483
ag2
(g6
S'\x97\x08'
p4484
tp4485
Rp4486
ag2
(g6
S'\x98\x08'
p4487
tp4488
Rp4489
ag2
(g6
S'\x99\x08'
p4490
tp4491
Rp4492
ag2
(g6
S'\x9a\x08'
p4493
tp4494
Rp4495
ag2
(g6
S'\x9b\x08'
p4496
tp4497
Rp4498
ag2
(g6
S'\x9c\x08'
p4499
tp4500
Rp4501
ag2
(g6
S'\x9d\x08'
p4502
tp4503
Rp4504
ag2
(g6
S'\x9e\x08'
p4505
tp4506
Rp4507
ag2
(g6
S'\xb0\x08'
p4508
tp4509
Rp4510
ag2
(g6
S'\xb1\x08'
p4511
tp4512
Rp4513
ag2
(g6
S'\xb2\x08'
p4514
tp4515
Rp4516
ag2
(g6
S'\xb3\x08'
p4517
tp4518
Rp4519
ag2
(g6
S'\xb4\x08'
p4520
tp4521
Rp4522
ag2
(g6
S'\xb5\x08'
p4523
tp4524
Rp4525
ag2
(g6
S'\xb6\x08'
p4526
tp4527
Rp4528
ag2
(g6
S'\xb7\x08'
p4529
tp4530
Rp4531
ag2
(g6
S'\xc9\x08'
p4532
tp4533
Rp4534
ag2
(g6
S'\xca\x08'
p4535
tp4536
Rp4537
ag2
(g6
S'\xcb\x08'
p4538
tp4539
Rp4540
ag2
(g6
S'\xcc\x08'
p4541
tp4542
Rp4543
ag2
(g6
S'\xcd\x08'
p4544
tp4545
Rp4546
ag2
(g6
S'\xce\x08'
p4547
tp4548
Rp4549
ag2
(g6
S'\xe0\x08'
p4550
tp4551
Rp4552
ag2
(g6
S'\xe1\x08'
p4553
tp4554
Rp4555
ag2
(g6
S'\xe2\x08'
p4556
tp4557
Rp4558
ag2
(g6
S'\xe3\x08'
p4559
tp4560
Rp4561
ag2
(g6
S'\xf3\x08'
p4562
tp4563
Rp4564
ag2
(g6
S'\xf4\x08'
p4565
tp4566
Rp4567
ag2
(g6
S'\xf5\x08'
p4568
tp4569
Rp4570
aa(lp4571
g2
(g6
S']\n'
p4572
tp4573
Rp4574
ag2
(g6
S'^\n'
p4575
tp4576
Rp4577
ag2
(g6
S'_\n'
p4578
tp4579
Rp4580
ag2
(g6
S'`\n'
p4581
tp4582
Rp4583
ag2
(g6
S'b\n'
p4584
tp4585
Rp4586
ag2
(g6
S'r\n'
p4587
tp4588
Rp4589
ag2
(g6
S's\n'
p4590
tp4591
Rp4592
ag2
(g6
S't\n'
p4593
tp4594
Rp4595
ag2
(g6
S'u\n'
p4596
tp4597
Rp4598
ag2
(g6
S'v\n'
p4599
tp4600
Rp4601
ag2
(g6
S'w\n'
p4602
tp4603
Rp4604
ag2
(g6
S'\x8d\n'
p4605
tp4606
Rp4607
ag2
(g6
S'\x8e\n'
p4608
tp4609
Rp4610
ag2
(g6
S'\x8f\n'
p4611
tp4612
Rp4613
ag2
(g6
S'\x90\n'
p4614
tp4615
Rp4616
ag2
(g6
S'\x91\n'
p4617
tp4618
Rp4619
ag2
(g6
S'\x92\n'
p4620
tp4621
Rp4622
ag2
(g6
S'\x93\n'
p4623
tp4624
Rp4625
ag2
(g6
S'\x94\n'
p4626
tp4627
Rp4628
ag2
(g6
S'\x95\n'
p4629
tp4630
Rp4631
ag2
(g6
S'\xaa\n'
p4632
tp4633
Rp4634
ag2
(g6
S'\xab\n'
p4635
tp4636
Rp4637
ag2
(g6
S'\xac\n'
p4638
tp4639
Rp4640
ag2
(g6
S'\xad\n'
p4641
tp4642
Rp4643
ag2
(g6
S'\xae\n'
p4644
tp4645
Rp4646
ag2
(g6
S'\xaf\n'
p4647
tp4648
Rp4649
ag2
(g6
S'\xb0\n'
p4650
tp4651
Rp4652
ag2
(g6
S'\xb1\n'
p4653
tp4654
Rp4655
ag2
(g6
S'\xb2\n'
p4656
tp4657
Rp4658
ag2
(g6
S'\xc7\n'
p4659
tp4660
Rp4661
ag2
(g6
S'\xc8\n'
p4662
tp4663
Rp4664
ag2
(g6
S'\xc9\n'
p4665
tp4666
Rp4667
ag2
(g6
S'\xca\n'
p4668
tp4669
Rp4670
ag2
(g6
S'\xcb\n'
p4671
tp4672
Rp4673
ag2
(g6
S'\xcc\n'
p4674
tp4675
Rp4676
ag2
(g6
S'\xcd\n'
p4677
tp4678
Rp4679
ag2
(g6
S'\xce\n'
p4680
tp4681
Rp4682
ag2
(g6
S'\xe2\n'
p4683
tp4684
Rp4685
ag2
(g6
S'\xe3\n'
p4686
tp4687
Rp4688
ag2
(g6
S'\xe4\n'
p4689
tp4690
Rp4691
ag2
(g6
S'\xe5\n'
p4692
tp4693
Rp4694
ag2
(g6
S'\xe6\n'
p4695
tp4696
Rp4697
ag2
(g6
S'\xe7\n'
p4698
tp4699
Rp4700
ag2
(g6
S'\xe8\n'
p4701
tp4702
Rp4703
ag2
(g6
S'\xfb\n'
p4704
tp4705
Rp4706
ag2
(g6
S'\xfc\n'
p4707
tp4708
Rp4709
ag2
(g6
S'\xfd\n'
p4710
tp4711
Rp4712
ag2
(g6
S'\xfe\n'
p4713
tp4714
Rp4715
ag2
(g6
S'\xff\n'
p4716
tp4717
Rp4718
ag2
(g6
S'\x00\x0b'
p4719
tp4720
Rp4721
ag2
(g6
S'\x01\x0b'
p4722
tp4723
Rp4724
ag2
(g6
S'\x11\x0b'
p4725
tp4726
Rp4727
ag2
(g6
S'\x12\x0b'
p4728
tp4729
Rp4730
ag2
(g6
S'\x13\x0b'
p4731
tp4732
Rp4733
ag2
(g6
S'\x14\x0b'
p4734
tp4735
Rp4736
ag2
(g6
S'\x15\x0b'
p4737
tp4738
Rp4739
ag2
(g6
S'\x16\x0b'
p4740
tp4741
Rp4742
ag2
(g6
S'$\x0b'
p4743
tp4744
Rp4745
ag2
(g6
S'%\x0b'
p4746
tp4747
Rp4748
ag2
(g6
S'&\x0b'
p4749
tp4750
Rp4751
ag2
(g6
S"'\x0b"
p4752
tp4753
Rp4754
ag2
(g6
S'(\x0b'
p4755
tp4756
Rp4757
ag2
(g6
S'\xac\x0c'
p4758
tp4759
Rp4760
ag2
(g6
S'\xad\x0c'
p4761
tp4762
Rp4763
ag2
(g6
S'\xae\x0c'
p4764
tp4765
Rp4766
ag2
(g6
S'\xaf\x0c'
p4767
tp4768
Rp4769
ag2
(g6
S'\xb6\x0c'
p4770
tp4771
Rp4772
ag2
(g6
S'\xb7\x0c'
p4773
tp4774
Rp4775
ag2
(g6
S'\xb8\x0c'
p4776
tp4777
Rp4778
ag2
(g6
S'\xb9\x0c'
p4779
tp4780
Rp4781
ag2
(g6
S'\xba\x0c'
p4782
tp4783
Rp4784
ag2
(g6
S'\xbb\x0c'
p4785
tp4786
Rp4787
ag2
(g6
S'\xbc\x0c'
p4788
tp4789
Rp4790
ag2
(g6
S'\xbd\x0c'
p4791
tp4792
Rp4793
ag2
(g6
S'\xc6\x0c'
p4794
tp4795
Rp4796
ag2
(g6
S'\xc7\x0c'
p4797
tp4798
Rp4799
ag2
(g6
S'\xc8\x0c'
p4800
tp4801
Rp4802
ag2
(g6
S'\xc9\x0c'
p4803
tp4804
Rp4805
ag2
(g6
S'\xca\x0c'
p4806
tp4807
Rp4808
ag2
(g6
S'\xcb\x0c'
p4809
tp4810
Rp4811
ag2
(g6
S'\xcc\x0c'
p4812
tp4813
Rp4814
ag2
(g6
S'\xcd\x0c'
p4815
tp4816
Rp4817
ag2
(g6
S'\xce\x0c'
p4818
tp4819
Rp4820
ag2
(g6
S'\xdd\x0c'
p4821
tp4822
Rp4823
ag2
(g6
S'\xde\x0c'
p4824
tp4825
Rp4826
ag2
(g6
S'\xdf\x0c'
p4827
tp4828
Rp4829
ag2
(g6
S'\xe0\x0c'
p4830
tp4831
Rp4832
ag2
(g6
S'\xe1\x0c'
p4833
tp4834
Rp4835
ag2
(g6
S'\xe2\x0c'
p4836
tp4837
Rp4838
ag2
(g6
S'\xe3\x0c'
p4839
tp4840
Rp4841
ag2
(g6
S'\xf2\x0c'
p4842
tp4843
Rp4844
ag2
(g6
S'\xf3\x0c'
p4845
tp4846
Rp4847
ag2
(g6
S'\xf4\x0c'
p4848
tp4849
Rp4850
ag2
(g6
S'\xf5\x0c'
p4851
tp4852
Rp4853
ag2
(g6
S'\xf6\x0c'
p4854
tp4855
Rp4856
ag2
(g6
S'\xf7\x0c'
p4857
tp4858
Rp4859
ag2
(g6
S'\xf8\x0c'
p4860
tp4861
Rp4862
ag2
(g6
S'\xf9\x0c'
p4863
tp4864
Rp4865
ag2
(g6
S'\t\r'
p4866
tp4867
Rp4868
ag2
(g6
S'\n\r'
p4869
tp4870
Rp4871
ag2
(g6
S'\x0b\r'
p4872
tp4873
Rp4874
ag2
(g6
S'\x0c\r'
p4875
tp4876
Rp4877
ag2
(g6
S'\r\r'
p4878
tp4879
Rp4880
ag2
(g6
S'\x0e\r'
p4881
tp4882
Rp4883
ag2
(g6
S'\x0f\r'
p4884
tp4885
Rp4886
ag2
(g6
S'\x10\r'
p4887
tp4888
Rp4889
ag2
(g6
S' \r'
p4890
tp4891
Rp4892
ag2
(g6
S'!\r'
p4893
tp4894
Rp4895
ag2
(g6
S'"\r'
p4896
tp4897
Rp4898
ag2
(g6
S'#\r'
p4899
tp4900
Rp4901
ag2
(g6
S'$\r'
p4902
tp4903
Rp4904
ag2
(g6
S'%\r'
p4905
tp4906
Rp4907
ag2
(g6
S'&\r'
p4908
tp4909
Rp4910
ag2
(g6
S"'\r"
p4911
tp4912
Rp4913
ag2
(g6
S'7\r'
p4914
tp4915
Rp4916
ag2
(g6
S'8\r'
p4917
tp4918
Rp4919
ag2
(g6
S'9\r'
p4920
tp4921
Rp4922
ag2
(g6
S':\r'
p4923
tp4924
Rp4925
ag2
(g6
S';\r'
p4926
tp4927
Rp4928
ag2
(g6
S'<\r'
p4929
tp4930
Rp4931
ag2
(g6
S'=\r'
p4932
tp4933
Rp4934
ag2
(g6
S'N\r'
p4935
tp4936
Rp4937
ag2
(g6
S'O\r'
p4938
tp4939
Rp4940
ag2
(g6
S'P\r'
p4941
tp4942
Rp4943
ag2
(g6
S'Q\r'
p4944
tp4945
Rp4946
ag2
(g6
S'R\r'
p4947
tp4948
Rp4949
ag2
(g6
S'S\r'
p4950
tp4951
Rp4952
ag2
(g6
S'b\r'
p4953
tp4954
Rp4955
ag2
(g6
S'c\r'
p4956
tp4957
Rp4958
ag2
(g6
S'\xc9\x0e'
p4959
tp4960
Rp4961
ag2
(g6
S'\xca\x0e'
p4962
tp4963
Rp4964
ag2
(g6
S'\xd2\x0e'
p4965
tp4966
Rp4967
ag2
(g6
S'\xd3\x0e'
p4968
tp4969
Rp4970
ag2
(g6
S'\xd5\x0e'
p4971
tp4972
Rp4973
ag2
(g6
S'\xd6\x0e'
p4974
tp4975
Rp4976
ag2
(g6
S'\xd7\x0e'
p4977
tp4978
Rp4979
ag2
(g6
S'\xd8\x0e'
p4980
tp4981
Rp4982
ag2
(g6
S'\xd9\x0e'
p4983
tp4984
Rp4985
ag2
(g6
S'\xe1\x0e'
p4986
tp4987
Rp4988
ag2
(g6
S'\xe2\x0e'
p4989
tp4990
Rp4991
ag2
(g6
S'\xe3\x0e'
p4992
tp4993
Rp4994
ag2
(g6
S'\xe4\x0e'
p4995
tp4996
Rp4997
ag2
(g6
S'\xe5\x0e'
p4998
tp4999
Rp5000
ag2
(g6
S'\xe6\x0e'
p5001
tp5002
Rp5003
ag2
(g6
S'\xe7\x0e'
p5004
tp5005
Rp5006
ag2
(g6
S'\xe8\x0e'
p5007
tp5008
Rp5009
ag2
(g6
S'\xf0\x0e'
p5010
tp5011
Rp5012
ag2
(g6
S'\xf1\x0e'
p5013
tp5014
Rp5015
ag2
(g6
S'\xf2\x0e'
p5016
tp5017
Rp5018
ag2
(g6
S'\xf3\x0e'
p5019
tp5020
Rp5021
ag2
(g6
S'\xf4\x0e'
p5022
tp5023
Rp5024
ag2
(g6
S'\xf5\x0e'
p5025
tp5026
Rp5027
ag2
(g6
S'\xf6\x0e'
p5028
tp5029
Rp5030
ag2
(g6
S'\xf7\x0e'
p5031
tp5032
Rp5033
ag2
(g6
S'\x00\x0f'
p5034
tp5035
Rp5036
ag2
(g6
S'\x01\x0f'
p5037
tp5038
Rp5039
ag2
(g6
S'\x02\x0f'
p5040
tp5041
Rp5042
ag2
(g6
S'\x03\x0f'
p5043
tp5044
Rp5045
ag2
(g6
S'\x04\x0f'
p5046
tp5047
Rp5048
ag2
(g6
S'\x05\x0f'
p5049
tp5050
Rp5051
ag2
(g6
S'\x06\x0f'
p5052
tp5053
Rp5054
ag2
(g6
S'\x07\x0f'
p5055
tp5056
Rp5057
ag2
(g6
S'\x08\x0f'
p5058
tp5059
Rp5060
ag2
(g6
S'\x1a\x0f'
p5061
tp5062
Rp5063
ag2
(g6
S'\x1b\x0f'
p5064
tp5065
Rp5066
ag2
(g6
S'\x1c\x0f'
p5067
tp5068
Rp5069
ag2
(g6
S'\x1d\x0f'
p5070
tp5071
Rp5072
ag2
(g6
S'\x1e\x0f'
p5073
tp5074
Rp5075
ag2
(g6
S'\x1f\x0f'
p5076
tp5077
Rp5078
ag2
(g6
S' \x0f'
p5079
tp5080
Rp5081
ag2
(g6
S'!\x0f'
p5082
tp5083
Rp5084
ag2
(g6
S'4\x0f'
p5085
tp5086
Rp5087
ag2
(g6
S'5\x0f'
p5088
tp5089
Rp5090
ag2
(g6
S'6\x0f'
p5091
tp5092
Rp5093
ag2
(g6
S'7\x0f'
p5094
tp5095
Rp5096
ag2
(g6
S'8\x0f'
p5097
tp5098
Rp5099
ag2
(g6
S'9\x0f'
p5100
tp5101
Rp5102
ag2
(g6
S':\x0f'
p5103
tp5104
Rp5105
ag2
(g6
S'L\x0f'
p5106
tp5107
Rp5108
ag2
(g6
S'M\x0f'
p5109
tp5110
Rp5111
ag2
(g6
S'N\x0f'
p5112
tp5113
Rp5114
ag2
(g6
S'O\x0f'
p5115
tp5116
Rp5117
ag2
(g6
S'P\x0f'
p5118
tp5119
Rp5120
ag2
(g6
S'Q\x0f'
p5121
tp5122
Rp5123
ag2
(g6
S'R\x0f'
p5124
tp5125
Rp5126
ag2
(g6
S'b\x0f'
p5127
tp5128
Rp5129
ag2
(g6
S'c\x0f'
p5130
tp5131
Rp5132
ag2
(g6
S'd\x0f'
p5133
tp5134
Rp5135
ag2
(g6
S'e\x0f'
p5136
tp5137
Rp5138
ag2
(g6
S'f\x0f'
p5139
tp5140
Rp5141
ag2
(g6
S'g\x0f'
p5142
tp5143
Rp5144
ag2
(g6
S'h\x0f'
p5145
tp5146
Rp5147
ag2
(g6
S'x\x0f'
p5148
tp5149
Rp5150
ag2
(g6
S'y\x0f'
p5151
tp5152
Rp5153
ag2
(g6
S'z\x0f'
p5154
tp5155
Rp5156
ag2
(g6
S'{\x0f'
p5157
tp5158
Rp5159
ag2
(g6
S'|\x0f'
p5160
tp5161
Rp5162
ag2
(g6
S'}\x0f'
p5163
tp5164
Rp5165
ag2
(g6
S'~\x0f'
p5166
tp5167
Rp5168
ag2
(g6
S'\x8d\x0f'
p5169
tp5170
Rp5171
ag2
(g6
S'\x8e\x0f'
p5172
tp5173
Rp5174
ag2
(g6
S'\x8f\x0f'
p5175
tp5176
Rp5177
ag2
(g6
S'\x90\x0f'
p5178
tp5179
Rp5180
ag2
(g6
S'\x91\x0f'
p5181
tp5182
Rp5183
ag2
(g6
S'\x92\x0f'
p5184
tp5185
Rp5186
ag2
(g6
S'\xa1\x0f'
p5187
tp5188
Rp5189
ag2
(g6
S'\xa2\x0f'
p5190
tp5191
Rp5192
ag2
(g6
S'\xa3\x0f'
p5193
tp5194
Rp5195
ag2
(g6
S'\xa4\x0f'
p5196
tp5197
Rp5198
ag2
(g6
S'\xa5\x0f'
p5199
tp5200
Rp5201
ag2
(g6
S'\xa6\x0f'
p5202
tp5203
Rp5204
ag2
(g6
S'\xa7\x0f'
p5205
tp5206
Rp5207
ag2
(g6
S'\x90\x11'
p5208
tp5209
Rp5210
ag2
(g6
S'\x91\x11'
p5211
tp5212
Rp5213
ag2
(g6
S'\x92\x11'
p5214
tp5215
Rp5216
ag2
(g6
S'\x98\x11'
p5217
tp5218
Rp5219
ag2
(g6
S'\x99\x11'
p5220
tp5221
Rp5222
ag2
(g6
S'\x9a\x11'
p5223
tp5224
Rp5225
ag2
(g6
S'\x9b\x11'
p5226
tp5227
Rp5228
ag2
(g6
S'\x9c\x11'
p5229
tp5230
Rp5231
ag2
(g6
S'\x9d\x11'
p5232
tp5233
Rp5234
ag2
(g6
S'\x9e\x11'
p5235
tp5236
Rp5237
ag2
(g6
S'\x9f\x11'
p5238
tp5239
Rp5240
ag2
(g6
S'\xa0\x11'
p5241
tp5242
Rp5243
ag2
(g6
S'\xa7\x11'
p5244
tp5245
Rp5246
ag2
(g6
S'\xa8\x11'
p5247
tp5248
Rp5249
ag2
(g6
S'\xa9\x11'
p5250
tp5251
Rp5252
ag2
(g6
S'\xaa\x11'
p5253
tp5254
Rp5255
ag2
(g6
S'\xab\x11'
p5256
tp5257
Rp5258
ag2
(g6
S'\xac\x11'
p5259
tp5260
Rp5261
ag2
(g6
S'\xad\x11'
p5262
tp5263
Rp5264
ag2
(g6
S'\xae\x11'
p5265
tp5266
Rp5267
ag2
(g6
S'\xb5\x11'
p5268
tp5269
Rp5270
ag2
(g6
S'\xb6\x11'
p5271
tp5272
Rp5273
ag2
(g6
S'\xb7\x11'
p5274
tp5275
Rp5276
ag2
(g6
S'\xb8\x11'
p5277
tp5278
Rp5279
ag2
(g6
S'\xb9\x11'
p5280
tp5281
Rp5282
ag2
(g6
S'\xba\x11'
p5283
tp5284
Rp5285
ag2
(g6
S'\xbb\x11'
p5286
tp5287
Rp5288
ag2
(g6
S'\xc2\x11'
p5289
tp5290
Rp5291
ag2
(g6
S'\xc3\x11'
p5292
tp5293
Rp5294
ag2
(g6
S'\xc4\x11'
p5295
tp5296
Rp5297
ag2
(g6
S'\xc5\x11'
p5298
tp5299
Rp5300
ag2
(g6
S'\xc6\x11'
p5301
tp5302
Rp5303
ag2
(g6
S'\xc7\x11'
p5304
tp5305
Rp5306
ag2
(g6
S'\xc8\x11'
p5307
tp5308
Rp5309
ag2
(g6
S'\xc9\x11'
p5310
tp5311
Rp5312
ag2
(g6
S'\xd5\x11'
p5313
tp5314
Rp5315
ag2
(g6
S'\xd6\x11'
p5316
tp5317
Rp5318
ag2
(g6
S'\xd7\x11'
p5319
tp5320
Rp5321
ag2
(g6
S'\xd8\x11'
p5322
tp5323
Rp5324
ag2
(g6
S'\xd9\x11'
p5325
tp5326
Rp5327
ag2
(g6
S'\xda\x11'
p5328
tp5329
Rp5330
ag2
(g6
S'\xdb\x11'
p5331
tp5332
Rp5333
ag2
(g6
S'\xdc\x11'
p5334
tp5335
Rp5336
ag2
(g6
S'\xec\x11'
p5337
tp5338
Rp5339
ag2
(g6
S'\xed\x11'
p5340
tp5341
Rp5342
ag2
(g6
S'\xee\x11'
p5343
tp5344
Rp5345
ag2
(g6
S'\xef\x11'
p5346
tp5347
Rp5348
ag2
(g6
S'\xf0\x11'
p5349
tp5350
Rp5351
ag2
(g6
S'\xf1\x11'
p5352
tp5353
Rp5354
ag2
(g6
S'\xf2\x11'
p5355
tp5356
Rp5357
ag2
(g6
S'\xf3\x11'
p5358
tp5359
Rp5360
ag2
(g6
S'\x05\x12'
p5361
tp5362
Rp5363
ag2
(g6
S'\x06\x12'
p5364
tp5365
Rp5366
ag2
(g6
S'\x07\x12'
p5367
tp5368
Rp5369
ag2
(g6
S'\x08\x12'
p5370
tp5371
Rp5372
ag2
(g6
S'\t\x12'
p5373
tp5374
Rp5375
ag2
(g6
S'\n\x12'
p5376
tp5377
Rp5378
ag2
(g6
S'\x0b\x12'
p5379
tp5380
Rp5381
ag2
(g6
S'\x1c\x12'
p5382
tp5383
Rp5384
ag2
(g6
S'\x1d\x12'
p5385
tp5386
Rp5387
ag2
(g6
S'\x1e\x12'
p5388
tp5389
Rp5390
ag2
(g6
S'\x1f\x12'
p5391
tp5392
Rp5393
ag2
(g6
S' \x12'
p5394
tp5395
Rp5396
ag2
(g6
S'!\x12'
p5397
tp5398
Rp5399
ag2
(g6
S'1\x12'
p5400
tp5401
Rp5402
ag2
(g6
S'2\x12'
p5403
tp5404
Rp5405
ag2
(g6
S'3\x12'
p5406
tp5407
Rp5408
ag2
(g6
S'4\x12'
p5409
tp5410
Rp5411
ag2
(g6
S'5\x12'
p5412
tp5413
Rp5414
ag2
(g6
S'6\x12'
p5415
tp5416
Rp5417
ag2
(g6
S'F\x12'
p5418
tp5419
Rp5420
ag2
(g6
S'G\x12'
p5421
tp5422
Rp5423
ag2
(g6
S'H\x12'
p5424
tp5425
Rp5426
ag2
(g6
S'I\x12'
p5427
tp5428
Rp5429
ag2
(g6
S'J\x12'
p5430
tp5431
Rp5432
aa(lp5433
g2
(g6
S'l\t'
p5434
tp5435
Rp5436
ag2
(g6
S'm\t'
p5437
tp5438
Rp5439
ag2
(g6
S'n\t'
p5440
tp5441
Rp5442
ag2
(g6
S'o\t'
p5443
tp5444
Rp5445
ag2
(g6
S'w\t'
p5446
tp5447
Rp5448
ag2
(g6
S'x\t'
p5449
tp5450
Rp5451
ag2
(g6
S'y\t'
p5452
tp5453
Rp5454
ag2
(g6
S'z\t'
p5455
tp5456
Rp5457
ag2
(g6
S'{\t'
p5458
tp5459
Rp5460
ag2
(g6
S'\x80\t'
p5461
tp5462
Rp5463
ag2
(g6
S'\x81\t'
p5464
tp5465
Rp5466
ag2
(g6
S'\x82\t'
p5467
tp5468
Rp5469
ag2
(g6
S'\x83\t'
p5470
tp5471
Rp5472
ag2
(g6
S'\x84\t'
p5473
tp5474
Rp5475
ag2
(g6
S'\x85\t'
p5476
tp5477
Rp5478
ag2
(g6
S'\x8b\t'
p5479
tp5480
Rp5481
ag2
(g6
S'\x8c\t'
p5482
tp5483
Rp5484
ag2
(g6
S'\x8d\t'
p5485
tp5486
Rp5487
ag2
(g6
S'\x8e\t'
p5488
tp5489
Rp5490
ag2
(g6
S'\x8f\t'
p5491
tp5492
Rp5493
ag2
(g6
S'\x90\t'
p5494
tp5495
Rp5496
ag2
(g6
S'\x91\t'
p5497
tp5498
Rp5499
ag2
(g6
S'\x97\t'
p5500
tp5501
Rp5502
ag2
(g6
S'\x98\t'
p5503
tp5504
Rp5505
ag2
(g6
S'\x99\t'
p5506
tp5507
Rp5508
ag2
(g6
S'\x9a\t'
p5509
tp5510
Rp5511
ag2
(g6
S'\x9b\t'
p5512
tp5513
Rp5514
ag2
(g6
S'\x9c\t'
p5515
tp5516
Rp5517
ag2
(g6
S'\x9d\t'
p5518
tp5519
Rp5520
ag2
(g6
S'\xa3\t'
p5521
tp5522
Rp5523
ag2
(g6
S'\xa4\t'
p5524
tp5525
Rp5526
ag2
(g6
S'\xa5\t'
p5527
tp5528
Rp5529
ag2
(g6
S'\xa6\t'
p5530
tp5531
Rp5532
ag2
(g6
S'\xa7\t'
p5533
tp5534
Rp5535
ag2
(g6
S'\xa8\t'
p5536
tp5537
Rp5538
ag2
(g6
S'\xa9\t'
p5539
tp5540
Rp5541
ag2
(g6
S'\xb0\t'
p5542
tp5543
Rp5544
ag2
(g6
S'\xb1\t'
p5545
tp5546
Rp5547
ag2
(g6
S'\xb2\t'
p5548
tp5549
Rp5550
ag2
(g6
S'\xb3\t'
p5551
tp5552
Rp5553
ag2
(g6
S'\xb4\t'
p5554
tp5555
Rp5556
ag2
(g6
S'\xb5\t'
p5557
tp5558
Rp5559
ag2
(g6
S'\xb6\t'
p5560
tp5561
Rp5562
ag2
(g6
S'\xbd\t'
p5563
tp5564
Rp5565
ag2
(g6
S'\xbe\t'
p5566
tp5567
Rp5568
ag2
(g6
S'\xbf\t'
p5569
tp5570
Rp5571
ag2
(g6
S'\xc0\t'
p5572
tp5573
Rp5574
ag2
(g6
S'\xc1\t'
p5575
tp5576
Rp5577
ag2
(g6
S'\xc2\t'
p5578
tp5579
Rp5580
ag2
(g6
S'\xc3\t'
p5581
tp5582
Rp5583
ag2
(g6
S'\xc7\t'
p5584
tp5585
Rp5586
ag2
(g6
S'\xc8\t'
p5587
tp5588
Rp5589
ag2
(g6
S'\xc9\t'
p5590
tp5591
Rp5592
ag2
(g6
S'\xca\t'
p5593
tp5594
Rp5595
ag2
(g6
S'\xcb\t'
p5596
tp5597
Rp5598
ag2
(g6
S'\xcc\t'
p5599
tp5600
Rp5601
ag2
(g6
S'\xd1\t'
p5602
tp5603
Rp5604
ag2
(g6
S'\xd2\t'
p5605
tp5606
Rp5607
ag2
(g6
S'\xd3\t'
p5608
tp5609
Rp5610
ag2
(g6
S'\xd4\t'
p5611
tp5612
Rp5613
ag2
(g6
S'\xc1\x0b'
p5614
tp5615
Rp5616
ag2
(g6
S'\xc2\x0b'
p5617
tp5618
Rp5619
ag2
(g6
S'\xc3\x0b'
p5620
tp5621
Rp5622
ag2
(g6
S'\xcb\x0b'
p5623
tp5624
Rp5625
ag2
(g6
S'\xcc\x0b'
p5626
tp5627
Rp5628
ag2
(g6
S'\xcd\x0b'
p5629
tp5630
Rp5631
ag2
(g6
S'\xce\x0b'
p5632
tp5633
Rp5634
ag2
(g6
S'\xcf\x0b'
p5635
tp5636
Rp5637
ag2
(g6
S'\xd6\x0b'
p5638
tp5639
Rp5640
ag2
(g6
S'\xd7\x0b'
p5641
tp5642
Rp5643
ag2
(g6
S'\xd8\x0b'
p5644
tp5645
Rp5646
ag2
(g6
S'\xd9\x0b'
p5647
tp5648
Rp5649
ag2
(g6
S'\xda\x0b'
p5650
tp5651
Rp5652
ag2
(g6
S'\xdb\x0b'
p5653
tp5654
Rp5655
ag2
(g6
S'\xe1\x0b'
p5656
tp5657
Rp5658
ag2
(g6
S'\xe2\x0b'
p5659
tp5660
Rp5661
ag2
(g6
S'\xe3\x0b'
p5662
tp5663
Rp5664
ag2
(g6
S'\xe4\x0b'
p5665
tp5666
Rp5667
ag2
(g6
S'\xe5\x0b'
p5668
tp5669
Rp5670
ag2
(g6
S'\xe6\x0b'
p5671
tp5672
Rp5673
ag2
(g6
S'\xe7\x0b'
p5674
tp5675
Rp5676
ag2
(g6
S'\xed\x0b'
p5677
tp5678
Rp5679
ag2
(g6
S'\xee\x0b'
p5680
tp5681
Rp5682
ag2
(g6
S'\xef\x0b'
p5683
tp5684
Rp5685
ag2
(g6
S'\xf0\x0b'
p5686
tp5687
Rp5688
ag2
(g6
S'\xf1\x0b'
p5689
tp5690
Rp5691
ag2
(g6
S'\xf2\x0b'
p5692
tp5693
Rp5694
ag2
(g6
S'\xf3\x0b'
p5695
tp5696
Rp5697
ag2
(g6
S'\xf4\x0b'
p5698
tp5699
Rp5700
ag2
(g6
S'\xfb\x0b'
p5701
tp5702
Rp5703
ag2
(g6
S'\xfc\x0b'
p5704
tp5705
Rp5706
ag2
(g6
S'\xfd\x0b'
p5707
tp5708
Rp5709
ag2
(g6
S'\xfe\x0b'
p5710
tp5711
Rp5712
ag2
(g6
S'\xff\x0b'
p5713
tp5714
Rp5715
ag2
(g6
S'\x00\x0c'
p5716
tp5717
Rp5718
ag2
(g6
S'\x01\x0c'
p5719
tp5720
Rp5721
ag2
(g6
S'\x02\x0c'
p5722
tp5723
Rp5724
ag2
(g6
S'\x08\x0c'
p5725
tp5726
Rp5727
ag2
(g6
S'\t\x0c'
p5728
tp5729
Rp5730
ag2
(g6
S'\n\x0c'
p5731
tp5732
Rp5733
ag2
(g6
S'\x0b\x0c'
p5734
tp5735
Rp5736
ag2
(g6
S'\x0c\x0c'
p5737
tp5738
Rp5739
ag2
(g6
S'\r\x0c'
p5740
tp5741
Rp5742
ag2
(g6
S'\x0e\x0c'
p5743
tp5744
Rp5745
ag2
(g6
S'\x14\x0c'
p5746
tp5747
Rp5748
ag2
(g6
S'\x15\x0c'
p5749
tp5750
Rp5751
ag2
(g6
S'\x16\x0c'
p5752
tp5753
Rp5754
ag2
(g6
S'\x17\x0c'
p5755
tp5756
Rp5757
ag2
(g6
S'\x18\x0c'
p5758
tp5759
Rp5760
ag2
(g6
S'\x19\x0c'
p5761
tp5762
Rp5763
ag2
(g6
S'\x1a\x0c'
p5764
tp5765
Rp5766
ag2
(g6
S'\x1f\x0c'
p5767
tp5768
Rp5769
ag2
(g6
S'2\x0e'
p5770
tp5771
Rp5772
ag2
(g6
S'3\x0e'
p5773
tp5774
Rp5775
ag2
(g6
S'4\x0e'
p5776
tp5777
Rp5778
ag2
(g6
S'5\x0e'
p5779
tp5780
Rp5781
ag2
(g6
S'6\x0e'
p5782
tp5783
Rp5784
ag2
(g6
S'=\x0e'
p5785
tp5786
Rp5787
ag2
(g6
S'>\x0e'
p5788
tp5789
Rp5790
ag2
(g6
S'?\x0e'
p5791
tp5792
Rp5793
ag2
(g6
S'@\x0e'
p5794
tp5795
Rp5796
ag2
(g6
S'A\x0e'
p5797
tp5798
Rp5799
ag2
(g6
S'B\x0e'
p5800
tp5801
Rp5802
ag2
(g6
S'H\x0e'
p5803
tp5804
Rp5805
ag2
(g6
S'I\x0e'
p5806
tp5807
Rp5808
ag2
(g6
S'J\x0e'
p5809
tp5810
Rp5811
ag2
(g6
S'K\x0e'
p5812
tp5813
Rp5814
ag2
(g6
S'L\x0e'
p5815
tp5816
Rp5817
ag2
(g6
S'M\x0e'
p5818
tp5819
Rp5820
ag2
(g6
S'N\x0e'
p5821
tp5822
Rp5823
ag2
(g6
S'S\x0e'
p5824
tp5825
Rp5826
ag2
(g6
S'T\x0e'
p5827
tp5828
Rp5829
ag2
(g6
S'U\x0e'
p5830
tp5831
Rp5832
ag2
(g6
S'V\x0e'
p5833
tp5834
Rp5835
ag2
(g6
S'W\x0e'
p5836
tp5837
Rp5838
ag2
(g6
S'X\x0e'
p5839
tp5840
Rp5841
ag2
(g6
S'\x85\x10'
p5842
tp5843
Rp5844
ag2
(g6
S'\x86\x10'
p5845
tp5846
Rp5847
ag2
(g6
S'\x87\x10'
p5848
tp5849
Rp5850
ag2
(g6
S'\x8a\x10'
p5851
tp5852
Rp5853
ag2
(g6
S'\x8b\x10'
p5854
tp5855
Rp5856
ag2
(g6
S'\x94\x10'
p5857
tp5858
Rp5859
ag2
(g6
S'\x95\x10'
p5860
tp5861
Rp5862
ag2
(g6
S'\x96\x10'
p5863
tp5864
Rp5865
ag2
(g6
S'\x97\x10'
p5866
tp5867
Rp5868
ag2
(g6
S'\x98\x10'
p5869
tp5870
Rp5871
ag2
(g6
S'\x99\x10'
p5872
tp5873
Rp5874
ag2
(g6
S'\x9a\x10'
p5875
tp5876
Rp5877
ag2
(g6
S'\x9b\x10'
p5878
tp5879
Rp5880
ag2
(g6
S'\xa2\x10'
p5881
tp5882
Rp5883
ag2
(g6
S'\xa3\x10'
p5884
tp5885
Rp5886
ag2
(g6
S'\xa4\x10'
p5887
tp5888
Rp5889
ag2
(g6
S'\xa5\x10'
p5890
tp5891
Rp5892
ag2
(g6
S'\xa6\x10'
p5893
tp5894
Rp5895
ag2
(g6
S'\xa7\x10'
p5896
tp5897
Rp5898
ag2
(g6
S'\xa8\x10'
p5899
tp5900
Rp5901
ag2
(g6
S'\xa9\x10'
p5902
tp5903
Rp5904
ag2
(g6
S'\xad\x10'
p5905
tp5906
Rp5907
ag2
(g6
S'\xae\x10'
p5908
tp5909
Rp5910
ag2
(g6
S'\xaf\x10'
p5911
tp5912
Rp5913
ag2
(g6
S'\xb0\x10'
p5914
tp5915
Rp5916
ag2
(g6
S'\xb1\x10'
p5917
tp5918
Rp5919
ag2
(g6
S'\xb2\x10'
p5920
tp5921
Rp5922
ag2
(g6
S'\xb4\x10'
p5923
tp5924
Rp5925
ag2
(g6
S'\xb5\x10'
p5926
tp5927
Rp5928
ag2
(g6
S'\xb6\x10'
p5929
tp5930
Rp5931
ag2
(g6
S'\xb7\x10'
p5932
tp5933
Rp5934
ag2
(g6
S'\xb8\x10'
p5935
tp5936
Rp5937
ag2
(g6
S'\xb9\x10'
p5938
tp5939
Rp5940
aa(lp5941
g2
(g6
S'\x81\x00'
p5942
tp5943
Rp5944
ag2
(g6
S'\x82\x00'
p5945
tp5946
Rp5947
ag2
(g6
S'\x83\x00'
p5948
tp5949
Rp5950
ag2
(g6
S'\x92\x00'
p5951
tp5952
Rp5953
ag2
(g6
S'\x93\x00'
p5954
tp5955
Rp5956
ag2
(g6
S'\x94\x00'
p5957
tp5958
Rp5959
ag2
(g6
S'\x95\x00'
p5960
tp5961
Rp5962
ag2
(g6
S'\x97\x00'
p5963
tp5964
Rp5965
ag2
(g6
S'\x98\x00'
p5966
tp5967
Rp5968
ag2
(g6
S'\x99\x00'
p5969
tp5970
Rp5971
ag2
(g6
S'\x9a\x00'
p5972
tp5973
Rp5974
ag2
(g6
S'\xa9\x00'
p5975
tp5976
Rp5977
ag2
(g6
S'\xaa\x00'
p5978
tp5979
Rp5980
ag2
(g6
S'\xab\x00'
p5981
tp5982
Rp5983
ag2
(g6
S'\xac\x00'
p5984
tp5985
Rp5986
ag2
(g6
S'\xad\x00'
p5987
tp5988
Rp5989
ag2
(g6
S'\xae\x00'
p5990
tp5991
Rp5992
ag2
(g6
S'\xaf\x00'
p5993
tp5994
Rp5995
ag2
(g6
S'\xb0\x00'
p5996
tp5997
Rp5998
ag2
(g6
S'\xb1\x00'
p5999
tp6000
Rp6001
ag2
(g6
S'\xc0\x00'
p6002
tp6003
Rp6004
ag2
(g6
S'\xc1\x00'
p6005
tp6006
Rp6007
ag2
(g6
S'\xc2\x00'
p6008
tp6009
Rp6010
ag2
(g6
S'\xc3\x00'
p6011
tp6012
Rp6013
ag2
(g6
S'\xc4\x00'
p6014
tp6015
Rp6016
ag2
(g6
S'\xc5\x00'
p6017
tp6018
Rp6019
ag2
(g6
S'\xc6\x00'
p6020
tp6021
Rp6022
ag2
(g6
S'\xc7\x00'
p6023
tp6024
Rp6025
ag2
(g6
S'\xc8\x00'
p6026
tp6027
Rp6028
ag2
(g6
S'\xd6\x00'
p6029
tp6030
Rp6031
ag2
(g6
S'\xd7\x00'
p6032
tp6033
Rp6034
ag2
(g6
S'\xd8\x00'
p6035
tp6036
Rp6037
ag2
(g6
S'\xd9\x00'
p6038
tp6039
Rp6040
ag2
(g6
S'\xda\x00'
p6041
tp6042
Rp6043
ag2
(g6
S'\xdb\x00'
p6044
tp6045
Rp6046
ag2
(g6
S'\xdc\x00'
p6047
tp6048
Rp6049
ag2
(g6
S'\xdd\x00'
p6050
tp6051
Rp6052
ag2
(g6
S'\xea\x00'
p6053
tp6054
Rp6055
ag2
(g6
S'\xeb\x00'
p6056
tp6057
Rp6058
ag2
(g6
S'\xec\x00'
p6059
tp6060
Rp6061
ag2
(g6
S'\xed\x00'
p6062
tp6063
Rp6064
ag2
(g6
S'\xee\x00'
p6065
tp6066
Rp6067
ag2
(g6
S't\x02'
p6068
tp6069
Rp6070
ag2
(g6
S'u\x02'
p6071
tp6072
Rp6073
ag2
(g6
S'v\x02'
p6074
tp6075
Rp6076
ag2
(g6
S'w\x02'
p6077
tp6078
Rp6079
ag2
(g6
S'x\x02'
p6080
tp6081
Rp6082
ag2
(g6
S'y\x02'
p6083
tp6084
Rp6085
ag2
(g6
S'z\x02'
p6086
tp6087
Rp6088
ag2
(g6
S'\x8b\x02'
p6089
tp6090
Rp6091
ag2
(g6
S'\x8c\x02'
p6092
tp6093
Rp6094
ag2
(g6
S'\x8d\x02'
p6095
tp6096
Rp6097
ag2
(g6
S'\x8e\x02'
p6098
tp6099
Rp6100
ag2
(g6
S'\x8f\x02'
p6101
tp6102
Rp6103
ag2
(g6
S'\x90\x02'
p6104
tp6105
Rp6106
ag2
(g6
S'\x91\x02'
p6107
tp6108
Rp6109
ag2
(g6
S'\x92\x02'
p6110
tp6111
Rp6112
ag2
(g6
S'\x93\x02'
p6113
tp6114
Rp6115
ag2
(g6
S'\x94\x02'
p6116
tp6117
Rp6118
ag2
(g6
S'\xa4\x02'
p6119
tp6120
Rp6121
ag2
(g6
S'\xa5\x02'
p6122
tp6123
Rp6124
ag2
(g6
S'\xa6\x02'
p6125
tp6126
Rp6127
ag2
(g6
S'\xa7\x02'
p6128
tp6129
Rp6130
ag2
(g6
S'\xa8\x02'
p6131
tp6132
Rp6133
ag2
(g6
S'\xa9\x02'
p6134
tp6135
Rp6136
ag2
(g6
S'\xaa\x02'
p6137
tp6138
Rp6139
ag2
(g6
S'\xab\x02'
p6140
tp6141
Rp6142
ag2
(g6
S'\xac\x02'
p6143
tp6144
Rp6145
ag2
(g6
S'\xad\x02'
p6146
tp6147
Rp6148
ag2
(g6
S'\xbc\x02'
p6149
tp6150
Rp6151
ag2
(g6
S'\xbd\x02'
p6152
tp6153
Rp6154
ag2
(g6
S'\xbe\x02'
p6155
tp6156
Rp6157
ag2
(g6
S'\xbf\x02'
p6158
tp6159
Rp6160
ag2
(g6
S'\xc0\x02'
p6161
tp6162
Rp6163
ag2
(g6
S'\xc1\x02'
p6164
tp6165
Rp6166
ag2
(g6
S'\xc2\x02'
p6167
tp6168
Rp6169
ag2
(g6
S'\xc3\x02'
p6170
tp6171
Rp6172
ag2
(g6
S'\xc4\x02'
p6173
tp6174
Rp6175
ag2
(g6
S'\xd2\x02'
p6176
tp6177
Rp6178
ag2
(g6
S'\xd3\x02'
p6179
tp6180
Rp6181
ag2
(g6
S'\xd4\x02'
p6182
tp6183
Rp6184
ag2
(g6
S'\xd5\x02'
p6185
tp6186
Rp6187
ag2
(g6
S'\xd6\x02'
p6188
tp6189
Rp6190
ag2
(g6
S'\x95\x04'
p6191
tp6192
Rp6193
ag2
(g6
S'\x96\x04'
p6194
tp6195
Rp6196
ag2
(g6
S'\xb0\x04'
p6197
tp6198
Rp6199
ag2
(g6
S'\xb1\x04'
p6200
tp6201
Rp6202
ag2
(g6
S'\xb2\x04'
p6203
tp6204
Rp6205
ag2
(g6
S'\xb3\x04'
p6206
tp6207
Rp6208
ag2
(g6
S'\xc9\x04'
p6209
tp6210
Rp6211
ag2
(g6
S'\xca\x04'
p6212
tp6213
Rp6214
ag2
(g6
S'\xcb\x04'
p6215
tp6216
Rp6217
ag2
(g6
S'\xcc\x04'
p6218
tp6219
Rp6220
ag2
(g6
S'\xcd\x04'
p6221
tp6222
Rp6223
ag2
(g6
S'\xce\x04'
p6224
tp6225
Rp6226
ag2
(g6
S'\xcf\x04'
p6227
tp6228
Rp6229
ag2
(g6
S'\xe2\x04'
p6230
tp6231
Rp6232
ag2
(g6
S'\xe3\x04'
p6233
tp6234
Rp6235
ag2
(g6
S'\xe4\x04'
p6236
tp6237
Rp6238
ag2
(g6
S'\xe5\x04'
p6239
tp6240
Rp6241
ag2
(g6
S'\xe6\x04'
p6242
tp6243
Rp6244
ag2
(g6
S'\xe7\x04'
p6245
tp6246
Rp6247
ag2
(g6
S'\xe8\x04'
p6248
tp6249
Rp6250
ag2
(g6
S'\xe9\x04'
p6251
tp6252
Rp6253
ag2
(g6
S'\xfb\x04'
p6254
tp6255
Rp6256
ag2
(g6
S'\xfc\x04'
p6257
tp6258
Rp6259
ag2
(g6
S'\xfd\x04'
p6260
tp6261
Rp6262
ag2
(g6
S'\xfe\x04'
p6263
tp6264
Rp6265
ag2
(g6
S'\xff\x04'
p6266
tp6267
Rp6268
ag2
(g6
S'\x00\x05'
p6269
tp6270
Rp6271
ag2
(g6
S'\x01\x05'
p6272
tp6273
Rp6274
ag2
(g6
S'\x02\x05'
p6275
tp6276
Rp6277
ag2
(g6
S'\x03\x05'
p6278
tp6279
Rp6280
ag2
(g6
S'\x13\x05'
p6281
tp6282
Rp6283
ag2
(g6
S'\x14\x05'
p6284
tp6285
Rp6286
ag2
(g6
S'\x15\x05'
p6287
tp6288
Rp6289
ag2
(g6
S'\x16\x05'
p6290
tp6291
Rp6292
ag2
(g6
S'#\x05'
p6293
tp6294
Rp6295
ag2
(g6
S'$\x05'
p6296
tp6297
Rp6298
ag2
(g6
S'%\x05'
p6299
tp6300
Rp6301
ag2
(g6
S'&\x05'
p6302
tp6303
Rp6304
ag2
(g6
S'3\x07'
p6305
tp6306
Rp6307
ag2
(g6
S'4\x07'
p6308
tp6309
Rp6310
ag2
(g6
S'@\x07'
p6311
tp6312
Rp6313
ag2
(g6
S'A\x07'
p6314
tp6315
Rp6316
ag2
(g6
S'B\x07'
p6317
tp6318
Rp6319
ag2
(g6
S'C\x07'
p6320
tp6321
Rp6322
ag2
(g6
S'N\x07'
p6323
tp6324
Rp6325
ag2
(g6
S'O\x07'
p6326
tp6327
Rp6328
ag2
(g6
S'P\x07'
p6329
tp6330
Rp6331
ag2
(g6
S'Q\x07'
p6332
tp6333
Rp6334
ag2
(g6
S'R\x07'
p6335
tp6336
Rp6337
ag2
(g6
S'S\x07'
p6338
tp6339
Rp6340
ag2
(g6
S'^\x07'
p6341
tp6342
Rp6343
ag2
(g6
S'_\x07'
p6344
tp6345
Rp6346
ag2
(g6
S'`\x07'
p6347
tp6348
Rp6349
ag2
(g6
S'a\x07'
p6350
tp6351
Rp6352
ag2
(g6
S'b\x07'
p6353
tp6354
Rp6355
ag2
(g6
S'c\x07'
p6356
tp6357
Rp6358
ag2
(g6
S'd\x07'
p6359
tp6360
Rp6361
ag2
(g6
S'e\x07'
p6362
tp6363
Rp6364
ag2
(g6
S'o\x07'
p6365
tp6366
Rp6367
ag2
(g6
S'p\x07'
p6368
tp6369
Rp6370
ag2
(g6
S'q\x07'
p6371
tp6372
Rp6373
ag2
(g6
S'r\x07'
p6374
tp6375
Rp6376
ag2
(g6
S's\x07'
p6377
tp6378
Rp6379
ag2
(g6
S't\x07'
p6380
tp6381
Rp6382
ag2
(g6
S'u\x07'
p6383
tp6384
Rp6385
ag2
(g6
S'{\x07'
p6386
tp6387
Rp6388
ag2
(g6
S'|\x07'
p6389
tp6390
Rp6391
ag2
(g6
S'}\x07'
p6392
tp6393
Rp6394
ag2
(g6
S'~\x07'
p6395
tp6396
Rp6397
ag2
(g6
S'\x7f\x07'
p6398
tp6399
Rp6400
aa(lp6401
g2
(g6
S'\xe2\x02'
p6402
tp6403
Rp6404
ag2
(g6
S'\xe5\x02'
p6405
tp6406
Rp6407
ag2
(g6
S'\xe6\x02'
p6408
tp6409
Rp6410
ag2
(g6
S'\xe7\x02'
p6411
tp6412
Rp6413
ag2
(g6
S'\xe8\x02'
p6414
tp6415
Rp6416
ag2
(g6
S'\xe9\x02'
p6417
tp6418
Rp6419
aa(lp6420
g2
(g6
S'>\x01'
p6421
tp6422
Rp6423
ag2
(g6
S'?\x01'
p6424
tp6425
Rp6426
ag2
(g6
S'@\x01'
p6427
tp6428
Rp6429
ag2
(g6
S'T\x01'
p6430
tp6431
Rp6432
ag2
(g6
S'U\x01'
p6433
tp6434
Rp6435
ag2
(g6
S'V\x01'
p6436
tp6437
Rp6438
ag2
(g6
S'W\x01'
p6439
tp6440
Rp6441
ag2
(g6
S'X\x01'
p6442
tp6443
Rp6444
ag2
(g6
S'Y\x01'
p6445
tp6446
Rp6447
ag2
(g6
S'Z\x01'
p6448
tp6449
Rp6450
ag2
(g6
S'[\x01'
p6451
tp6452
Rp6453
ag2
(g6
S']\x01'
p6454
tp6455
Rp6456
ag2
(g6
S'n\x01'
p6457
tp6458
Rp6459
ag2
(g6
S'o\x01'
p6460
tp6461
Rp6462
ag2
(g6
S'p\x01'
p6463
tp6464
Rp6465
ag2
(g6
S'q\x01'
p6466
tp6467
Rp6468
ag2
(g6
S'r\x01'
p6469
tp6470
Rp6471
ag2
(g6
S's\x01'
p6472
tp6473
Rp6474
ag2
(g6
S't\x01'
p6475
tp6476
Rp6477
ag2
(g6
S'u\x01'
p6478
tp6479
Rp6480
ag2
(g6
S'v\x01'
p6481
tp6482
Rp6483
ag2
(g6
S'\x86\x01'
p6484
tp6485
Rp6486
ag2
(g6
S'\x87\x01'
p6487
tp6488
Rp6489
ag2
(g6
S'\x88\x01'
p6490
tp6491
Rp6492
ag2
(g6
S'\x89\x01'
p6493
tp6494
Rp6495
ag2
(g6
S'\x8a\x01'
p6496
tp6497
Rp6498
ag2
(g6
S'\x8b\x01'
p6499
tp6500
Rp6501
ag2
(g6
S'\x8c\x01'
p6502
tp6503
Rp6504
ag2
(g6
S'\x8d\x01'
p6505
tp6506
Rp6507
ag2
(g6
S'\x8e\x01'
p6508
tp6509
Rp6510
ag2
(g6
S'\x8f\x01'
p6511
tp6512
Rp6513
ag2
(g6
S'\x9a\x01'
p6514
tp6515
Rp6516
ag2
(g6
S'\x9b\x01'
p6517
tp6518
Rp6519
ag2
(g6
S'\x9c\x01'
p6520
tp6521
Rp6522
ag2
(g6
S'\x9d\x01'
p6523
tp6524
Rp6525
ag2
(g6
S'\x9e\x01'
p6526
tp6527
Rp6528
ag2
(g6
S'\x9f\x01'
p6529
tp6530
Rp6531
ag2
(g6
S'\xa0\x01'
p6532
tp6533
Rp6534
ag2
(g6
S'\xa1\x01'
p6535
tp6536
Rp6537
ag2
(g6
S'\xa2\x01'
p6538
tp6539
Rp6540
ag2
(g6
S'\xac\x01'
p6541
tp6542
Rp6543
ag2
(g6
S'\xad\x01'
p6544
tp6545
Rp6546
ag2
(g6
S'\xae\x01'
p6547
tp6548
Rp6549
ag2
(g6
S'\xaf\x01'
p6550
tp6551
Rp6552
ag2
(g6
S'\xb0\x01'
p6553
tp6554
Rp6555
ag2
(g6
S'\xb1\x01'
p6556
tp6557
Rp6558
ag2
(g6
S'\xb2\x01'
p6559
tp6560
Rp6561
ag2
(g6
S'\xb3\x01'
p6562
tp6563
Rp6564
ag2
(g6
S'\xbb\x01'
p6565
tp6566
Rp6567
ag2
(g6
S'\xbc\x01'
p6568
tp6569
Rp6570
ag2
(g6
S'\xbd\x01'
p6571
tp6572
Rp6573
ag2
(g6
S'\xbe\x01'
p6574
tp6575
Rp6576
ag2
(g6
S'\xbf\x01'
p6577
tp6578
Rp6579
ag2
(g6
S'\xc0\x01'
p6580
tp6581
Rp6582
ag2
(g6
S'\xc1\x01'
p6583
tp6584
Rp6585
ag2
(g6
S'\xc2\x01'
p6586
tp6587
Rp6588
ag2
(g6
S'\xc5\x01'
p6589
tp6590
Rp6591
ag2
(g6
S'\xc6\x01'
p6592
tp6593
Rp6594
ag2
(g6
S'\xc7\x01'
p6595
tp6596
Rp6597
ag2
(g6
S'?\x03'
p6598
tp6599
Rp6600
ag2
(g6
S'@\x03'
p6601
tp6602
Rp6603
ag2
(g6
S'A\x03'
p6604
tp6605
Rp6606
ag2
(g6
S'B\x03'
p6607
tp6608
Rp6609
ag2
(g6
S'C\x03'
p6610
tp6611
Rp6612
ag2
(g6
S'D\x03'
p6613
tp6614
Rp6615
ag2
(g6
S'E\x03'
p6616
tp6617
Rp6618
ag2
(g6
S'W\x03'
p6619
tp6620
Rp6621
ag2
(g6
S'X\x03'
p6622
tp6623
Rp6624
ag2
(g6
S'Y\x03'
p6625
tp6626
Rp6627
ag2
(g6
S'Z\x03'
p6628
tp6629
Rp6630
ag2
(g6
S'[\x03'
p6631
tp6632
Rp6633
ag2
(g6
S'\\\x03'
p6634
tp6635
Rp6636
ag2
(g6
S']\x03'
p6637
tp6638
Rp6639
ag2
(g6
S'^\x03'
p6640
tp6641
Rp6642
ag2
(g6
S'_\x03'
p6643
tp6644
Rp6645
ag2
(g6
S'l\x03'
p6646
tp6647
Rp6648
ag2
(g6
S'm\x03'
p6649
tp6650
Rp6651
ag2
(g6
S'n\x03'
p6652
tp6653
Rp6654
ag2
(g6
S'o\x03'
p6655
tp6656
Rp6657
ag2
(g6
S'p\x03'
p6658
tp6659
Rp6660
ag2
(g6
S'q\x03'
p6661
tp6662
Rp6663
ag2
(g6
S'r\x03'
p6664
tp6665
Rp6666
ag2
(g6
S's\x03'
p6667
tp6668
Rp6669
ag2
(g6
S't\x03'
p6670
tp6671
Rp6672
ag2
(g6
S'u\x03'
p6673
tp6674
Rp6675
ag2
(g6
S'\x85\x03'
p6676
tp6677
Rp6678
ag2
(g6
S'\x86\x03'
p6679
tp6680
Rp6681
ag2
(g6
S'\x87\x03'
p6682
tp6683
Rp6684
ag2
(g6
S'\x88\x03'
p6685
tp6686
Rp6687
ag2
(g6
S'\x89\x03'
p6688
tp6689
Rp6690
ag2
(g6
S'\x8a\x03'
p6691
tp6692
Rp6693
ag2
(g6
S'\x8b\x03'
p6694
tp6695
Rp6696
ag2
(g6
S'\x8c\x03'
p6697
tp6698
Rp6699
ag2
(g6
S'\x8d\x03'
p6700
tp6701
Rp6702
ag2
(g6
S'\x8e\x03'
p6703
tp6704
Rp6705
ag2
(g6
S'\x9d\x03'
p6706
tp6707
Rp6708
ag2
(g6
S'\x9e\x03'
p6709
tp6710
Rp6711
ag2
(g6
S'\x9f\x03'
p6712
tp6713
Rp6714
ag2
(g6
S'\xa0\x03'
p6715
tp6716
Rp6717
ag2
(g6
S'\xa1\x03'
p6718
tp6719
Rp6720
ag2
(g6
S'\xa2\x03'
p6721
tp6722
Rp6723
ag2
(g6
S'\xa3\x03'
p6724
tp6725
Rp6726
ag2
(g6
S'\xa4\x03'
p6727
tp6728
Rp6729
ag2
(g6
S'\xa5\x03'
p6730
tp6731
Rp6732
ag2
(g6
S'\xa6\x03'
p6733
tp6734
Rp6735
ag2
(g6
S'\xb4\x03'
p6736
tp6737
Rp6738
ag2
(g6
S'\xb5\x03'
p6739
tp6740
Rp6741
ag2
(g6
S'\xb6\x03'
p6742
tp6743
Rp6744
ag2
(g6
S'\xb7\x03'
p6745
tp6746
Rp6747
ag2
(g6
S'\xb8\x03'
p6748
tp6749
Rp6750
ag2
(g6
S'\xb9\x03'
p6751
tp6752
Rp6753
ag2
(g6
S'\xba\x03'
p6754
tp6755
Rp6756
ag2
(g6
S'\xbb\x03'
p6757
tp6758
Rp6759
ag2
(g6
S'\xbc\x03'
p6760
tp6761
Rp6762
ag2
(g6
S'\xc9\x03'
p6763
tp6764
Rp6765
ag2
(g6
S'\xca\x03'
p6766
tp6767
Rp6768
ag2
(g6
S'\xcb\x03'
p6769
tp6770
Rp6771
ag2
(g6
S'\xcc\x03'
p6772
tp6773
Rp6774
ag2
(g6
S'\xcd\x03'
p6775
tp6776
Rp6777
ag2
(g6
S'\xce\x03'
p6778
tp6779
Rp6780
ag2
(g6
S'\xcf\x03'
p6781
tp6782
Rp6783
ag2
(g6
S'\xd0\x03'
p6784
tp6785
Rp6786
ag2
(g6
S'\xdc\x03'
p6787
tp6788
Rp6789
ag2
(g6
S'\xdd\x03'
p6790
tp6791
Rp6792
ag2
(g6
S'\xde\x03'
p6793
tp6794
Rp6795
ag2
(g6
S'\xdf\x03'
p6796
tp6797
Rp6798
ag2
(g6
S'\xe0\x03'
p6799
tp6800
Rp6801
ag2
(g6
S'\xe1\x03'
p6802
tp6803
Rp6804
ag2
(g6
S'\xe2\x03'
p6805
tp6806
Rp6807
ag2
(g6
S'\xeb\x03'
p6808
tp6809
Rp6810
ag2
(g6
S'\xec\x03'
p6811
tp6812
Rp6813
ag2
(g6
S'\xed\x03'
p6814
tp6815
Rp6816
ag2
(g6
S'\xee\x03'
p6817
tp6818
Rp6819
ag2
(g6
S'\xef\x03'
p6820
tp6821
Rp6822
ag2
(g6
S'\xf0\x03'
p6823
tp6824
Rp6825
ag2
(g6
S'\xf4\x03'
p6826
tp6827
Rp6828
ag2
(g6
S'\xf5\x03'
p6829
tp6830
Rp6831
ag2
(g6
S'\xf6\x03'
p6832
tp6833
Rp6834
ag2
(g6
S'\xf7\x03'
p6835
tp6836
Rp6837
ag2
(g6
S'\xf8\x03'
p6838
tp6839
Rp6840
ag2
(g6
S'\x95\x05'
p6841
tp6842
Rp6843
ag2
(g6
S'\xae\x05'
p6844
tp6845
Rp6846
ag2
(g6
S'\xaf\x05'
p6847
tp6848
Rp6849
ag2
(g6
S'\xb0\x05'
p6850
tp6851
Rp6852
ag2
(g6
S'\xb1\x05'
p6853
tp6854
Rp6855
ag2
(g6
S'\xb2\x05'
p6856
tp6857
Rp6858
ag2
(g6
S'\xb3\x05'
p6859
tp6860
Rp6861
ag2
(g6
S'\xb4\x05'
p6862
tp6863
Rp6864
ag2
(g6
S'\xcc\x05'
p6865
tp6866
Rp6867
ag2
(g6
S'\xcd\x05'
p6868
tp6869
Rp6870
ag2
(g6
S'\xce\x05'
p6871
tp6872
Rp6873
ag2
(g6
S'\xcf\x05'
p6874
tp6875
Rp6876
ag2
(g6
S'\xd0\x05'
p6877
tp6878
Rp6879
ag2
(g6
S'\xd1\x05'
p6880
tp6881
Rp6882
ag2
(g6
S'\xd2\x05'
p6883
tp6884
Rp6885
ag2
(g6
S'\xe8\x05'
p6886
tp6887
Rp6888
ag2
(g6
S'\xe9\x05'
p6889
tp6890
Rp6891
ag2
(g6
S'\xea\x05'
p6892
tp6893
Rp6894
ag2
(g6
S'\xeb\x05'
p6895
tp6896
Rp6897
ag2
(g6
S'\xec\x05'
p6898
tp6899
Rp6900
ag2
(g6
S'\xed\x05'
p6901
tp6902
Rp6903
ag2
(g6
S'\xee\x05'
p6904
tp6905
Rp6906
ag2
(g6
S'\xef\x05'
p6907
tp6908
Rp6909
ag2
(g6
S'\x04\x06'
p6910
tp6911
Rp6912
ag2
(g6
S'\x05\x06'
p6913
tp6914
Rp6915
ag2
(g6
S'\x06\x06'
p6916
tp6917
Rp6918
ag2
(g6
S'\x07\x06'
p6919
tp6920
Rp6921
ag2
(g6
S'\x08\x06'
p6922
tp6923
Rp6924
ag2
(g6
S'\t\x06'
p6925
tp6926
Rp6927
ag2
(g6
S'\n\x06'
p6928
tp6929
Rp6930
ag2
(g6
S'\x0b\x06'
p6931
tp6932
Rp6933
ag2
(g6
S'\x1e\x06'
p6934
tp6935
Rp6936
ag2
(g6
S'\x1f\x06'
p6937
tp6938
Rp6939
ag2
(g6
S' \x06'
p6940
tp6941
Rp6942
ag2
(g6
S'!\x06'
p6943
tp6944
Rp6945
ag2
(g6
S'"\x06'
p6946
tp6947
Rp6948
ag2
(g6
S'#\x06'
p6949
tp6950
Rp6951
ag2
(g6
S'$\x06'
p6952
tp6953
Rp6954
ag2
(g6
S'8\x06'
p6955
tp6956
Rp6957
ag2
(g6
S'9\x06'
p6958
tp6959
Rp6960
ag2
(g6
S':\x06'
p6961
tp6962
Rp6963
ag2
(g6
S';\x06'
p6964
tp6965
Rp6966
ag2
(g6
S'<\x06'
p6967
tp6968
Rp6969
ag2
(g6
S'=\x06'
p6970
tp6971
Rp6972
ag2
(g6
S'>\x06'
p6973
tp6974
Rp6975
ag2
(g6
S'O\x06'
p6976
tp6977
Rp6978
ag2
(g6
S'P\x06'
p6979
tp6980
Rp6981
ag2
(g6
S'Q\x06'
p6982
tp6983
Rp6984
ag2
(g6
S'R\x06'
p6985
tp6986
Rp6987
ag2
(g6
S'S\x06'
p6988
tp6989
Rp6990
ag2
(g6
S'T\x06'
p6991
tp6992
Rp6993
ag2
(g6
S'U\x06'
p6994
tp6995
Rp6996
ag2
(g6
S'd\x06'
p6997
tp6998
Rp6999
ag2
(g6
S'e\x06'
p7000
tp7001
Rp7002
ag2
(g6
S'f\x06'
p7003
tp7004
Rp7005
ag2
(g6
S'g\x06'
p7006
tp7007
Rp7008
ag2
(g6
S'h\x06'
p7009
tp7010
Rp7011
ag2
(g6
S'i\x06'
p7012
tp7013
Rp7014
ag2
(g6
S'j\x06'
p7015
tp7016
Rp7017
ag2
(g6
S'k\x06'
p7018
tp7019
Rp7020
ag2
(g6
S'w\x06'
p7021
tp7022
Rp7023
ag2
(g6
S'x\x06'
p7024
tp7025
Rp7026
ag2
(g6
S'y\x06'
p7027
tp7028
Rp7029
ag2
(g6
S'z\x06'
p7030
tp7031
Rp7032
ag2
(g6
S'{\x06'
p7033
tp7034
Rp7035
ag2
(g6
S'|\x06'
p7036
tp7037
Rp7038
ag2
(g6
S'}\x06'
p7039
tp7040
Rp7041
ag2
(g6
S'\x85\x06'
p7042
tp7043
Rp7044
ag2
(g6
S'\x86\x06'
p7045
tp7046
Rp7047
ag2
(g6
S'\x87\x06'
p7048
tp7049
Rp7050
ag2
(g6
S'\x88\x06'
p7051
tp7052
Rp7053
ag2
(g6
S'\x89\x06'
p7054
tp7055
Rp7056
ag2
(g6
S'\x8a\x06'
p7057
tp7058
Rp7059
ag2
(g6
S'\x8b\x06'
p7060
tp7061
Rp7062
ag2
(g6
S'\x8e\x06'
p7063
tp7064
Rp7065
ag2
(g6
S'\x8f\x06'
p7066
tp7067
Rp7068
ag2
(g6
S'\x90\x06'
p7069
tp7070
Rp7071
ag2
(g6
S'\x91\x06'
p7072
tp7073
Rp7074
ag2
(g6
S'\x92\x06'
p7075
tp7076
Rp7077
ag2
(g6
S'\x93\x06'
p7078
tp7079
Rp7080
ag2
(g6
S'\xd3\x07'
p7081
tp7082
Rp7083
ag2
(g6
S'\xeb\x07'
p7084
tp7085
Rp7086
ag2
(g6
S'\xec\x07'
p7087
tp7088
Rp7089
ag2
(g6
S'\xed\x07'
p7090
tp7091
Rp7092
ag2
(g6
S'\x05\x08'
p7093
tp7094
Rp7095
ag2
(g6
S'\x06\x08'
p7096
tp7097
Rp7098
ag2
(g6
S'\x07\x08'
p7099
tp7100
Rp7101
ag2
(g6
S'\x08\x08'
p7102
tp7103
Rp7104
ag2
(g6
S'\t\x08'
p7105
tp7106
Rp7107
ag2
(g6
S'\n\x08'
p7108
tp7109
Rp7110
ag2
(g6
S'!\x08'
p7111
tp7112
Rp7113
ag2
(g6
S'"\x08'
p7114
tp7115
Rp7116
ag2
(g6
S'#\x08'
p7117
tp7118
Rp7119
ag2
(g6
S'$\x08'
p7120
tp7121
Rp7122
ag2
(g6
S'%\x08'
p7123
tp7124
Rp7125
ag2
(g6
S'&\x08'
p7126
tp7127
Rp7128
ag2
(g6
S"'\x08"
p7129
tp7130
Rp7131
ag2
(g6
S'>\x08'
p7132
tp7133
Rp7134
ag2
(g6
S'?\x08'
p7135
tp7136
Rp7137
ag2
(g6
S'@\x08'
p7138
tp7139
Rp7140
ag2
(g6
S'A\x08'
p7141
tp7142
Rp7143
ag2
(g6
S'B\x08'
p7144
tp7145
Rp7146
ag2
(g6
S'C\x08'
p7147
tp7148
Rp7149
ag2
(g6
S'D\x08'
p7150
tp7151
Rp7152
ag2
(g6
S'Z\x08'
p7153
tp7154
Rp7155
ag2
(g6
S'[\x08'
p7156
tp7157
Rp7158
ag2
(g6
S'\\\x08'
p7159
tp7160
Rp7161
ag2
(g6
S']\x08'
p7162
tp7163
Rp7164
ag2
(g6
S'^\x08'
p7165
tp7166
Rp7167
ag2
(g6
S'_\x08'
p7168
tp7169
Rp7170
ag2
(g6
S'`\x08'
p7171
tp7172
Rp7173
ag2
(g6
S'a\x08'
p7174
tp7175
Rp7176
ag2
(g6
S'v\x08'
p7177
tp7178
Rp7179
ag2
(g6
S'w\x08'
p7180
tp7181
Rp7182
ag2
(g6
S'x\x08'
p7183
tp7184
Rp7185
ag2
(g6
S'y\x08'
p7186
tp7187
Rp7188
ag2
(g6
S'z\x08'
p7189
tp7190
Rp7191
ag2
(g6
S'{\x08'
p7192
tp7193
Rp7194
ag2
(g6
S'|\x08'
p7195
tp7196
Rp7197
ag2
(g6
S'}\x08'
p7198
tp7199
Rp7200
ag2
(g6
S'\x90\x08'
p7201
tp7202
Rp7203
ag2
(g6
S'\x91\x08'
p7204
tp7205
Rp7206
ag2
(g6
S'\x92\x08'
p7207
tp7208
Rp7209
ag2
(g6
S'\x93\x08'
p7210
tp7211
Rp7212
ag2
(g6
S'\x94\x08'
p7213
tp7214
Rp7215
ag2
(g6
S'\x95\x08'
p7216
tp7217
Rp7218
ag2
(g6
S'\xa9\x08'
p7219
tp7220
Rp7221
ag2
(g6
S'\xaa\x08'
p7222
tp7223
Rp7224
ag2
(g6
S'\xab\x08'
p7225
tp7226
Rp7227
ag2
(g6
S'\xac\x08'
p7228
tp7229
Rp7230
ag2
(g6
S'\xad\x08'
p7231
tp7232
Rp7233
ag2
(g6
S'\xae\x08'
p7234
tp7235
Rp7236
ag2
(g6
S'\xaf\x08'
p7237
tp7238
Rp7239
ag2
(g6
S'\xc1\x08'
p7240
tp7241
Rp7242
ag2
(g6
S'\xc2\x08'
p7243
tp7244
Rp7245
ag2
(g6
S'\xc3\x08'
p7246
tp7247
Rp7248
ag2
(g6
S'\xc4\x08'
p7249
tp7250
Rp7251
ag2
(g6
S'\xc5\x08'
p7252
tp7253
Rp7254
ag2
(g6
S'\xc6\x08'
p7255
tp7256
Rp7257
ag2
(g6
S'\xc7\x08'
p7258
tp7259
Rp7260
ag2
(g6
S'\xc8\x08'
p7261
tp7262
Rp7263
ag2
(g6
S'\xd7\x08'
p7264
tp7265
Rp7266
ag2
(g6
S'\xd8\x08'
p7267
tp7268
Rp7269
ag2
(g6
S'\xd9\x08'
p7270
tp7271
Rp7272
ag2
(g6
S'\xda\x08'
p7273
tp7274
Rp7275
ag2
(g6
S'\xdb\x08'
p7276
tp7277
Rp7278
ag2
(g6
S'\xdc\x08'
p7279
tp7280
Rp7281
ag2
(g6
S'\xdd\x08'
p7282
tp7283
Rp7284
ag2
(g6
S'\xde\x08'
p7285
tp7286
Rp7287
ag2
(g6
S'\xdf\x08'
p7288
tp7289
Rp7290
ag2
(g6
S'\xeb\x08'
p7291
tp7292
Rp7293
ag2
(g6
S'\xec\x08'
p7294
tp7295
Rp7296
ag2
(g6
S'\xed\x08'
p7297
tp7298
Rp7299
ag2
(g6
S'\xee\x08'
p7300
tp7301
Rp7302
ag2
(g6
S'\xef\x08'
p7303
tp7304
Rp7305
ag2
(g6
S'\xf0\x08'
p7306
tp7307
Rp7308
ag2
(g6
S'\xf1\x08'
p7309
tp7310
Rp7311
ag2
(g6
S'\xf2\x08'
p7312
tp7313
Rp7314
ag2
(g6
S'\xfb\x08'
p7315
tp7316
Rp7317
ag2
(g6
S'\xfc\x08'
p7318
tp7319
Rp7320
ag2
(g6
S'\xfd\x08'
p7321
tp7322
Rp7323
ag2
(g6
S'\xfe\x08'
p7324
tp7325
Rp7326
ag2
(g6
S'\xff\x08'
p7327
tp7328
Rp7329
ag2
(g6
S'\x00\t'
p7330
tp7331
Rp7332
ag2
(g6
S'\x01\t'
p7333
tp7334
Rp7335
ag2
(g6
S'\x02\t'
p7336
tp7337
Rp7338
ag2
(g6
S'\x03\t'
p7339
tp7340
Rp7341
ag2
(g6
S'\x04\t'
p7342
tp7343
Rp7344
aa(lp7345
g2
(g6
S'\xd5\t'
p7346
tp7347
Rp7348
ag2
(g6
S'\xd6\t'
p7349
tp7350
Rp7351
ag2
(g6
S'\xd7\t'
p7352
tp7353
Rp7354
ag2
(g6
S'\xd8\t'
p7355
tp7356
Rp7357
ag2
(g6
S'\xd9\t'
p7358
tp7359
Rp7360
ag2
(g6
S'\xda\t'
p7361
tp7362
Rp7363
ag2
(g6
S'\xdb\t'
p7364
tp7365
Rp7366
ag2
(g6
S'\xdc\t'
p7367
tp7368
Rp7369
ag2
(g6
S'\xdd\t'
p7370
tp7371
Rp7372
ag2
(g6
S'\xde\t'
p7373
tp7374
Rp7375
ag2
(g6
S'\xdf\t'
p7376
tp7377
Rp7378
ag2
(g6
S'\xe0\t'
p7379
tp7380
Rp7381
ag2
(g6
S'\xe1\t'
p7382
tp7383
Rp7384
ag2
(g6
S'\xe2\t'
p7385
tp7386
Rp7387
ag2
(g6
S'\xe3\t'
p7388
tp7389
Rp7390
ag2
(g6
S'\xe4\t'
p7391
tp7392
Rp7393
ag2
(g6
S'\xed\t'
p7394
tp7395
Rp7396
ag2
(g6
S'\xee\t'
p7397
tp7398
Rp7399
ag2
(g6
S'\xef\t'
p7400
tp7401
Rp7402
ag2
(g6
S'\xf0\t'
p7403
tp7404
Rp7405
ag2
(g6
S'\xf1\t'
p7406
tp7407
Rp7408
ag2
(g6
S'\xf2\t'
p7409
tp7410
Rp7411
ag2
(g6
S'\xf3\t'
p7412
tp7413
Rp7414
ag2
(g6
S'\xf4\t'
p7415
tp7416
Rp7417
ag2
(g6
S'\xf5\t'
p7418
tp7419
Rp7420
ag2
(g6
S'\xfe\t'
p7421
tp7422
Rp7423
ag2
(g6
S'\xff\t'
p7424
tp7425
Rp7426
ag2
(g6
S'\x00\n'
p7427
tp7428
Rp7429
ag2
(g6
S'\x01\n'
p7430
tp7431
Rp7432
ag2
(g6
S'\x02\n'
p7433
tp7434
Rp7435
ag2
(g6
S'\x03\n'
p7436
tp7437
Rp7438
ag2
(g6
S'\x04\n'
p7439
tp7440
Rp7441
ag2
(g6
S'\x05\n'
p7442
tp7443
Rp7444
ag2
(g6
S'\x06\n'
p7445
tp7446
Rp7447
ag2
(g6
S'\x0f\n'
p7448
tp7449
Rp7450
ag2
(g6
S'\x10\n'
p7451
tp7452
Rp7453
ag2
(g6
S'\x11\n'
p7454
tp7455
Rp7456
ag2
(g6
S'\x12\n'
p7457
tp7458
Rp7459
ag2
(g6
S'\x13\n'
p7460
tp7461
Rp7462
ag2
(g6
S'\x14\n'
p7463
tp7464
Rp7465
ag2
(g6
S'\x15\n'
p7466
tp7467
Rp7468
ag2
(g6
S'\x16\n'
p7469
tp7470
Rp7471
ag2
(g6
S'\x17\n'
p7472
tp7473
Rp7474
ag2
(g6
S'\x1f\n'
p7475
tp7476
Rp7477
ag2
(g6
S' \n'
p7478
tp7479
Rp7480
ag2
(g6
S'!\n'
p7481
tp7482
Rp7483
ag2
(g6
S'"\n'
p7484
tp7485
Rp7486
ag2
(g6
S'#\n'
p7487
tp7488
Rp7489
ag2
(g6
S'$\n'
p7490
tp7491
Rp7492
ag2
(g6
S'%\n'
p7493
tp7494
Rp7495
ag2
(g6
S'&\n'
p7496
tp7497
Rp7498
ag2
(g6
S"'\n"
p7499
tp7500
Rp7501
ag2
(g6
S'/\n'
p7502
tp7503
Rp7504
ag2
(g6
S'0\n'
p7505
tp7506
Rp7507
ag2
(g6
S'1\n'
p7508
tp7509
Rp7510
ag2
(g6
S'2\n'
p7511
tp7512
Rp7513
ag2
(g6
S'3\n'
p7514
tp7515
Rp7516
ag2
(g6
S'4\n'
p7517
tp7518
Rp7519
ag2
(g6
S'5\n'
p7520
tp7521
Rp7522
ag2
(g6
S'6\n'
p7523
tp7524
Rp7525
ag2
(g6
S'7\n'
p7526
tp7527
Rp7528
ag2
(g6
S'=\n'
p7529
tp7530
Rp7531
ag2
(g6
S'>\n'
p7532
tp7533
Rp7534
ag2
(g6
S'?\n'
p7535
tp7536
Rp7537
ag2
(g6
S'@\n'
p7538
tp7539
Rp7540
ag2
(g6
S'A\n'
p7541
tp7542
Rp7543
ag2
(g6
S'B\n'
p7544
tp7545
Rp7546
ag2
(g6
S'C\n'
p7547
tp7548
Rp7549
ag2
(g6
S'D\n'
p7550
tp7551
Rp7552
ag2
(g6
S'E\n'
p7553
tp7554
Rp7555
ag2
(g6
S'M\n'
p7556
tp7557
Rp7558
ag2
(g6
S'N\n'
p7559
tp7560
Rp7561
ag2
(g6
S'O\n'
p7562
tp7563
Rp7564
ag2
(g6
S'P\n'
p7565
tp7566
Rp7567
ag2
(g6
S'Q\n'
p7568
tp7569
Rp7570
ag2
(g6
S'R\n'
p7571
tp7572
Rp7573
ag2
(g6
S'S\n'
p7574
tp7575
Rp7576
ag2
(g6
S'T\n'
p7577
tp7578
Rp7579
ag2
(g6
S'U\n'
p7580
tp7581
Rp7582
ag2
(g6
S'b\n'
p7583
tp7584
Rp7585
ag2
(g6
S'c\n'
p7586
tp7587
Rp7588
ag2
(g6
S'd\n'
p7589
tp7590
Rp7591
ag2
(g6
S'e\n'
p7592
tp7593
Rp7594
ag2
(g6
S'f\n'
p7595
tp7596
Rp7597
ag2
(g6
S'x\n'
p7598
tp7599
Rp7600
ag2
(g6
S'y\n'
p7601
tp7602
Rp7603
ag2
(g6
S'"\x0c'
p7604
tp7605
Rp7606
ag2
(g6
S'$\x0c'
p7607
tp7608
Rp7609
ag2
(g6
S'%\x0c'
p7610
tp7611
Rp7612
ag2
(g6
S'-\x0c'
p7613
tp7614
Rp7615
ag2
(g6
S'.\x0c'
p7616
tp7617
Rp7618
ag2
(g6
S'/\x0c'
p7619
tp7620
Rp7621
ag2
(g6
S'7\x0c'
p7622
tp7623
Rp7624
ag2
(g6
S'8\x0c'
p7625
tp7626
Rp7627
ag2
(g6
S'9\x0c'
p7628
tp7629
Rp7630
ag2
(g6
S':\x0c'
p7631
tp7632
Rp7633
ag2
(g6
S'B\x0c'
p7634
tp7635
Rp7636
ag2
(g6
S'C\x0c'
p7637
tp7638
Rp7639
ag2
(g6
S'D\x0c'
p7640
tp7641
Rp7642
ag2
(g6
S'E\x0c'
p7643
tp7644
Rp7645
ag2
(g6
S'F\x0c'
p7646
tp7647
Rp7648
ag2
(g6
S'G\x0c'
p7649
tp7650
Rp7651
ag2
(g6
S'O\x0c'
p7652
tp7653
Rp7654
ag2
(g6
S'P\x0c'
p7655
tp7656
Rp7657
ag2
(g6
S'Q\x0c'
p7658
tp7659
Rp7660
ag2
(g6
S'R\x0c'
p7661
tp7662
Rp7663
ag2
(g6
S'S\x0c'
p7664
tp7665
Rp7666
ag2
(g6
S'T\x0c'
p7667
tp7668
Rp7669
ag2
(g6
S'U\x0c'
p7670
tp7671
Rp7672
ag2
(g6
S']\x0c'
p7673
tp7674
Rp7675
ag2
(g6
S'^\x0c'
p7676
tp7677
Rp7678
ag2
(g6
S'_\x0c'
p7679
tp7680
Rp7681
ag2
(g6
S'`\x0c'
p7682
tp7683
Rp7684
ag2
(g6
S'a\x0c'
p7685
tp7686
Rp7687
ag2
(g6
S'b\x0c'
p7688
tp7689
Rp7690
ag2
(g6
S'c\x0c'
p7691
tp7692
Rp7693
ag2
(g6
S'l\x0c'
p7694
tp7695
Rp7696
ag2
(g6
S'm\x0c'
p7697
tp7698
Rp7699
ag2
(g6
S'n\x0c'
p7700
tp7701
Rp7702
ag2
(g6
S'o\x0c'
p7703
tp7704
Rp7705
ag2
(g6
S'p\x0c'
p7706
tp7707
Rp7708
ag2
(g6
S'q\x0c'
p7709
tp7710
Rp7711
ag2
(g6
S'r\x0c'
p7712
tp7713
Rp7714
ag2
(g6
S's\x0c'
p7715
tp7716
Rp7717
ag2
(g6
S'|\x0c'
p7718
tp7719
Rp7720
ag2
(g6
S'}\x0c'
p7721
tp7722
Rp7723
ag2
(g6
S'~\x0c'
p7724
tp7725
Rp7726
ag2
(g6
S'\x7f\x0c'
p7727
tp7728
Rp7729
ag2
(g6
S'\x80\x0c'
p7730
tp7731
Rp7732
ag2
(g6
S'\x81\x0c'
p7733
tp7734
Rp7735
ag2
(g6
S'\x82\x0c'
p7736
tp7737
Rp7738
ag2
(g6
S'\x89\x0c'
p7739
tp7740
Rp7741
ag2
(g6
S'\x8a\x0c'
p7742
tp7743
Rp7744
ag2
(g6
S'\x8b\x0c'
p7745
tp7746
Rp7747
ag2
(g6
S'\x8c\x0c'
p7748
tp7749
Rp7750
ag2
(g6
S'\x8d\x0c'
p7751
tp7752
Rp7753
ag2
(g6
S'\x8e\x0c'
p7754
tp7755
Rp7756
ag2
(g6
S'\x8f\x0c'
p7757
tp7758
Rp7759
ag2
(g6
S'\x96\x0c'
p7760
tp7761
Rp7762
ag2
(g6
S'\x97\x0c'
p7763
tp7764
Rp7765
ag2
(g6
S'\x98\x0c'
p7766
tp7767
Rp7768
ag2
(g6
S'\x99\x0c'
p7769
tp7770
Rp7771
ag2
(g6
S'\x9a\x0c'
p7772
tp7773
Rp7774
ag2
(g6
S'\x9b\x0c'
p7775
tp7776
Rp7777
ag2
(g6
S'\x9c\x0c'
p7778
tp7779
Rp7780
ag2
(g6
S'\xa2\x0c'
p7781
tp7782
Rp7783
ag2
(g6
S'\xa3\x0c'
p7784
tp7785
Rp7786
ag2
(g6
S'\xa4\x0c'
p7787
tp7788
Rp7789
ag2
(g6
S'\xa5\x0c'
p7790
tp7791
Rp7792
ag2
(g6
S'\xa6\x0c'
p7793
tp7794
Rp7795
ag2
(g6
S'\xa7\x0c'
p7796
tp7797
Rp7798
ag2
(g6
S'\xb0\x0c'
p7799
tp7800
Rp7801
ag2
(g6
S'\xb1\x0c'
p7802
tp7803
Rp7804
ag2
(g6
S'\xb2\x0c'
p7805
tp7806
Rp7807
ag2
(g6
S'Y\x0e'
p7808
tp7809
Rp7810
ag2
(g6
S'Z\x0e'
p7811
tp7812
Rp7813
ag2
(g6
S'[\x0e'
p7814
tp7815
Rp7816
ag2
(g6
S'\\\x0e'
p7817
tp7818
Rp7819
ag2
(g6
S'a\x0e'
p7820
tp7821
Rp7822
ag2
(g6
S'b\x0e'
p7823
tp7824
Rp7825
ag2
(g6
S'i\x0e'
p7826
tp7827
Rp7828
ag2
(g6
S'j\x0e'
p7829
tp7830
Rp7831
ag2
(g6
S'r\x0e'
p7832
tp7833
Rp7834
ag2
(g6
S's\x0e'
p7835
tp7836
Rp7837
ag2
(g6
S'}\x0e'
p7838
tp7839
Rp7840
ag2
(g6
S'~\x0e'
p7841
tp7842
Rp7843
ag2
(g6
S'\x7f\x0e'
p7844
tp7845
Rp7846
ag2
(g6
S'\x89\x0e'
p7847
tp7848
Rp7849
ag2
(g6
S'\x8a\x0e'
p7850
tp7851
Rp7852
ag2
(g6
S'\x8b\x0e'
p7853
tp7854
Rp7855
ag2
(g6
S'\x95\x0e'
p7856
tp7857
Rp7858
ag2
(g6
S'\x96\x0e'
p7859
tp7860
Rp7861
ag2
(g6
S'\x9f\x0e'
p7862
tp7863
Rp7864
ag2
(g6
S'\xa0\x0e'
p7865
tp7866
Rp7867
ag2
(g6
S'\xa9\x0e'
p7868
tp7869
Rp7870
ag2
(g6
S'\xaa\x0e'
p7871
tp7872
Rp7873
ag2
(g6
S'\xb2\x0e'
p7874
tp7875
Rp7876
ag2
(g6
S'\xb3\x0e'
p7877
tp7878
Rp7879
ag2
(g6
S'\xbb\x0e'
p7880
tp7881
Rp7882
ag2
(g6
S'\xbc\x0e'
p7883
tp7884
Rp7885
ag2
(g6
S'\xbd\x0e'
p7886
tp7887
Rp7888
ag2
(g6
S'\xc5\x0e'
p7889
tp7890
Rp7891
ag2
(g6
S'\xc6\x0e'
p7892
tp7893
Rp7894
ag2
(g6
S'\xc7\x0e'
p7895
tp7896
Rp7897
ag2
(g6
S'\xc8\x0e'
p7898
tp7899
Rp7900
ag2
(g6
S'\xd4\x0e'
p7901
tp7902
Rp7903
ag2
(g6
S'\xba\x10'
p7904
tp7905
Rp7906
ag2
(g6
S'\xbb\x10'
p7907
tp7908
Rp7909
ag2
(g6
S'\xbc\x10'
p7910
tp7911
Rp7912
ag2
(g6
S'\xbf\x10'
p7913
tp7914
Rp7915
ag2
(g6
S'\xc0\x10'
p7916
tp7917
Rp7918
ag2
(g6
S'\xc1\x10'
p7919
tp7920
Rp7921
ag2
(g6
S'\xc2\x10'
p7922
tp7923
Rp7924
ag2
(g6
S'\xc3\x10'
p7925
tp7926
Rp7927
ag2
(g6
S'\xc4\x10'
p7928
tp7929
Rp7930
ag2
(g6
S'\xc9\x10'
p7931
tp7932
Rp7933
ag2
(g6
S'\xca\x10'
p7934
tp7935
Rp7936
ag2
(g6
S'\xcb\x10'
p7937
tp7938
Rp7939
ag2
(g6
S'\xcc\x10'
p7940
tp7941
Rp7942
ag2
(g6
S'\xcd\x10'
p7943
tp7944
Rp7945
ag2
(g6
S'\xce\x10'
p7946
tp7947
Rp7948
ag2
(g6
S'\xd5\x10'
p7949
tp7950
Rp7951
ag2
(g6
S'\xd6\x10'
p7952
tp7953
Rp7954
ag2
(g6
S'\xd7\x10'
p7955
tp7956
Rp7957
ag2
(g6
S'\xd8\x10'
p7958
tp7959
Rp7960
ag2
(g6
S'\xd9\x10'
p7961
tp7962
Rp7963
ag2
(g6
S'\xda\x10'
p7964
tp7965
Rp7966
ag2
(g6
S'\xe3\x10'
p7967
tp7968
Rp7969
ag2
(g6
S'\xe4\x10'
p7970
tp7971
Rp7972
ag2
(g6
S'\xe5\x10'
p7973
tp7974
Rp7975
ag2
(g6
S'\xe6\x10'
p7976
tp7977
Rp7978
ag2
(g6
S'\xe7\x10'
p7979
tp7980
Rp7981
ag2
(g6
S'\xe8\x10'
p7982
tp7983
Rp7984
ag2
(g6
S'\xe9\x10'
p7985
tp7986
Rp7987
ag2
(g6
S'\xf3\x10'
p7988
tp7989
Rp7990
ag2
(g6
S'\xf4\x10'
p7991
tp7992
Rp7993
ag2
(g6
S'\xf5\x10'
p7994
tp7995
Rp7996
ag2
(g6
S'\xf6\x10'
p7997
tp7998
Rp7999
ag2
(g6
S'\xf7\x10'
p8000
tp8001
Rp8002
ag2
(g6
S'\xf8\x10'
p8003
tp8004
Rp8005
ag2
(g6
S'\xf9\x10'
p8006
tp8007
Rp8008
ag2
(g6
S'\x03\x11'
p8009
tp8010
Rp8011
ag2
(g6
S'\x04\x11'
p8012
tp8013
Rp8014
ag2
(g6
S'\x05\x11'
p8015
tp8016
Rp8017
ag2
(g6
S'\x06\x11'
p8018
tp8019
Rp8020
ag2
(g6
S'\x07\x11'
p8021
tp8022
Rp8023
ag2
(g6
S'\x08\x11'
p8024
tp8025
Rp8026
ag2
(g6
S'\t\x11'
p8027
tp8028
Rp8029
ag2
(g6
S'\n\x11'
p8030
tp8031
Rp8032
ag2
(g6
S'\x0b\x11'
p8033
tp8034
Rp8035
ag2
(g6
S'\x15\x11'
p8036
tp8037
Rp8038
ag2
(g6
S'\x16\x11'
p8039
tp8040
Rp8041
ag2
(g6
S'\x17\x11'
p8042
tp8043
Rp8044
ag2
(g6
S'\x18\x11'
p8045
tp8046
Rp8047
ag2
(g6
S'\x19\x11'
p8048
tp8049
Rp8050
ag2
(g6
S'\x1a\x11'
p8051
tp8052
Rp8053
ag2
(g6
S'\x1b\x11'
p8054
tp8055
Rp8056
ag2
(g6
S'\x1c\x11'
p8057
tp8058
Rp8059
ag2
(g6
S'\x1d\x11'
p8060
tp8061
Rp8062
ag2
(g6
S'&\x11'
p8063
tp8064
Rp8065
ag2
(g6
S"'\x11"
p8066
tp8067
Rp8068
ag2
(g6
S'(\x11'
p8069
tp8070
Rp8071
ag2
(g6
S')\x11'
p8072
tp8073
Rp8074
ag2
(g6
S'*\x11'
p8075
tp8076
Rp8077
ag2
(g6
S'+\x11'
p8078
tp8079
Rp8080
ag2
(g6
S',\x11'
p8081
tp8082
Rp8083
ag2
(g6
S'-\x11'
p8084
tp8085
Rp8086
ag2
(g6
S'.\x11'
p8087
tp8088
Rp8089
ag2
(g6
S'7\x11'
p8090
tp8091
Rp8092
ag2
(g6
S'8\x11'
p8093
tp8094
Rp8095
ag2
(g6
S'9\x11'
p8096
tp8097
Rp8098
ag2
(g6
S':\x11'
p8099
tp8100
Rp8101
ag2
(g6
S';\x11'
p8102
tp8103
Rp8104
ag2
(g6
S'<\x11'
p8105
tp8106
Rp8107
ag2
(g6
S'=\x11'
p8108
tp8109
Rp8110
ag2
(g6
S'>\x11'
p8111
tp8112
Rp8113
ag2
(g6
S'?\x11'
p8114
tp8115
Rp8116
ag2
(g6
S'I\x11'
p8117
tp8118
Rp8119
ag2
(g6
S'J\x11'
p8120
tp8121
Rp8122
ag2
(g6
S'K\x11'
p8123
tp8124
Rp8125
ag2
(g6
S'L\x11'
p8126
tp8127
Rp8128
ag2
(g6
S'M\x11'
p8129
tp8130
Rp8131
ag2
(g6
S'N\x11'
p8132
tp8133
Rp8134
ag2
(g6
S'O\x11'
p8135
tp8136
Rp8137
ag2
(g6
S'P\x11'
p8138
tp8139
Rp8140
ag2
(g6
S'Q\x11'
p8141
tp8142
Rp8143
ag2
(g6
S'Z\x11'
p8144
tp8145
Rp8146
ag2
(g6
S'[\x11'
p8147
tp8148
Rp8149
ag2
(g6
S'\\\x11'
p8150
tp8151
Rp8152
ag2
(g6
S']\x11'
p8153
tp8154
Rp8155
ag2
(g6
S'^\x11'
p8156
tp8157
Rp8158
ag2
(g6
S'_\x11'
p8159
tp8160
Rp8161
ag2
(g6
S'`\x11'
p8162
tp8163
Rp8164
ag2
(g6
S'a\x11'
p8165
tp8166
Rp8167
ag2
(g6
S'b\x11'
p8168
tp8169
Rp8170
ag2
(g6
S'h\x11'
p8171
tp8172
Rp8173
ag2
(g6
S'i\x11'
p8174
tp8175
Rp8176
ag2
(g6
S'j\x11'
p8177
tp8178
Rp8179
ag2
(g6
S'k\x11'
p8180
tp8181
Rp8182
ag2
(g6
S'l\x11'
p8183
tp8184
Rp8185
ag2
(g6
S'm\x11'
p8186
tp8187
Rp8188
ag2
(g6
S'n\x11'
p8189
tp8190
Rp8191
ag2
(g6
S'o\x11'
p8192
tp8193
Rp8194
ag2
(g6
S'p\x11'
p8195
tp8196
Rp8197
ag2
(g6
S'u\x11'
p8198
tp8199
Rp8200
ag2
(g6
S'v\x11'
p8201
tp8202
Rp8203
ag2
(g6
S'w\x11'
p8204
tp8205
Rp8206
ag2
(g6
S'x\x11'
p8207
tp8208
Rp8209
ag2
(g6
S'y\x11'
p8210
tp8211
Rp8212
ag2
(g6
S'z\x11'
p8213
tp8214
Rp8215
ag2
(g6
S'{\x11'
p8216
tp8217
Rp8218
ag2
(g6
S'|\x11'
p8219
tp8220
Rp8221
ag2
(g6
S'\x80\x11'
p8222
tp8223
Rp8224
ag2
(g6
S'\x81\x11'
p8225
tp8226
Rp8227
ag2
(g6
S'\x82\x11'
p8228
tp8229
Rp8230
ag2
(g6
S'\x83\x11'
p8231
tp8232
Rp8233
ag2
(g6
S'\x84\x11'
p8234
tp8235
Rp8236
ag2
(g6
S'\x85\x11'
p8237
tp8238
Rp8239
ag2
(g6
S'\x86\x11'
p8240
tp8241
Rp8242
ag2
(g6
S'\x87\x11'
p8243
tp8244
Rp8245
ag2
(g6
S'\x8b\x11'
p8246
tp8247
Rp8248
ag2
(g6
S'\x8c\x11'
p8249
tp8250
Rp8251
ag2
(g6
S'\x8d\x11'
p8252
tp8253
Rp8254
ag2
(g6
S'\x8e\x11'
p8255
tp8256
Rp8257
ag2
(g6
S'\x8f\x11'
p8258
tp8259
Rp8260
aa(lp8261
g2
(g6
S'\xd6\r'
p8262
tp8263
Rp8264
ag2
(g6
S'\xd7\r'
p8265
tp8266
Rp8267
ag2
(g6
S'\xd8\r'
p8268
tp8269
Rp8270
ag2
(g6
S'\xd9\r'
p8271
tp8272
Rp8273
ag2
(g6
S'\xe2\r'
p8274
tp8275
Rp8276
ag2
(g6
S'\xe3\r'
p8277
tp8278
Rp8279
ag2
(g6
S'\xe4\r'
p8280
tp8281
Rp8282
ag2
(g6
S'\xe5\r'
p8283
tp8284
Rp8285
ag2
(g6
S'\xe6\r'
p8286
tp8287
Rp8288
ag2
(g6
S'\xe7\r'
p8289
tp8290
Rp8291
ag2
(g6
S'\xe8\r'
p8292
tp8293
Rp8294
ag2
(g6
S'\xe9\r'
p8295
tp8296
Rp8297
ag2
(g6
S'\xf1\r'
p8298
tp8299
Rp8300
ag2
(g6
S'\xf2\r'
p8301
tp8302
Rp8303
ag2
(g6
S'\xf3\r'
p8304
tp8305
Rp8306
ag2
(g6
S'\xf4\r'
p8307
tp8308
Rp8309
ag2
(g6
S'\xf5\r'
p8310
tp8311
Rp8312
ag2
(g6
S'\xf6\r'
p8313
tp8314
Rp8315
ag2
(g6
S'\xf7\r'
p8316
tp8317
Rp8318
ag2
(g6
S'\xf8\r'
p8319
tp8320
Rp8321
ag2
(g6
S'\xff\r'
p8322
tp8323
Rp8324
ag2
(g6
S'\x00\x0e'
p8325
tp8326
Rp8327
ag2
(g6
S'\x01\x0e'
p8328
tp8329
Rp8330
ag2
(g6
S'\x02\x0e'
p8331
tp8332
Rp8333
ag2
(g6
S'\x03\x0e'
p8334
tp8335
Rp8336
ag2
(g6
S'\x04\x0e'
p8337
tp8338
Rp8339
ag2
(g6
S'\x05\x0e'
p8340
tp8341
Rp8342
ag2
(g6
S'\x06\x0e'
p8343
tp8344
Rp8345
ag2
(g6
S'\x0c\x0e'
p8346
tp8347
Rp8348
ag2
(g6
S'\r\x0e'
p8349
tp8350
Rp8351
ag2
(g6
S'\x0e\x0e'
p8352
tp8353
Rp8354
ag2
(g6
S'\x0f\x0e'
p8355
tp8356
Rp8357
ag2
(g6
S'\x10\x0e'
p8358
tp8359
Rp8360
ag2
(g6
S'\x11\x0e'
p8361
tp8362
Rp8363
ag2
(g6
S'\x12\x0e'
p8364
tp8365
Rp8366
ag2
(g6
S'\x13\x0e'
p8367
tp8368
Rp8369
ag2
(g6
S'\x18\x0e'
p8370
tp8371
Rp8372
ag2
(g6
S'\x19\x0e'
p8373
tp8374
Rp8375
ag2
(g6
S'\x1a\x0e'
p8376
tp8377
Rp8378
ag2
(g6
S'\x1b\x0e'
p8379
tp8380
Rp8381
ag2
(g6
S'\x1c\x0e'
p8382
tp8383
Rp8384
ag2
(g6
S'\x1d\x0e'
p8385
tp8386
Rp8387
ag2
(g6
S'\x1e\x0e'
p8388
tp8389
Rp8390
ag2
(g6
S'\x1f\x0e'
p8391
tp8392
Rp8393
ag2
(g6
S' \x0e'
p8394
tp8395
Rp8396
ag2
(g6
S'%\x0e'
p8397
tp8398
Rp8399
ag2
(g6
S'&\x0e'
p8400
tp8401
Rp8402
ag2
(g6
S"'\x0e"
p8403
tp8404
Rp8405
ag2
(g6
S'(\x0e'
p8406
tp8407
Rp8408
ag2
(g6
S')\x0e'
p8409
tp8410
Rp8411
ag2
(g6
S'*\x0e'
p8412
tp8413
Rp8414
ag2
(g6
S'+\x0e'
p8415
tp8416
Rp8417
ag2
(g6
S',\x0e'
p8418
tp8419
Rp8420
ag2
(g6
S'-\x0e'
p8421
tp8422
Rp8423
ag2
(g6
S'7\x0e'
p8424
tp8425
Rp8426
ag2
(g6
S'8\x0e'
p8427
tp8428
Rp8429
ag2
(g6
S'C\x0e'
p8430
tp8431
Rp8432
ag2
(g6
S'*\x10'
p8433
tp8434
Rp8435
ag2
(g6
S'+\x10'
p8436
tp8437
Rp8438
ag2
(g6
S',\x10'
p8439
tp8440
Rp8441
ag2
(g6
S'-\x10'
p8442
tp8443
Rp8444
ag2
(g6
S'.\x10'
p8445
tp8446
Rp8447
ag2
(g6
S'/\x10'
p8448
tp8449
Rp8450
ag2
(g6
S'0\x10'
p8451
tp8452
Rp8453
ag2
(g6
S'7\x10'
p8454
tp8455
Rp8456
ag2
(g6
S'8\x10'
p8457
tp8458
Rp8459
ag2
(g6
S'9\x10'
p8460
tp8461
Rp8462
ag2
(g6
S':\x10'
p8463
tp8464
Rp8465
ag2
(g6
S';\x10'
p8466
tp8467
Rp8468
ag2
(g6
S'<\x10'
p8469
tp8470
Rp8471
ag2
(g6
S'=\x10'
p8472
tp8473
Rp8474
ag2
(g6
S'D\x10'
p8475
tp8476
Rp8477
ag2
(g6
S'E\x10'
p8478
tp8479
Rp8480
ag2
(g6
S'F\x10'
p8481
tp8482
Rp8483
ag2
(g6
S'G\x10'
p8484
tp8485
Rp8486
ag2
(g6
S'H\x10'
p8487
tp8488
Rp8489
ag2
(g6
S'I\x10'
p8490
tp8491
Rp8492
ag2
(g6
S'J\x10'
p8493
tp8494
Rp8495
ag2
(g6
S'R\x10'
p8496
tp8497
Rp8498
ag2
(g6
S'S\x10'
p8499
tp8500
Rp8501
ag2
(g6
S'T\x10'
p8502
tp8503
Rp8504
ag2
(g6
S'U\x10'
p8505
tp8506
Rp8507
ag2
(g6
S'V\x10'
p8508
tp8509
Rp8510
ag2
(g6
S'W\x10'
p8511
tp8512
Rp8513
ag2
(g6
S'X\x10'
p8514
tp8515
Rp8516
ag2
(g6
S'`\x10'
p8517
tp8518
Rp8519
ag2
(g6
S'a\x10'
p8520
tp8521
Rp8522
ag2
(g6
S'b\x10'
p8523
tp8524
Rp8525
ag2
(g6
S'c\x10'
p8526
tp8527
Rp8528
ag2
(g6
S'd\x10'
p8529
tp8530
Rp8531
ag2
(g6
S'e\x10'
p8532
tp8533
Rp8534
ag2
(g6
S'f\x10'
p8535
tp8536
Rp8537
ag2
(g6
S'l\x10'
p8538
tp8539
Rp8540
ag2
(g6
S'm\x10'
p8541
tp8542
Rp8543
ag2
(g6
S'n\x10'
p8544
tp8545
Rp8546
ag2
(g6
S'o\x10'
p8547
tp8548
Rp8549
ag2
(g6
S'p\x10'
p8550
tp8551
Rp8552
ag2
(g6
S'q\x10'
p8553
tp8554
Rp8555
ag2
(g6
S'r\x10'
p8556
tp8557
Rp8558
ag2
(g6
S'w\x10'
p8559
tp8560
Rp8561
ag2
(g6
S'x\x10'
p8562
tp8563
Rp8564
ag2
(g6
S'y\x10'
p8565
tp8566
Rp8567
ag2
(g6
S'z\x10'
p8568
tp8569
Rp8570
ag2
(g6
S'{\x10'
p8571
tp8572
Rp8573
ag2
(g6
S'|\x10'
p8574
tp8575
Rp8576
ag2
(g6
S'}\x10'
p8577
tp8578
Rp8579
ag2
(g6
S'~\x10'
p8580
tp8581
Rp8582
ag2
(g6
S'\x7f\x10'
p8583
tp8584
Rp8585
ag2
(g6
S'\x88\x10'
p8586
tp8587
Rp8588
ag2
(g6
S'\x89\x10'
p8589
tp8590
Rp8591
ag2
(g6
S'\x8c\x10'
p8592
tp8593
Rp8594
ag2
(g6
S'\x8d\x10'
p8595
tp8596
Rp8597
ag2
(g6
S'\x9c\x10'
p8598
tp8599
Rp8600
aa(lp8601
g2
(g6
S'\x01\x00'
p8602
tp8603
Rp8604
ag2
(g6
S'\x02\x00'
p8605
tp8606
Rp8607
ag2
(g6
S'\x03\x00'
p8608
tp8609
Rp8610
ag2
(g6
S'\x06\x00'
p8611
tp8612
Rp8613
ag2
(g6
S'\x07\x00'
p8614
tp8615
Rp8616
ag2
(g6
S'\x0e\x00'
p8617
tp8618
Rp8619
ag2
(g6
S'\x0f\x00'
p8620
tp8621
Rp8622
ag2
(g6
S'\x10\x00'
p8623
tp8624
Rp8625
ag2
(g6
S'\x19\x00'
p8626
tp8627
Rp8628
ag2
(g6
S'\x1a\x00'
p8629
tp8630
Rp8631
ag2
(g6
S'\x1b\x00'
p8632
tp8633
Rp8634
ag2
(g6
S'\x1c\x00'
p8635
tp8636
Rp8637
ag2
(g6
S'\x1d\x00'
p8638
tp8639
Rp8640
ag2
(g6
S'%\x00'
p8641
tp8642
Rp8643
ag2
(g6
S'&\x00'
p8644
tp8645
Rp8646
ag2
(g6
S"'\x00"
p8647
tp8648
Rp8649
ag2
(g6
S'(\x00'
p8650
tp8651
Rp8652
ag2
(g6
S')\x00'
p8653
tp8654
Rp8655
ag2
(g6
S'*\x00'
p8656
tp8657
Rp8658
ag2
(g6
S'3\x00'
p8659
tp8660
Rp8661
ag2
(g6
S'4\x00'
p8662
tp8663
Rp8664
ag2
(g6
S'5\x00'
p8665
tp8666
Rp8667
ag2
(g6
S'6\x00'
p8668
tp8669
Rp8670
ag2
(g6
S'7\x00'
p8671
tp8672
Rp8673
ag2
(g6
S'8\x00'
p8674
tp8675
Rp8676
ag2
(g6
S'B\x00'
p8677
tp8678
Rp8679
ag2
(g6
S'C\x00'
p8680
tp8681
Rp8682
ag2
(g6
S'D\x00'
p8683
tp8684
Rp8685
ag2
(g6
S'E\x00'
p8686
tp8687
Rp8688
ag2
(g6
S'Z\x00'
p8689
tp8690
Rp8691
ag2
(g6
S'\xcc\x01'
p8692
tp8693
Rp8694
ag2
(g6
S'\xcd\x01'
p8695
tp8696
Rp8697
ag2
(g6
S'\xd1\x01'
p8698
tp8699
Rp8700
ag2
(g6
S'\xd2\x01'
p8701
tp8702
Rp8703
ag2
(g6
S'\xd3\x01'
p8704
tp8705
Rp8706
ag2
(g6
S'\xd4\x01'
p8707
tp8708
Rp8709
ag2
(g6
S'\xd9\x01'
p8710
tp8711
Rp8712
ag2
(g6
S'\xda\x01'
p8713
tp8714
Rp8715
ag2
(g6
S'\xdb\x01'
p8716
tp8717
Rp8718
ag2
(g6
S'\xdc\x01'
p8719
tp8720
Rp8721
ag2
(g6
S'\xe2\x01'
p8722
tp8723
Rp8724
ag2
(g6
S'\xe3\x01'
p8725
tp8726
Rp8727
ag2
(g6
S'\xe4\x01'
p8728
tp8729
Rp8730
ag2
(g6
S'\xe5\x01'
p8731
tp8732
Rp8733
ag2
(g6
S'\xe6\x01'
p8734
tp8735
Rp8736
ag2
(g6
S'\xee\x01'
p8737
tp8738
Rp8739
ag2
(g6
S'\xef\x01'
p8740
tp8741
Rp8742
ag2
(g6
S'\xf0\x01'
p8743
tp8744
Rp8745
ag2
(g6
S'\xf1\x01'
p8746
tp8747
Rp8748
ag2
(g6
S'\xf2\x01'
p8749
tp8750
Rp8751
ag2
(g6
S'\xf3\x01'
p8752
tp8753
Rp8754
ag2
(g6
S'\xfc\x01'
p8755
tp8756
Rp8757
ag2
(g6
S'\xfd\x01'
p8758
tp8759
Rp8760
ag2
(g6
S'\xfe\x01'
p8761
tp8762
Rp8763
ag2
(g6
S'\xff\x01'
p8764
tp8765
Rp8766
ag2
(g6
S'\x00\x02'
p8767
tp8768
Rp8769
ag2
(g6
S'\x01\x02'
p8770
tp8771
Rp8772
ag2
(g6
S'\x02\x02'
p8773
tp8774
Rp8775
ag2
(g6
S'\r\x02'
p8776
tp8777
Rp8778
ag2
(g6
S'\x0e\x02'
p8779
tp8780
Rp8781
ag2
(g6
S'\x0f\x02'
p8782
tp8783
Rp8784
ag2
(g6
S'\x10\x02'
p8785
tp8786
Rp8787
ag2
(g6
S'\x11\x02'
p8788
tp8789
Rp8790
ag2
(g6
S'\x12\x02'
p8791
tp8792
Rp8793
ag2
(g6
S'\x1f\x02'
p8794
tp8795
Rp8796
ag2
(g6
S' \x02'
p8797
tp8798
Rp8799
ag2
(g6
S'!\x02'
p8800
tp8801
Rp8802
ag2
(g6
S'"\x02'
p8803
tp8804
Rp8805
ag2
(g6
S'#\x02'
p8806
tp8807
Rp8808
ag2
(g6
S'1\x02'
p8809
tp8810
Rp8811
ag2
(g6
S'2\x02'
p8812
tp8813
Rp8814
ag2
(g6
S'3\x02'
p8815
tp8816
Rp8817
ag2
(g6
S'4\x02'
p8818
tp8819
Rp8820
ag2
(g6
S'I\x02'
p8821
tp8822
Rp8823
ag2
(g6
S'J\x02'
p8824
tp8825
Rp8826
ag2
(g6
S'K\x02'
p8827
tp8828
Rp8829
ag2
(g6
S'L\x02'
p8830
tp8831
Rp8832
ag2
(g6
S'd\x02'
p8833
tp8834
Rp8835
ag2
(g6
S'e\x02'
p8836
tp8837
Rp8838
ag2
(g6
S'\xf9\x03'
p8839
tp8840
Rp8841
ag2
(g6
S'\xfc\x03'
p8842
tp8843
Rp8844
ag2
(g6
S'\xfd\x03'
p8845
tp8846
Rp8847
ag2
(g6
S'\xfe\x03'
p8848
tp8849
Rp8850
ag2
(g6
S'\x03\x04'
p8851
tp8852
Rp8853
ag2
(g6
S'\x04\x04'
p8854
tp8855
Rp8856
ag2
(g6
S'\x05\x04'
p8857
tp8858
Rp8859
ag2
(g6
S'\x06\x04'
p8860
tp8861
Rp8862
ag2
(g6
S'\x0c\x04'
p8863
tp8864
Rp8865
ag2
(g6
S'\r\x04'
p8866
tp8867
Rp8868
ag2
(g6
S'\x0e\x04'
p8869
tp8870
Rp8871
ag2
(g6
S'\x0f\x04'
p8872
tp8873
Rp8874
ag2
(g6
S'\x10\x04'
p8875
tp8876
Rp8877
ag2
(g6
S'\x11\x04'
p8878
tp8879
Rp8880
ag2
(g6
S'\x19\x04'
p8881
tp8882
Rp8883
ag2
(g6
S'\x1a\x04'
p8884
tp8885
Rp8886
ag2
(g6
S'\x1b\x04'
p8887
tp8888
Rp8889
ag2
(g6
S'\x1c\x04'
p8890
tp8891
Rp8892
ag2
(g6
S'\x1d\x04'
p8893
tp8894
Rp8895
ag2
(g6
S'\x1e\x04'
p8896
tp8897
Rp8898
ag2
(g6
S"'\x04"
p8899
tp8900
Rp8901
ag2
(g6
S'(\x04'
p8902
tp8903
Rp8904
ag2
(g6
S')\x04'
p8905
tp8906
Rp8907
ag2
(g6
S'*\x04'
p8908
tp8909
Rp8910
ag2
(g6
S'+\x04'
p8911
tp8912
Rp8913
ag2
(g6
S'5\x04'
p8914
tp8915
Rp8916
ag2
(g6
S'6\x04'
p8917
tp8918
Rp8919
ag2
(g6
S'7\x04'
p8920
tp8921
Rp8922
ag2
(g6
S'8\x04'
p8923
tp8924
Rp8925
ag2
(g6
S'9\x04'
p8926
tp8927
Rp8928
ag2
(g6
S':\x04'
p8929
tp8930
Rp8931
ag2
(g6
S'E\x04'
p8932
tp8933
Rp8934
ag2
(g6
S'F\x04'
p8935
tp8936
Rp8937
ag2
(g6
S'G\x04'
p8938
tp8939
Rp8940
ag2
(g6
S'H\x04'
p8941
tp8942
Rp8943
ag2
(g6
S'I\x04'
p8944
tp8945
Rp8946
ag2
(g6
S'J\x04'
p8947
tp8948
Rp8949
ag2
(g6
S'W\x04'
p8950
tp8951
Rp8952
ag2
(g6
S'X\x04'
p8953
tp8954
Rp8955
ag2
(g6
S'Y\x04'
p8956
tp8957
Rp8958
ag2
(g6
S'Z\x04'
p8959
tp8960
Rp8961
ag2
(g6
S'[\x04'
p8962
tp8963
Rp8964
ag2
(g6
S'\\\x04'
p8965
tp8966
Rp8967
ag2
(g6
S'k\x04'
p8968
tp8969
Rp8970
ag2
(g6
S'l\x04'
p8971
tp8972
Rp8973
ag2
(g6
S'm\x04'
p8974
tp8975
Rp8976
ag2
(g6
S'n\x04'
p8977
tp8978
Rp8979
ag2
(g6
S'o\x04'
p8980
tp8981
Rp8982
ag2
(g6
S'\x7f\x04'
p8983
tp8984
Rp8985
ag2
(g6
S'\x80\x04'
p8986
tp8987
Rp8988
ag2
(g6
S'\x81\x04'
p8989
tp8990
Rp8991
ag2
(g6
S'\x82\x04'
p8992
tp8993
Rp8994
ag2
(g6
S'\x9c\x04'
p8995
tp8996
Rp8997
ag2
(g6
S'\x9d\x04'
p8998
tp8999
Rp9000
ag2
(g6
S'\x9e\x04'
p9001
tp9002
Rp9003
ag2
(g6
S'\x9f\x04'
p9004
tp9005
Rp9006
ag2
(g6
S'\x94\x06'
p9007
tp9008
Rp9009
ag2
(g6
S'\x95\x06'
p9010
tp9011
Rp9012
ag2
(g6
S'\x96\x06'
p9013
tp9014
Rp9015
ag2
(g6
S'\x98\x06'
p9016
tp9017
Rp9018
ag2
(g6
S'\x99\x06'
p9019
tp9020
Rp9021
ag2
(g6
S'\x9a\x06'
p9022
tp9023
Rp9024
ag2
(g6
S'\x9b\x06'
p9025
tp9026
Rp9027
ag2
(g6
S'\x9e\x06'
p9028
tp9029
Rp9030
ag2
(g6
S'\x9f\x06'
p9031
tp9032
Rp9033
ag2
(g6
S'\xa0\x06'
p9034
tp9035
Rp9036
ag2
(g6
S'\xa1\x06'
p9037
tp9038
Rp9039
ag2
(g6
S'\xa2\x06'
p9040
tp9041
Rp9042
ag2
(g6
S'\xa7\x06'
p9043
tp9044
Rp9045
ag2
(g6
S'\xa8\x06'
p9046
tp9047
Rp9048
ag2
(g6
S'\xa9\x06'
p9049
tp9050
Rp9051
ag2
(g6
S'\xaa\x06'
p9052
tp9053
Rp9054
ag2
(g6
S'\xab\x06'
p9055
tp9056
Rp9057
ag2
(g6
S'\xac\x06'
p9058
tp9059
Rp9060
ag2
(g6
S'\xb3\x06'
p9061
tp9062
Rp9063
ag2
(g6
S'\xb4\x06'
p9064
tp9065
Rp9066
ag2
(g6
S'\xb5\x06'
p9067
tp9068
Rp9069
ag2
(g6
S'\xb6\x06'
p9070
tp9071
Rp9072
ag2
(g6
S'\xb7\x06'
p9073
tp9074
Rp9075
ag2
(g6
S'\xb8\x06'
p9076
tp9077
Rp9078
ag2
(g6
S'\xc3\x06'
p9079
tp9080
Rp9081
ag2
(g6
S'\xc4\x06'
p9082
tp9083
Rp9084
ag2
(g6
S'\xc5\x06'
p9085
tp9086
Rp9087
ag2
(g6
S'\xc6\x06'
p9088
tp9089
Rp9090
ag2
(g6
S'\xc7\x06'
p9091
tp9092
Rp9093
ag2
(g6
S'\xd3\x06'
p9094
tp9095
Rp9096
ag2
(g6
S'\xd4\x06'
p9097
tp9098
Rp9099
ag2
(g6
S'\xd5\x06'
p9100
tp9101
Rp9102
ag2
(g6
S'\xd6\x06'
p9103
tp9104
Rp9105
ag2
(g6
S'\xd7\x06'
p9106
tp9107
Rp9108
ag2
(g6
S'\xe5\x06'
p9109
tp9110
Rp9111
ag2
(g6
S'\xe6\x06'
p9112
tp9113
Rp9114
ag2
(g6
S'\xe7\x06'
p9115
tp9116
Rp9117
ag2
(g6
S'\xe8\x06'
p9118
tp9119
Rp9120
ag2
(g6
S'\xf6\x06'
p9121
tp9122
Rp9123
ag2
(g6
S'\xf7\x06'
p9124
tp9125
Rp9126
ag2
(g6
S'\xf8\x06'
p9127
tp9128
Rp9129
ag2
(g6
S'\xf9\x06'
p9130
tp9131
Rp9132
ag2
(g6
S'\t\x07'
p9133
tp9134
Rp9135
ag2
(g6
S'\n\x07'
p9136
tp9137
Rp9138
ag2
(g6
S'\x0b\x07'
p9139
tp9140
Rp9141
ag2
(g6
S'\x1b\x07'
p9142
tp9143
Rp9144
ag2
(g6
S'\x1c\x07'
p9145
tp9146
Rp9147
ag2
(g6
S'\x1d\x07'
p9148
tp9149
Rp9150
ag2
(g6
S'\x05\t'
p9151
tp9152
Rp9153
ag2
(g6
S'\x06\t'
p9154
tp9155
Rp9156
ag2
(g6
S'\x07\t'
p9157
tp9158
Rp9159
ag2
(g6
S'\x08\t'
p9160
tp9161
Rp9162
ag2
(g6
S'\x0b\t'
p9163
tp9164
Rp9165
ag2
(g6
S'\x0c\t'
p9166
tp9167
Rp9168
ag2
(g6
S'\r\t'
p9169
tp9170
Rp9171
ag2
(g6
S'\x0e\t'
p9172
tp9173
Rp9174
ag2
(g6
S'\x13\t'
p9175
tp9176
Rp9177
ag2
(g6
S'\x14\t'
p9178
tp9179
Rp9180
ag2
(g6
S'\x15\t'
p9181
tp9182
Rp9183
ag2
(g6
S'\x16\t'
p9184
tp9185
Rp9186
ag2
(g6
S'\x1e\t'
p9187
tp9188
Rp9189
ag2
(g6
S'\x1f\t'
p9190
tp9191
Rp9192
ag2
(g6
S' \t'
p9193
tp9194
Rp9195
ag2
(g6
S'!\t'
p9196
tp9197
Rp9198
ag2
(g6
S'"\t'
p9199
tp9200
Rp9201
ag2
(g6
S'+\t'
p9202
tp9203
Rp9204
ag2
(g6
S',\t'
p9205
tp9206
Rp9207
ag2
(g6
S'-\t'
p9208
tp9209
Rp9210
ag2
(g6
S'.\t'
p9211
tp9212
Rp9213
ag2
(g6
S'/\t'
p9214
tp9215
Rp9216
ag2
(g6
S'8\t'
p9217
tp9218
Rp9219
ag2
(g6
S'9\t'
p9220
tp9221
Rp9222
ag2
(g6
S':\t'
p9223
tp9224
Rp9225
ag2
(g6
S';\t'
p9226
tp9227
Rp9228
ag2
(g6
S'<\t'
p9229
tp9230
Rp9231
ag2
(g6
S'E\t'
p9232
tp9233
Rp9234
ag2
(g6
S'F\t'
p9235
tp9236
Rp9237
ag2
(g6
S'G\t'
p9238
tp9239
Rp9240
ag2
(g6
S'H\t'
p9241
tp9242
Rp9243
ag2
(g6
S'I\t'
p9244
tp9245
Rp9246
ag2
(g6
S'R\t'
p9247
tp9248
Rp9249
ag2
(g6
S'S\t'
p9250
tp9251
Rp9252
ag2
(g6
S'T\t'
p9253
tp9254
Rp9255
ag2
(g6
S'U\t'
p9256
tp9257
Rp9258
ag2
(g6
S'V\t'
p9259
tp9260
Rp9261
ag2
(g6
S'W\t'
p9262
tp9263
Rp9264
ag2
(g6
S'X\t'
p9265
tp9266
Rp9267
ag2
(g6
S'd\t'
p9268
tp9269
Rp9270
ag2
(g6
S'e\t'
p9271
tp9272
Rp9273
ag2
(g6
S'f\t'
p9274
tp9275
Rp9276
ag2
(g6
S'g\t'
p9277
tp9278
Rp9279
ag2
(g6
S't\t'
p9280
tp9281
Rp9282
ag2
(g6
S'u\t'
p9283
tp9284
Rp9285
ag2
(g6
S'v\t'
p9286
tp9287
Rp9288
ag2
(g6
S'B\x0b'
p9289
tp9290
Rp9291
ag2
(g6
S'C\x0b'
p9292
tp9293
Rp9294
ag2
(g6
S'G\x0b'
p9295
tp9296
Rp9297
ag2
(g6
S'H\x0b'
p9298
tp9299
Rp9300
ag2
(g6
S'I\x0b'
p9301
tp9302
Rp9303
ag2
(g6
S'J\x0b'
p9304
tp9305
Rp9306
ag2
(g6
S'P\x0b'
p9307
tp9308
Rp9309
ag2
(g6
S'Q\x0b'
p9310
tp9311
Rp9312
ag2
(g6
S'R\x0b'
p9313
tp9314
Rp9315
ag2
(g6
S'S\x0b'
p9316
tp9317
Rp9318
ag2
(g6
S'T\x0b'
p9319
tp9320
Rp9321
ag2
(g6
S'[\x0b'
p9322
tp9323
Rp9324
ag2
(g6
S'\\\x0b'
p9325
tp9326
Rp9327
ag2
(g6
S']\x0b'
p9328
tp9329
Rp9330
ag2
(g6
S'^\x0b'
p9331
tp9332
Rp9333
ag2
(g6
S'_\x0b'
p9334
tp9335
Rp9336
ag2
(g6
S'`\x0b'
p9337
tp9338
Rp9339
ag2
(g6
S'h\x0b'
p9340
tp9341
Rp9342
ag2
(g6
S'i\x0b'
p9343
tp9344
Rp9345
ag2
(g6
S'j\x0b'
p9346
tp9347
Rp9348
ag2
(g6
S'k\x0b'
p9349
tp9350
Rp9351
ag2
(g6
S'l\x0b'
p9352
tp9353
Rp9354
ag2
(g6
S'm\x0b'
p9355
tp9356
Rp9357
ag2
(g6
S't\x0b'
p9358
tp9359
Rp9360
ag2
(g6
S'u\x0b'
p9361
tp9362
Rp9363
ag2
(g6
S'v\x0b'
p9364
tp9365
Rp9366
ag2
(g6
S'w\x0b'
p9367
tp9368
Rp9369
ag2
(g6
S'x\x0b'
p9370
tp9371
Rp9372
ag2
(g6
S'y\x0b'
p9373
tp9374
Rp9375
ag2
(g6
S'\x80\x0b'
p9376
tp9377
Rp9378
ag2
(g6
S'\x81\x0b'
p9379
tp9380
Rp9381
ag2
(g6
S'\x82\x0b'
p9382
tp9383
Rp9384
ag2
(g6
S'\x83\x0b'
p9385
tp9386
Rp9387
ag2
(g6
S'\x84\x0b'
p9388
tp9389
Rp9390
ag2
(g6
S'\x85\x0b'
p9391
tp9392
Rp9393
ag2
(g6
S'\x8d\x0b'
p9394
tp9395
Rp9396
ag2
(g6
S'\x8e\x0b'
p9397
tp9398
Rp9399
ag2
(g6
S'\x8f\x0b'
p9400
tp9401
Rp9402
ag2
(g6
S'\x90\x0b'
p9403
tp9404
Rp9405
ag2
(g6
S'\x91\x0b'
p9406
tp9407
Rp9408
ag2
(g6
S'\x92\x0b'
p9409
tp9410
Rp9411
ag2
(g6
S'\x9b\x0b'
p9412
tp9413
Rp9414
ag2
(g6
S'\x9c\x0b'
p9415
tp9416
Rp9417
ag2
(g6
S'\x9d\x0b'
p9418
tp9419
Rp9420
ag2
(g6
S'\x9e\x0b'
p9421
tp9422
Rp9423
ag2
(g6
S'\x9f\x0b'
p9424
tp9425
Rp9426
ag2
(g6
S'\xa0\x0b'
p9427
tp9428
Rp9429
ag2
(g6
S'l\r'
p9430
tp9431
Rp9432
ag2
(g6
S'm\r'
p9433
tp9434
Rp9435
ag2
(g6
S'n\r'
p9436
tp9437
Rp9438
ag2
(g6
S'r\r'
p9439
tp9440
Rp9441
ag2
(g6
S's\r'
p9442
tp9443
Rp9444
ag2
(g6
S't\r'
p9445
tp9446
Rp9447
ag2
(g6
S'y\r'
p9448
tp9449
Rp9450
ag2
(g6
S'z\r'
p9451
tp9452
Rp9453
ag2
(g6
S'{\r'
p9454
tp9455
Rp9456
ag2
(g6
S'|\r'
p9457
tp9458
Rp9459
ag2
(g6
S'}\r'
p9460
tp9461
Rp9462
ag2
(g6
S'\x84\r'
p9463
tp9464
Rp9465
ag2
(g6
S'\x85\r'
p9466
tp9467
Rp9468
ag2
(g6
S'\x86\r'
p9469
tp9470
Rp9471
ag2
(g6
S'\x87\r'
p9472
tp9473
Rp9474
ag2
(g6
S'\x88\r'
p9475
tp9476
Rp9477
ag2
(g6
S'\x8f\r'
p9478
tp9479
Rp9480
ag2
(g6
S'\x90\r'
p9481
tp9482
Rp9483
ag2
(g6
S'\x91\r'
p9484
tp9485
Rp9486
ag2
(g6
S'\x92\r'
p9487
tp9488
Rp9489
ag2
(g6
S'\x93\r'
p9490
tp9491
Rp9492
ag2
(g6
S'\x9a\r'
p9493
tp9494
Rp9495
ag2
(g6
S'\x9b\r'
p9496
tp9497
Rp9498
ag2
(g6
S'\x9c\r'
p9499
tp9500
Rp9501
ag2
(g6
S'\x9d\r'
p9502
tp9503
Rp9504
ag2
(g6
S'\x9e\r'
p9505
tp9506
Rp9507
ag2
(g6
S'\xa5\r'
p9508
tp9509
Rp9510
ag2
(g6
S'\xa6\r'
p9511
tp9512
Rp9513
ag2
(g6
S'\xa7\r'
p9514
tp9515
Rp9516
ag2
(g6
S'\xa8\r'
p9517
tp9518
Rp9519
ag2
(g6
S'\xb0\r'
p9520
tp9521
Rp9522
ag2
(g6
S'\xb1\r'
p9523
tp9524
Rp9525
ag2
(g6
S'\xb2\r'
p9526
tp9527
Rp9528
ag2
(g6
S'\xb3\r'
p9529
tp9530
Rp9531
ag2
(g6
S'\xb4\r'
p9532
tp9533
Rp9534
ag2
(g6
S'\xc2\x0f'
p9535
tp9536
Rp9537
ag2
(g6
S'\xc3\x0f'
p9538
tp9539
Rp9540
ag2
(g6
S'\xc4\x0f'
p9541
tp9542
Rp9543
ag2
(g6
S'\xc5\x0f'
p9544
tp9545
Rp9546
ag2
(g6
S'\xc6\x0f'
p9547
tp9548
Rp9549
ag2
(g6
S'\xcb\x0f'
p9550
tp9551
Rp9552
ag2
(g6
S'\xcc\x0f'
p9553
tp9554
Rp9555
ag2
(g6
S'\xd1\x0f'
p9556
tp9557
Rp9558
ag2
(g6
S'\xd2\x0f'
p9559
tp9560
Rp9561
ag2
(g6
S'\xd3\x0f'
p9562
tp9563
Rp9564
ag2
(g6
S'\xd8\x0f'
p9565
tp9566
Rp9567
ag2
(g6
S'\xd9\x0f'
p9568
tp9569
Rp9570
ag2
(g6
S'\xda\x0f'
p9571
tp9572
Rp9573
ag2
(g6
S'\xdb\x0f'
p9574
tp9575
Rp9576
ag2
(g6
S'\xdc\x0f'
p9577
tp9578
Rp9579
ag2
(g6
S'\xe2\x0f'
p9580
tp9581
Rp9582
ag2
(g6
S'\xe3\x0f'
p9583
tp9584
Rp9585
ag2
(g6
S'\xe4\x0f'
p9586
tp9587
Rp9588
ag2
(g6
S'\xe5\x0f'
p9589
tp9590
Rp9591
ag2
(g6
S'\xe6\x0f'
p9592
tp9593
Rp9594
ag2
(g6
S'\xe7\x0f'
p9595
tp9596
Rp9597
ag2
(g6
S'\xe8\x0f'
p9598
tp9599
Rp9600
ag2
(g6
S'\xef\x0f'
p9601
tp9602
Rp9603
ag2
(g6
S'\xf0\x0f'
p9604
tp9605
Rp9606
ag2
(g6
S'\xf1\x0f'
p9607
tp9608
Rp9609
ag2
(g6
S'\xf2\x0f'
p9610
tp9611
Rp9612
ag2
(g6
S'\xf3\x0f'
p9613
tp9614
Rp9615
ag2
(g6
S'\xf4\x0f'
p9616
tp9617
Rp9618
ag2
(g6
S'\xfb\x0f'
p9619
tp9620
Rp9621
ag2
(g6
S'\xfc\x0f'
p9622
tp9623
Rp9624
ag2
(g6
S'\xfd\x0f'
p9625
tp9626
Rp9627
ag2
(g6
S'\xfe\x0f'
p9628
tp9629
Rp9630
ag2
(g6
S'\xff\x0f'
p9631
tp9632
Rp9633
ag2
(g6
S'\x00\x10'
p9634
tp9635
Rp9636
ag2
(g6
S'\t\x10'
p9637
tp9638
Rp9639
ag2
(g6
S'\n\x10'
p9640
tp9641
Rp9642
ag2
(g6
S'\r\x10'
p9643
tp9644
Rp9645
ag2
(g6
S'\x0e\x10'
p9646
tp9647
Rp9648
aa(lp9649
g2
(g6
S'A\x00'
p9650
tp9651
Rp9652
ag2
(g6
S'W\x00'
p9653
tp9654
Rp9655
ag2
(g6
S'X\x00'
p9656
tp9657
Rp9658
ag2
(g6
S'Y\x00'
p9659
tp9660
Rp9661
ag2
(g6
S'o\x00'
p9662
tp9663
Rp9664
ag2
(g6
S'p\x00'
p9665
tp9666
Rp9667
ag2
(g6
S'\xed\x01'
p9668
tp9669
Rp9670
ag2
(g6
S'\xfb\x01'
p9671
tp9672
Rp9673
ag2
(g6
S'\x0c\x02'
p9674
tp9675
Rp9676
ag2
(g6
S'\x1d\x02'
p9677
tp9678
Rp9679
ag2
(g6
S'\x1e\x02'
p9680
tp9681
Rp9682
ag2
(g6
S'.\x02'
p9683
tp9684
Rp9685
ag2
(g6
S'/\x02'
p9686
tp9687
Rp9688
ag2
(g6
S'0\x02'
p9689
tp9690
Rp9691
ag2
(g6
S'F\x02'
p9692
tp9693
Rp9694
ag2
(g6
S'G\x02'
p9695
tp9696
Rp9697
ag2
(g6
S'H\x02'
p9698
tp9699
Rp9700
ag2
(g6
S'c\x02'
p9701
tp9702
Rp9703
ag2
(g6
S'\x18\x04'
p9704
tp9705
Rp9706
ag2
(g6
S'&\x04'
p9707
tp9708
Rp9709
ag2
(g6
S'4\x04'
p9710
tp9711
Rp9712
ag2
(g6
S'C\x04'
p9713
tp9714
Rp9715
ag2
(g6
S'D\x04'
p9716
tp9717
Rp9718
ag2
(g6
S'U\x04'
p9719
tp9720
Rp9721
ag2
(g6
S'V\x04'
p9722
tp9723
Rp9724
ag2
(g6
S'h\x04'
p9725
tp9726
Rp9727
ag2
(g6
S'i\x04'
p9728
tp9729
Rp9730
ag2
(g6
S'j\x04'
p9731
tp9732
Rp9733
ag2
(g6
S'{\x04'
p9734
tp9735
Rp9736
ag2
(g6
S'|\x04'
p9737
tp9738
Rp9739
ag2
(g6
S'}\x04'
p9740
tp9741
Rp9742
ag2
(g6
S'~\x04'
p9743
tp9744
Rp9745
ag2
(g6
S'\x99\x04'
p9746
tp9747
Rp9748
ag2
(g6
S'\x9a\x04'
p9749
tp9750
Rp9751
ag2
(g6
S'\x9b\x04'
p9752
tp9753
Rp9754
ag2
(g6
S'\xc0\x06'
p9755
tp9756
Rp9757
ag2
(g6
S'\xc1\x06'
p9758
tp9759
Rp9760
ag2
(g6
S'\xc2\x06'
p9761
tp9762
Rp9763
ag2
(g6
S'\xd0\x06'
p9764
tp9765
Rp9766
ag2
(g6
S'\xd1\x06'
p9767
tp9768
Rp9769
ag2
(g6
S'\xd2\x06'
p9770
tp9771
Rp9772
ag2
(g6
S'\xe1\x06'
p9773
tp9774
Rp9775
ag2
(g6
S'\xe2\x06'
p9776
tp9777
Rp9778
ag2
(g6
S'\xe3\x06'
p9779
tp9780
Rp9781
ag2
(g6
S'\xe4\x06'
p9782
tp9783
Rp9784
ag2
(g6
S'\xf2\x06'
p9785
tp9786
Rp9787
ag2
(g6
S'\xf3\x06'
p9788
tp9789
Rp9790
ag2
(g6
S'\xf4\x06'
p9791
tp9792
Rp9793
ag2
(g6
S'\xf5\x06'
p9794
tp9795
Rp9796
ag2
(g6
S'\x04\x07'
p9797
tp9798
Rp9799
ag2
(g6
S'\x05\x07'
p9800
tp9801
Rp9802
ag2
(g6
S'\x06\x07'
p9803
tp9804
Rp9805
ag2
(g6
S'\x07\x07'
p9806
tp9807
Rp9808
ag2
(g6
S'\x08\x07'
p9809
tp9810
Rp9811
ag2
(g6
S'\x16\x07'
p9812
tp9813
Rp9814
ag2
(g6
S'\x17\x07'
p9815
tp9816
Rp9817
ag2
(g6
S'\x18\x07'
p9818
tp9819
Rp9820
ag2
(g6
S'\x19\x07'
p9821
tp9822
Rp9823
ag2
(g6
S'\x1a\x07'
p9824
tp9825
Rp9826
ag2
(g6
S'(\x07'
p9827
tp9828
Rp9829
ag2
(g6
S')\x07'
p9830
tp9831
Rp9832
ag2
(g6
S'*\x07'
p9833
tp9834
Rp9835
ag2
(g6
S'+\x07'
p9836
tp9837
Rp9838
ag2
(g6
S',\x07'
p9839
tp9840
Rp9841
ag2
(g6
S'7\x07'
p9842
tp9843
Rp9844
ag2
(g6
S'8\x07'
p9845
tp9846
Rp9847
ag2
(g6
S'9\x07'
p9848
tp9849
Rp9850
ag2
(g6
S':\x07'
p9851
tp9852
Rp9853
aa(lp9854
g2
(g6
S'\xf3\x00'
p9855
tp9856
Rp9857
ag2
(g6
S'\xf4\x00'
p9858
tp9859
Rp9860
ag2
(g6
S'\xf5\x00'
p9861
tp9862
Rp9863
ag2
(g6
S'\xf6\x00'
p9864
tp9865
Rp9866
ag2
(g6
S'\xf7\x00'
p9867
tp9868
Rp9869
ag2
(g6
S'\xfd\x00'
p9870
tp9871
Rp9872
ag2
(g6
S'\xfe\x00'
p9873
tp9874
Rp9875
ag2
(g6
S'\xff\x00'
p9876
tp9877
Rp9878
ag2
(g6
S'\x0c\x01'
p9879
tp9880
Rp9881
ag2
(g6
S'\xe3\x02'
p9882
tp9883
Rp9884
ag2
(g6
S'\xe4\x02'
p9885
tp9886
Rp9887
ag2
(g6
S'\xea\x02'
p9888
tp9889
Rp9890
ag2
(g6
S'\xeb\x02'
p9891
tp9892
Rp9893
ag2
(g6
S'\xec\x02'
p9894
tp9895
Rp9896
ag2
(g6
S'\xf7\x02'
p9897
tp9898
Rp9899
ag2
(g6
S'\xf8\x02'
p9900
tp9901
Rp9902
ag2
(g6
S'\xf9\x02'
p9903
tp9904
Rp9905
ag2
(g6
S'\xfa\x02'
p9906
tp9907
Rp9908
ag2
(g6
S'\t\x03'
p9909
tp9910
Rp9911
ag2
(g6
S'\n\x03'
p9912
tp9913
Rp9914
ag2
(g6
S'\x0b\x03'
p9915
tp9916
Rp9917
ag2
(g6
S'\x0c\x03'
p9918
tp9919
Rp9920
ag2
(g6
S'\x1f\x03'
p9921
tp9922
Rp9923
ag2
(g6
S' \x03'
p9924
tp9925
Rp9926
ag2
(g6
S'!\x03'
p9927
tp9928
Rp9929
ag2
(g6
S'5\x03'
p9930
tp9931
Rp9932
ag2
(g6
S'6\x03'
p9933
tp9934
Rp9935
ag2
(g6
S'7\x03'
p9936
tp9937
Rp9938
ag2
(g6
S'N\x03'
p9939
tp9940
Rp9941
ag2
(g6
S'B\x05'
p9942
tp9943
Rp9944
ag2
(g6
S'C\x05'
p9945
tp9946
Rp9947
ag2
(g6
S'D\x05'
p9948
tp9949
Rp9950
ag2
(g6
S'E\x05'
p9951
tp9952
Rp9953
ag2
(g6
S'I\x05'
p9954
tp9955
Rp9956
ag2
(g6
S'J\x05'
p9957
tp9958
Rp9959
ag2
(g6
S'K\x05'
p9960
tp9961
Rp9962
ag2
(g6
S'L\x05'
p9963
tp9964
Rp9965
ag2
(g6
S'M\x05'
p9966
tp9967
Rp9968
ag2
(g6
S'\\\x05'
p9969
tp9970
Rp9971
ag2
(g6
S']\x05'
p9972
tp9973
Rp9974
ag2
(g6
S'^\x05'
p9975
tp9976
Rp9977
ag2
(g6
S'_\x05'
p9978
tp9979
Rp9980
ag2
(g6
S'`\x05'
p9981
tp9982
Rp9983
ag2
(g6
S'r\x05'
p9984
tp9985
Rp9986
ag2
(g6
S's\x05'
p9987
tp9988
Rp9989
ag2
(g6
S't\x05'
p9990
tp9991
Rp9992
ag2
(g6
S'u\x05'
p9993
tp9994
Rp9995
ag2
(g6
S'v\x05'
p9996
tp9997
Rp9998
ag2
(g6
S'\x8a\x05'
p9999
tp10000
Rp10001
ag2
(g6
S'\x8b\x05'
p10002
tp10003
Rp10004
ag2
(g6
S'\x8c\x05'
p10005
tp10006
Rp10007
ag2
(g6
S'\xa3\x05'
p10008
tp10009
Rp10010
ag2
(g6
S'\xa4\x05'
p10011
tp10012
Rp10013
ag2
(g6
S'\xbf\x05'
p10014
tp10015
Rp10016
ag2
(g6
S'\xc0\x05'
p10017
tp10018
Rp10019
ag2
(g6
S'\xdc\x05'
p10020
tp10021
Rp10022
ag2
(g6
S'\x9a\x07'
p10023
tp10024
Rp10025
ag2
(g6
S'\x9b\x07'
p10026
tp10027
Rp10028
ag2
(g6
S'\x9c\x07'
p10029
tp10030
Rp10031
ag2
(g6
S'\x9d\x07'
p10032
tp10033
Rp10034
ag2
(g6
S'\x9e\x07'
p10035
tp10036
Rp10037
ag2
(g6
S'\xa0\x07'
p10038
tp10039
Rp10040
ag2
(g6
S'\xa2\x07'
p10041
tp10042
Rp10043
ag2
(g6
S'\xa6\x07'
p10044
tp10045
Rp10046
ag2
(g6
S'\xa7\x07'
p10047
tp10048
Rp10049
ag2
(g6
S'\xa8\x07'
p10050
tp10051
Rp10052
ag2
(g6
S'\xa9\x07'
p10053
tp10054
Rp10055
ag2
(g6
S'\xaa\x07'
p10056
tp10057
Rp10058
ag2
(g6
S'\xab\x07'
p10059
tp10060
Rp10061
ag2
(g6
S'\xac\x07'
p10062
tp10063
Rp10064
ag2
(g6
S'\xb2\x07'
p10065
tp10066
Rp10067
ag2
(g6
S'\xb3\x07'
p10068
tp10069
Rp10070
ag2
(g6
S'\xb4\x07'
p10071
tp10072
Rp10073
ag2
(g6
S'\xb5\x07'
p10074
tp10075
Rp10076
ag2
(g6
S'\xb6\x07'
p10077
tp10078
Rp10079
ag2
(g6
S'\xb7\x07'
p10080
tp10081
Rp10082
ag2
(g6
S'\xb8\x07'
p10083
tp10084
Rp10085
ag2
(g6
S'\xc8\x07'
p10086
tp10087
Rp10088
ag2
(g6
S'\xc9\x07'
p10089
tp10090
Rp10091
ag2
(g6
S'\xca\x07'
p10092
tp10093
Rp10094
ag2
(g6
S'\xcb\x07'
p10095
tp10096
Rp10097
ag2
(g6
S'\xcc\x07'
p10098
tp10099
Rp10100
ag2
(g6
S'\xcd\x07'
p10101
tp10102
Rp10103
ag2
(g6
S'\xce\x07'
p10104
tp10105
Rp10106
ag2
(g6
S'\xe0\x07'
p10107
tp10108
Rp10109
ag2
(g6
S'\xe1\x07'
p10110
tp10111
Rp10112
ag2
(g6
S'\xe2\x07'
p10113
tp10114
Rp10115
ag2
(g6
S'\xe3\x07'
p10116
tp10117
Rp10118
ag2
(g6
S'\xe4\x07'
p10119
tp10120
Rp10121
ag2
(g6
S'\xfa\x07'
p10122
tp10123
Rp10124
ag2
(g6
S'\xfb\x07'
p10125
tp10126
Rp10127
ag2
(g6
S'\xfc\x07'
p10128
tp10129
Rp10130
aa(lp10131
g2
(g6
S'\r\x01'
p10132
tp10133
Rp10134
ag2
(g6
S'\x0e\x01'
p10135
tp10136
Rp10137
ag2
(g6
S'\x0f\x01'
p10138
tp10139
Rp10140
ag2
(g6
S'\x1f\x01'
p10141
tp10142
Rp10143
ag2
(g6
S' \x01'
p10144
tp10145
Rp10146
ag2
(g6
S'!\x01'
p10147
tp10148
Rp10149
ag2
(g6
S'3\x01'
p10150
tp10151
Rp10152
ag2
(g6
S'4\x01'
p10153
tp10154
Rp10155
ag2
(g6
S'I\x01'
p10156
tp10157
Rp10158
ag2
(g6
S'L\x01'
p10159
tp10160
Rp10161
ag2
(g6
S'M\x01'
p10162
tp10163
Rp10164
ag2
(g6
S'c\x01'
p10165
tp10166
Rp10167
ag2
(g6
S'e\x01'
p10168
tp10169
Rp10170
ag2
(g6
S'f\x01'
p10171
tp10172
Rp10173
ag2
(g6
S'g\x01'
p10174
tp10175
Rp10176
ag2
(g6
S'h\x01'
p10177
tp10178
Rp10179
ag2
(g6
S'i\x01'
p10180
tp10181
Rp10182
ag2
(g6
S'|\x01'
p10183
tp10184
Rp10185
ag2
(g6
S'}\x01'
p10186
tp10187
Rp10188
ag2
(g6
S'~\x01'
p10189
tp10190
Rp10191
ag2
(g6
S'\x7f\x01'
p10192
tp10193
Rp10194
ag2
(g6
S'\x80\x01'
p10195
tp10196
Rp10197
ag2
(g6
S'\x81\x01'
p10198
tp10199
Rp10200
ag2
(g6
S'\x93\x01'
p10201
tp10202
Rp10203
ag2
(g6
S'\x94\x01'
p10204
tp10205
Rp10206
ag2
(g6
S'\x95\x01'
p10207
tp10208
Rp10209
ag2
(g6
S'\xa6\x01'
p10210
tp10211
Rp10212
ag2
(g6
S'\xa7\x01'
p10213
tp10214
Rp10215
ag2
(g6
S'\xfb\x02'
p10216
tp10217
Rp10218
ag2
(g6
S'\r\x03'
p10219
tp10220
Rp10221
ag2
(g6
S'"\x03'
p10222
tp10223
Rp10224
ag2
(g6
S'#\x03'
p10225
tp10226
Rp10227
ag2
(g6
S'8\x03'
p10228
tp10229
Rp10230
ag2
(g6
S'9\x03'
p10231
tp10232
Rp10233
ag2
(g6
S'O\x03'
p10234
tp10235
Rp10236
ag2
(g6
S'P\x03'
p10237
tp10238
Rp10239
ag2
(g6
S'Q\x03'
p10240
tp10241
Rp10242
ag2
(g6
S'R\x03'
p10243
tp10244
Rp10245
ag2
(g6
S'S\x03'
p10246
tp10247
Rp10248
ag2
(g6
S'g\x03'
p10249
tp10250
Rp10251
ag2
(g6
S'h\x03'
p10252
tp10253
Rp10254
ag2
(g6
S'|\x03'
p10255
tp10256
Rp10257
ag2
(g6
S'}\x03'
p10258
tp10259
Rp10260
ag2
(g6
S'~\x03'
p10261
tp10262
Rp10263
ag2
(g6
S'\x7f\x03'
p10264
tp10265
Rp10266
ag2
(g6
S'\x80\x03'
p10267
tp10268
Rp10269
ag2
(g6
S'\x81\x03'
p10270
tp10271
Rp10272
ag2
(g6
S'\x98\x03'
p10273
tp10274
Rp10275
ag2
(g6
S'\x99\x03'
p10276
tp10277
Rp10278
ag2
(g6
S'F\x05'
p10279
tp10280
Rp10281
ag2
(g6
S'G\x05'
p10282
tp10283
Rp10284
ag2
(g6
S'H\x05'
p10285
tp10286
Rp10287
ag2
(g6
S'N\x05'
p10288
tp10289
Rp10290
ag2
(g6
S'O\x05'
p10291
tp10292
Rp10293
ag2
(g6
S'P\x05'
p10294
tp10295
Rp10296
ag2
(g6
S'a\x05'
p10297
tp10298
Rp10299
ag2
(g6
S'b\x05'
p10300
tp10301
Rp10302
ag2
(g6
S'c\x05'
p10303
tp10304
Rp10305
ag2
(g6
S'w\x05'
p10306
tp10307
Rp10308
ag2
(g6
S'x\x05'
p10309
tp10310
Rp10311
ag2
(g6
S'y\x05'
p10312
tp10313
Rp10314
ag2
(g6
S'z\x05'
p10315
tp10316
Rp10317
ag2
(g6
S'\x8d\x05'
p10318
tp10319
Rp10320
ag2
(g6
S'\x8e\x05'
p10321
tp10322
Rp10323
ag2
(g6
S'\x8f\x05'
p10324
tp10325
Rp10326
ag2
(g6
S'\x90\x05'
p10327
tp10328
Rp10329
ag2
(g6
S'\xa5\x05'
p10330
tp10331
Rp10332
ag2
(g6
S'\xa6\x05'
p10333
tp10334
Rp10335
ag2
(g6
S'\xa7\x05'
p10336
tp10337
Rp10338
ag2
(g6
S'\xa8\x05'
p10339
tp10340
Rp10341
ag2
(g6
S'\xa9\x05'
p10342
tp10343
Rp10344
ag2
(g6
S'\xc1\x05'
p10345
tp10346
Rp10347
ag2
(g6
S'\xc2\x05'
p10348
tp10349
Rp10350
ag2
(g6
S'\xc3\x05'
p10351
tp10352
Rp10353
ag2
(g6
S'\xc4\x05'
p10354
tp10355
Rp10356
ag2
(g6
S'\xc5\x05'
p10357
tp10358
Rp10359
ag2
(g6
S'\xc6\x05'
p10360
tp10361
Rp10362
ag2
(g6
S'\xc7\x05'
p10363
tp10364
Rp10365
ag2
(g6
S'\xc8\x05'
p10366
tp10367
Rp10368
ag2
(g6
S'\xdd\x05'
p10369
tp10370
Rp10371
ag2
(g6
S'\xde\x05'
p10372
tp10373
Rp10374
ag2
(g6
S'\xdf\x05'
p10375
tp10376
Rp10377
ag2
(g6
S'\xe0\x05'
p10378
tp10379
Rp10380
ag2
(g6
S'\xe1\x05'
p10381
tp10382
Rp10383
ag2
(g6
S'\xe2\x05'
p10384
tp10385
Rp10386
ag2
(g6
S'\xe3\x05'
p10387
tp10388
Rp10389
ag2
(g6
S'\xe4\x05'
p10390
tp10391
Rp10392
ag2
(g6
S'\xf8\x05'
p10393
tp10394
Rp10395
ag2
(g6
S'\xf9\x05'
p10396
tp10397
Rp10398
ag2
(g6
S'\xfa\x05'
p10399
tp10400
Rp10401
ag2
(g6
S'\xfb\x05'
p10402
tp10403
Rp10404
ag2
(g6
S'\xfc\x05'
p10405
tp10406
Rp10407
ag2
(g6
S'\xfd\x05'
p10408
tp10409
Rp10410
ag2
(g6
S'\xfe\x05'
p10411
tp10412
Rp10413
ag2
(g6
S'\x13\x06'
p10414
tp10415
Rp10416
ag2
(g6
S'\x14\x06'
p10417
tp10418
Rp10419
ag2
(g6
S'\x15\x06'
p10420
tp10421
Rp10422
ag2
(g6
S'\x16\x06'
p10423
tp10424
Rp10425
ag2
(g6
S'-\x06'
p10426
tp10427
Rp10428
ag2
(g6
S'.\x06'
p10429
tp10430
Rp10431
ag2
(g6
S'/\x06'
p10432
tp10433
Rp10434
ag2
(g6
S'0\x06'
p10435
tp10436
Rp10437
ag2
(g6
S'F\x06'
p10438
tp10439
Rp10440
ag2
(g6
S'G\x06'
p10441
tp10442
Rp10443
ag2
(g6
S'\\\x06'
p10444
tp10445
Rp10446
ag2
(g6
S'p\x06'
p10447
tp10448
Rp10449
ag2
(g6
S'\xa3\x07'
p10450
tp10451
Rp10452
ag2
(g6
S'\xa4\x07'
p10453
tp10454
Rp10455
ag2
(g6
S'\xad\x07'
p10456
tp10457
Rp10458
ag2
(g6
S'\xae\x07'
p10459
tp10460
Rp10461
ag2
(g6
S'\xb9\x07'
p10462
tp10463
Rp10464
ag2
(g6
S'\xba\x07'
p10465
tp10466
Rp10467
ag2
(g6
S'\xcf\x07'
p10468
tp10469
Rp10470
ag2
(g6
S'\xd0\x07'
p10471
tp10472
Rp10473
ag2
(g6
S'\xd1\x07'
p10474
tp10475
Rp10476
ag2
(g6
S'\xe5\x07'
p10477
tp10478
Rp10479
ag2
(g6
S'\xe6\x07'
p10480
tp10481
Rp10482
ag2
(g6
S'\xe7\x07'
p10483
tp10484
Rp10485
ag2
(g6
S'\xe8\x07'
p10486
tp10487
Rp10488
ag2
(g6
S'\xfd\x07'
p10489
tp10490
Rp10491
ag2
(g6
S'\xfe\x07'
p10492
tp10493
Rp10494
ag2
(g6
S'\xff\x07'
p10495
tp10496
Rp10497
ag2
(g6
S'\x00\x08'
p10498
tp10499
Rp10500
ag2
(g6
S'\x01\x08'
p10501
tp10502
Rp10503
ag2
(g6
S'\x16\x08'
p10504
tp10505
Rp10506
ag2
(g6
S'\x17\x08'
p10507
tp10508
Rp10509
ag2
(g6
S'\x18\x08'
p10510
tp10511
Rp10512
ag2
(g6
S'\x19\x08'
p10513
tp10514
Rp10515
ag2
(g6
S'\x1a\x08'
p10516
tp10517
Rp10518
ag2
(g6
S'\x1b\x08'
p10519
tp10520
Rp10521
ag2
(g6
S'\x1c\x08'
p10522
tp10523
Rp10524
ag2
(g6
S'\x1d\x08'
p10525
tp10526
Rp10527
ag2
(g6
S'1\x08'
p10528
tp10529
Rp10530
ag2
(g6
S'2\x08'
p10531
tp10532
Rp10533
ag2
(g6
S'3\x08'
p10534
tp10535
Rp10536
ag2
(g6
S'4\x08'
p10537
tp10538
Rp10539
ag2
(g6
S'5\x08'
p10540
tp10541
Rp10542
ag2
(g6
S'6\x08'
p10543
tp10544
Rp10545
ag2
(g6
S'7\x08'
p10546
tp10547
Rp10548
ag2
(g6
S'8\x08'
p10549
tp10550
Rp10551
ag2
(g6
S'M\x08'
p10552
tp10553
Rp10554
ag2
(g6
S'N\x08'
p10555
tp10556
Rp10557
ag2
(g6
S'O\x08'
p10558
tp10559
Rp10560
ag2
(g6
S'P\x08'
p10561
tp10562
Rp10563
ag2
(g6
S'Q\x08'
p10564
tp10565
Rp10566
ag2
(g6
S'R\x08'
p10567
tp10568
Rp10569
ag2
(g6
S'S\x08'
p10570
tp10571
Rp10572
ag2
(g6
S'T\x08'
p10573
tp10574
Rp10575
ag2
(g6
S'j\x08'
p10576
tp10577
Rp10578
ag2
(g6
S'k\x08'
p10579
tp10580
Rp10581
ag2
(g6
S'l\x08'
p10582
tp10583
Rp10584
ag2
(g6
S'm\x08'
p10585
tp10586
Rp10587
ag2
(g6
S'n\x08'
p10588
tp10589
Rp10590
ag2
(g6
S'\x85\x08'
p10591
tp10592
Rp10593
ag2
(g6
S'\x86\x08'
p10594
tp10595
Rp10596
ag2
(g6
S'\x87\x08'
p10597
tp10598
Rp10599
ag2
(g6
S'\x88\x08'
p10600
tp10601
Rp10602
ag2
(g6
S'\x9f\x08'
p10603
tp10604
Rp10605
ag2
(g6
S'\xa0\x08'
p10606
tp10607
Rp10608
ag2
(g6
S'\xa1\x08'
p10609
tp10610
Rp10611
ag2
(g6
S'\xb8\x08'
p10612
tp10613
Rp10614
ag2
(g6
S'\xb9\x08'
p10615
tp10616
Rp10617
ag2
(g6
S'\xba\x08'
p10618
tp10619
Rp10620
ag2
(g6
S'\xcf\x08'
p10621
tp10622
Rp10623
ag2
(g6
S'\xd0\x08'
p10624
tp10625
Rp10626
ag2
(g6
S'\xe4\x08'
p10627
tp10628
Rp10629
aa(lp10630
g2
(g6
S'<\n'
p10631
tp10632
Rp10633
ag2
(g6
S'H\n'
p10634
tp10635
Rp10636
ag2
(g6
S'I\n'
p10637
tp10638
Rp10639
ag2
(g6
S'J\n'
p10640
tp10641
Rp10642
ag2
(g6
S'K\n'
p10643
tp10644
Rp10645
ag2
(g6
S'L\n'
p10646
tp10647
Rp10648
ag2
(g6
S'W\n'
p10649
tp10650
Rp10651
ag2
(g6
S'X\n'
p10652
tp10653
Rp10654
ag2
(g6
S'Y\n'
p10655
tp10656
Rp10657
ag2
(g6
S'Z\n'
p10658
tp10659
Rp10660
ag2
(g6
S'[\n'
p10661
tp10662
Rp10663
ag2
(g6
S'\\\n'
p10664
tp10665
Rp10666
ag2
(g6
S'g\n'
p10667
tp10668
Rp10669
ag2
(g6
S'h\n'
p10670
tp10671
Rp10672
ag2
(g6
S'i\n'
p10673
tp10674
Rp10675
ag2
(g6
S'j\n'
p10676
tp10677
Rp10678
ag2
(g6
S'k\n'
p10679
tp10680
Rp10681
ag2
(g6
S'l\n'
p10682
tp10683
Rp10684
ag2
(g6
S'm\n'
p10685
tp10686
Rp10687
ag2
(g6
S'n\n'
p10688
tp10689
Rp10690
ag2
(g6
S'z\n'
p10691
tp10692
Rp10693
ag2
(g6
S'{\n'
p10694
tp10695
Rp10696
ag2
(g6
S'|\n'
p10697
tp10698
Rp10699
ag2
(g6
S'}\n'
p10700
tp10701
Rp10702
ag2
(g6
S'~\n'
p10703
tp10704
Rp10705
ag2
(g6
S'\x7f\n'
p10706
tp10707
Rp10708
ag2
(g6
S'\x80\n'
p10709
tp10710
Rp10711
ag2
(g6
S'\x81\n'
p10712
tp10713
Rp10714
ag2
(g6
S'\x96\n'
p10715
tp10716
Rp10717
ag2
(g6
S'\x97\n'
p10718
tp10719
Rp10720
ag2
(g6
S'\x98\n'
p10721
tp10722
Rp10723
ag2
(g6
S'\x99\n'
p10724
tp10725
Rp10726
ag2
(g6
S'\x9a\n'
p10727
tp10728
Rp10729
ag2
(g6
S'\x9b\n'
p10730
tp10731
Rp10732
ag2
(g6
S'\x9c\n'
p10733
tp10734
Rp10735
ag2
(g6
S'\xb3\n'
p10736
tp10737
Rp10738
ag2
(g6
S'\xb4\n'
p10739
tp10740
Rp10741
ag2
(g6
S'\xb5\n'
p10742
tp10743
Rp10744
ag2
(g6
S'\xb6\n'
p10745
tp10746
Rp10747
ag2
(g6
S'\xb7\n'
p10748
tp10749
Rp10750
ag2
(g6
S'\xb8\n'
p10751
tp10752
Rp10753
ag2
(g6
S'\xb9\n'
p10754
tp10755
Rp10756
ag2
(g6
S'\xcf\n'
p10757
tp10758
Rp10759
ag2
(g6
S'\xd0\n'
p10760
tp10761
Rp10762
ag2
(g6
S'\xd1\n'
p10763
tp10764
Rp10765
ag2
(g6
S'\xd2\n'
p10766
tp10767
Rp10768
ag2
(g6
S'\xd3\n'
p10769
tp10770
Rp10771
ag2
(g6
S'\xd4\n'
p10772
tp10773
Rp10774
ag2
(g6
S'\xd5\n'
p10775
tp10776
Rp10777
ag2
(g6
S'\xd6\n'
p10778
tp10779
Rp10780
ag2
(g6
S'\xe9\n'
p10781
tp10782
Rp10783
ag2
(g6
S'\xea\n'
p10784
tp10785
Rp10786
ag2
(g6
S'\xeb\n'
p10787
tp10788
Rp10789
ag2
(g6
S'\xec\n'
p10790
tp10791
Rp10792
ag2
(g6
S'\xed\n'
p10793
tp10794
Rp10795
ag2
(g6
S'\xee\n'
p10796
tp10797
Rp10798
ag2
(g6
S'\xef\n'
p10799
tp10800
Rp10801
ag2
(g6
S'\xf0\n'
p10802
tp10803
Rp10804
ag2
(g6
S'\x02\x0b'
p10805
tp10806
Rp10807
ag2
(g6
S'\x03\x0b'
p10808
tp10809
Rp10810
ag2
(g6
S'\x04\x0b'
p10811
tp10812
Rp10813
ag2
(g6
S'\x05\x0b'
p10814
tp10815
Rp10816
ag2
(g6
S'\x06\x0b'
p10817
tp10818
Rp10819
ag2
(g6
S'\x07\x0b'
p10820
tp10821
Rp10822
ag2
(g6
S'\x08\x0b'
p10823
tp10824
Rp10825
ag2
(g6
S'\t\x0b'
p10826
tp10827
Rp10828
ag2
(g6
S'\x17\x0b'
p10829
tp10830
Rp10831
ag2
(g6
S'\x18\x0b'
p10832
tp10833
Rp10834
ag2
(g6
S'\x19\x0b'
p10835
tp10836
Rp10837
ag2
(g6
S'\x1a\x0b'
p10838
tp10839
Rp10840
ag2
(g6
S'\x1b\x0b'
p10841
tp10842
Rp10843
ag2
(g6
S'\x1c\x0b'
p10844
tp10845
Rp10846
ag2
(g6
S'\x1d\x0b'
p10847
tp10848
Rp10849
ag2
(g6
S')\x0b'
p10850
tp10851
Rp10852
ag2
(g6
S'*\x0b'
p10853
tp10854
Rp10855
ag2
(g6
S'+\x0b'
p10856
tp10857
Rp10858
ag2
(g6
S',\x0b'
p10859
tp10860
Rp10861
ag2
(g6
S'-\x0b'
p10862
tp10863
Rp10864
ag2
(g6
S'.\x0b'
p10865
tp10866
Rp10867
ag2
(g6
S'\x90\x0c'
p10868
tp10869
Rp10870
ag2
(g6
S'\x91\x0c'
p10871
tp10872
Rp10873
ag2
(g6
S'\x92\x0c'
p10874
tp10875
Rp10876
ag2
(g6
S'\x93\x0c'
p10877
tp10878
Rp10879
ag2
(g6
S'\x94\x0c'
p10880
tp10881
Rp10882
ag2
(g6
S'\x95\x0c'
p10883
tp10884
Rp10885
ag2
(g6
S'\x9d\x0c'
p10886
tp10887
Rp10888
ag2
(g6
S'\x9e\x0c'
p10889
tp10890
Rp10891
ag2
(g6
S'\x9f\x0c'
p10892
tp10893
Rp10894
ag2
(g6
S'\xa0\x0c'
p10895
tp10896
Rp10897
ag2
(g6
S'\xa1\x0c'
p10898
tp10899
Rp10900
ag2
(g6
S'\xa8\x0c'
p10901
tp10902
Rp10903
ag2
(g6
S'\xa9\x0c'
p10904
tp10905
Rp10906
ag2
(g6
S'\xaa\x0c'
p10907
tp10908
Rp10909
ag2
(g6
S'\xab\x0c'
p10910
tp10911
Rp10912
ag2
(g6
S'\xb3\x0c'
p10913
tp10914
Rp10915
ag2
(g6
S'\xb4\x0c'
p10916
tp10917
Rp10918
ag2
(g6
S'\xb5\x0c'
p10919
tp10920
Rp10921
ag2
(g6
S'\xbe\x0c'
p10922
tp10923
Rp10924
ag2
(g6
S'\xbf\x0c'
p10925
tp10926
Rp10927
ag2
(g6
S'\xc0\x0c'
p10928
tp10929
Rp10930
ag2
(g6
S'\xc1\x0c'
p10931
tp10932
Rp10933
ag2
(g6
S'\xc2\x0c'
p10934
tp10935
Rp10936
ag2
(g6
S'\xcf\x0c'
p10937
tp10938
Rp10939
ag2
(g6
S'\xd0\x0c'
p10940
tp10941
Rp10942
ag2
(g6
S'\xd1\x0c'
p10943
tp10944
Rp10945
ag2
(g6
S'\xd2\x0c'
p10946
tp10947
Rp10948
ag2
(g6
S'\xd3\x0c'
p10949
tp10950
Rp10951
ag2
(g6
S'\xd4\x0c'
p10952
tp10953
Rp10954
ag2
(g6
S'\xe4\x0c'
p10955
tp10956
Rp10957
ag2
(g6
S'\xe5\x0c'
p10958
tp10959
Rp10960
ag2
(g6
S'\xe6\x0c'
p10961
tp10962
Rp10963
ag2
(g6
S'\xe7\x0c'
p10964
tp10965
Rp10966
ag2
(g6
S'\xe8\x0c'
p10967
tp10968
Rp10969
ag2
(g6
S'\xe9\x0c'
p10970
tp10971
Rp10972
ag2
(g6
S'\xfa\x0c'
p10973
tp10974
Rp10975
ag2
(g6
S'\xfb\x0c'
p10976
tp10977
Rp10978
ag2
(g6
S'\xfc\x0c'
p10979
tp10980
Rp10981
ag2
(g6
S'\xfd\x0c'
p10982
tp10983
Rp10984
ag2
(g6
S'\xfe\x0c'
p10985
tp10986
Rp10987
ag2
(g6
S'\xff\x0c'
p10988
tp10989
Rp10990
ag2
(g6
S'\x11\r'
p10991
tp10992
Rp10993
ag2
(g6
S'\x12\r'
p10994
tp10995
Rp10996
ag2
(g6
S'\x13\r'
p10997
tp10998
Rp10999
ag2
(g6
S'\x14\r'
p11000
tp11001
Rp11002
ag2
(g6
S'\x15\r'
p11003
tp11004
Rp11005
ag2
(g6
S'\x16\r'
p11006
tp11007
Rp11008
ag2
(g6
S'(\r'
p11009
tp11010
Rp11011
ag2
(g6
S')\r'
p11012
tp11013
Rp11014
ag2
(g6
S'*\r'
p11015
tp11016
Rp11017
ag2
(g6
S'+\r'
p11018
tp11019
Rp11020
ag2
(g6
S',\r'
p11021
tp11022
Rp11023
ag2
(g6
S'-\r'
p11024
tp11025
Rp11026
ag2
(g6
S'>\r'
p11027
tp11028
Rp11029
ag2
(g6
S'?\r'
p11030
tp11031
Rp11032
ag2
(g6
S'@\r'
p11033
tp11034
Rp11035
ag2
(g6
S'A\r'
p11036
tp11037
Rp11038
ag2
(g6
S'B\r'
p11039
tp11040
Rp11041
ag2
(g6
S'C\r'
p11042
tp11043
Rp11044
ag2
(g6
S'D\r'
p11045
tp11046
Rp11047
ag2
(g6
S'T\r'
p11048
tp11049
Rp11050
ag2
(g6
S'U\r'
p11051
tp11052
Rp11053
ag2
(g6
S'V\r'
p11054
tp11055
Rp11056
ag2
(g6
S'W\r'
p11057
tp11058
Rp11059
ag2
(g6
S'X\r'
p11060
tp11061
Rp11062
ag2
(g6
S'Y\r'
p11063
tp11064
Rp11065
ag2
(g6
S'\xce\x0e'
p11066
tp11067
Rp11068
ag2
(g6
S'\xcf\x0e'
p11069
tp11070
Rp11071
ag2
(g6
S'\xd0\x0e'
p11072
tp11073
Rp11074
ag2
(g6
S'\xd1\x0e'
p11075
tp11076
Rp11077
ag2
(g6
S'\xda\x0e'
p11078
tp11079
Rp11080
ag2
(g6
S'\xdb\x0e'
p11081
tp11082
Rp11083
ag2
(g6
S'\xdc\x0e'
p11084
tp11085
Rp11086
ag2
(g6
S'\xdd\x0e'
p11087
tp11088
Rp11089
ag2
(g6
S'\xde\x0e'
p11090
tp11091
Rp11092
ag2
(g6
S'\xdf\x0e'
p11093
tp11094
Rp11095
ag2
(g6
S'\xe0\x0e'
p11096
tp11097
Rp11098
ag2
(g6
S'\xe9\x0e'
p11099
tp11100
Rp11101
ag2
(g6
S'\xea\x0e'
p11102
tp11103
Rp11104
ag2
(g6
S'\xeb\x0e'
p11105
tp11106
Rp11107
ag2
(g6
S'\xec\x0e'
p11108
tp11109
Rp11110
ag2
(g6
S'\xed\x0e'
p11111
tp11112
Rp11113
ag2
(g6
S'\xee\x0e'
p11114
tp11115
Rp11116
ag2
(g6
S'\xef\x0e'
p11117
tp11118
Rp11119
ag2
(g6
S'\xf8\x0e'
p11120
tp11121
Rp11122
ag2
(g6
S'\xf9\x0e'
p11123
tp11124
Rp11125
ag2
(g6
S'\xfa\x0e'
p11126
tp11127
Rp11128
ag2
(g6
S'\xfb\x0e'
p11129
tp11130
Rp11131
ag2
(g6
S'\xfc\x0e'
p11132
tp11133
Rp11134
ag2
(g6
S'\xfd\x0e'
p11135
tp11136
Rp11137
ag2
(g6
S'\xfe\x0e'
p11138
tp11139
Rp11140
ag2
(g6
S'\xff\x0e'
p11141
tp11142
Rp11143
ag2
(g6
S'\t\x0f'
p11144
tp11145
Rp11146
ag2
(g6
S'\n\x0f'
p11147
tp11148
Rp11149
ag2
(g6
S'\x0b\x0f'
p11150
tp11151
Rp11152
ag2
(g6
S'\x0c\x0f'
p11153
tp11154
Rp11155
ag2
(g6
S'\r\x0f'
p11156
tp11157
Rp11158
ag2
(g6
S'\x0e\x0f'
p11159
tp11160
Rp11161
ag2
(g6
S'"\x0f'
p11162
tp11163
Rp11164
ag2
(g6
S'#\x0f'
p11165
tp11166
Rp11167
ag2
(g6
S'$\x0f'
p11168
tp11169
Rp11170
ag2
(g6
S'%\x0f'
p11171
tp11172
Rp11173
ag2
(g6
S'&\x0f'
p11174
tp11175
Rp11176
ag2
(g6
S"'\x0f"
p11177
tp11178
Rp11179
ag2
(g6
S'(\x0f'
p11180
tp11181
Rp11182
ag2
(g6
S';\x0f'
p11183
tp11184
Rp11185
ag2
(g6
S'<\x0f'
p11186
tp11187
Rp11188
ag2
(g6
S'=\x0f'
p11189
tp11190
Rp11191
ag2
(g6
S'>\x0f'
p11192
tp11193
Rp11194
ag2
(g6
S'?\x0f'
p11195
tp11196
Rp11197
ag2
(g6
S'@\x0f'
p11198
tp11199
Rp11200
ag2
(g6
S'S\x0f'
p11201
tp11202
Rp11203
ag2
(g6
S'T\x0f'
p11204
tp11205
Rp11206
ag2
(g6
S'U\x0f'
p11207
tp11208
Rp11209
ag2
(g6
S'V\x0f'
p11210
tp11211
Rp11212
ag2
(g6
S'W\x0f'
p11213
tp11214
Rp11215
ag2
(g6
S'X\x0f'
p11216
tp11217
Rp11218
ag2
(g6
S'i\x0f'
p11219
tp11220
Rp11221
ag2
(g6
S'j\x0f'
p11222
tp11223
Rp11224
ag2
(g6
S'k\x0f'
p11225
tp11226
Rp11227
ag2
(g6
S'l\x0f'
p11228
tp11229
Rp11230
ag2
(g6
S'm\x0f'
p11231
tp11232
Rp11233
ag2
(g6
S'n\x0f'
p11234
tp11235
Rp11236
ag2
(g6
S'\x7f\x0f'
p11237
tp11238
Rp11239
ag2
(g6
S'\x80\x0f'
p11240
tp11241
Rp11242
ag2
(g6
S'\x81\x0f'
p11243
tp11244
Rp11245
ag2
(g6
S'\x82\x0f'
p11246
tp11247
Rp11248
ag2
(g6
S'\x83\x0f'
p11249
tp11250
Rp11251
ag2
(g6
S'\x84\x0f'
p11252
tp11253
Rp11254
ag2
(g6
S'\x93\x0f'
p11255
tp11256
Rp11257
ag2
(g6
S'\x94\x0f'
p11258
tp11259
Rp11260
ag2
(g6
S'\x95\x0f'
p11261
tp11262
Rp11263
ag2
(g6
S'\x96\x0f'
p11264
tp11265
Rp11266
ag2
(g6
S'\x97\x0f'
p11267
tp11268
Rp11269
ag2
(g6
S'\xa8\x0f'
p11270
tp11271
Rp11272
ag2
(g6
S'\xa9\x0f'
p11273
tp11274
Rp11275
ag2
(g6
S'\xaa\x0f'
p11276
tp11277
Rp11278
ag2
(g6
S'\xab\x0f'
p11279
tp11280
Rp11281
ag2
(g6
S'\x95\x11'
p11282
tp11283
Rp11284
ag2
(g6
S'\x96\x11'
p11285
tp11286
Rp11287
ag2
(g6
S'\x97\x11'
p11288
tp11289
Rp11290
ag2
(g6
S'\xa1\x11'
p11291
tp11292
Rp11293
ag2
(g6
S'\xa2\x11'
p11294
tp11295
Rp11296
ag2
(g6
S'\xa3\x11'
p11297
tp11298
Rp11299
ag2
(g6
S'\xa4\x11'
p11300
tp11301
Rp11302
ag2
(g6
S'\xa5\x11'
p11303
tp11304
Rp11305
ag2
(g6
S'\xa6\x11'
p11306
tp11307
Rp11308
ag2
(g6
S'\xaf\x11'
p11309
tp11310
Rp11311
ag2
(g6
S'\xb0\x11'
p11312
tp11313
Rp11314
ag2
(g6
S'\xb1\x11'
p11315
tp11316
Rp11317
ag2
(g6
S'\xb2\x11'
p11318
tp11319
Rp11320
ag2
(g6
S'\xb3\x11'
p11321
tp11322
Rp11323
ag2
(g6
S'\xb4\x11'
p11324
tp11325
Rp11326
ag2
(g6
S'\xbc\x11'
p11327
tp11328
Rp11329
ag2
(g6
S'\xbd\x11'
p11330
tp11331
Rp11332
ag2
(g6
S'\xbe\x11'
p11333
tp11334
Rp11335
ag2
(g6
S'\xbf\x11'
p11336
tp11337
Rp11338
ag2
(g6
S'\xc0\x11'
p11339
tp11340
Rp11341
ag2
(g6
S'\xc1\x11'
p11342
tp11343
Rp11344
ag2
(g6
S'\xca\x11'
p11345
tp11346
Rp11347
ag2
(g6
S'\xcb\x11'
p11348
tp11349
Rp11350
ag2
(g6
S'\xcc\x11'
p11351
tp11352
Rp11353
ag2
(g6
S'\xcd\x11'
p11354
tp11355
Rp11356
ag2
(g6
S'\xce\x11'
p11357
tp11358
Rp11359
ag2
(g6
S'\xcf\x11'
p11360
tp11361
Rp11362
ag2
(g6
S'\xdd\x11'
p11363
tp11364
Rp11365
ag2
(g6
S'\xde\x11'
p11366
tp11367
Rp11368
ag2
(g6
S'\xdf\x11'
p11369
tp11370
Rp11371
ag2
(g6
S'\xe0\x11'
p11372
tp11373
Rp11374
ag2
(g6
S'\xe1\x11'
p11375
tp11376
Rp11377
ag2
(g6
S'\xe2\x11'
p11378
tp11379
Rp11380
ag2
(g6
S'\xe3\x11'
p11381
tp11382
Rp11383
ag2
(g6
S'\xe4\x11'
p11384
tp11385
Rp11386
ag2
(g6
S'\xf4\x11'
p11387
tp11388
Rp11389
ag2
(g6
S'\xf5\x11'
p11390
tp11391
Rp11392
ag2
(g6
S'\xf6\x11'
p11393
tp11394
Rp11395
ag2
(g6
S'\xf7\x11'
p11396
tp11397
Rp11398
ag2
(g6
S'\xf8\x11'
p11399
tp11400
Rp11401
ag2
(g6
S'\xf9\x11'
p11402
tp11403
Rp11404
ag2
(g6
S'\xfa\x11'
p11405
tp11406
Rp11407
ag2
(g6
S'\xfb\x11'
p11408
tp11409
Rp11410
ag2
(g6
S'\x0c\x12'
p11411
tp11412
Rp11413
ag2
(g6
S'\r\x12'
p11414
tp11415
Rp11416
ag2
(g6
S'\x0e\x12'
p11417
tp11418
Rp11419
ag2
(g6
S'\x0f\x12'
p11420
tp11421
Rp11422
ag2
(g6
S'\x10\x12'
p11423
tp11424
Rp11425
ag2
(g6
S'\x11\x12'
p11426
tp11427
Rp11428
ag2
(g6
S'"\x12'
p11429
tp11430
Rp11431
ag2
(g6
S'#\x12'
p11432
tp11433
Rp11434
ag2
(g6
S'$\x12'
p11435
tp11436
Rp11437
ag2
(g6
S'%\x12'
p11438
tp11439
Rp11440
ag2
(g6
S'&\x12'
p11441
tp11442
Rp11443
ag2
(g6
S"'\x12"
p11444
tp11445
Rp11446
ag2
(g6
S'7\x12'
p11447
tp11448
Rp11449
ag2
(g6
S'8\x12'
p11450
tp11451
Rp11452
ag2
(g6
S'9\x12'
p11453
tp11454
Rp11455
ag2
(g6
S':\x12'
p11456
tp11457
Rp11458
ag2
(g6
S';\x12'
p11459
tp11460
Rp11461
ag2
(g6
S'<\x12'
p11462
tp11463
Rp11464
aa(lp11465
g2
(g6
S'a\t'
p11466
tp11467
Rp11468
ag2
(g6
S'b\t'
p11469
tp11470
Rp11471
ag2
(g6
S'c\t'
p11472
tp11473
Rp11474
ag2
(g6
S'p\t'
p11475
tp11476
Rp11477
ag2
(g6
S'q\t'
p11478
tp11479
Rp11480
ag2
(g6
S'r\t'
p11481
tp11482
Rp11483
ag2
(g6
S's\t'
p11484
tp11485
Rp11486
ag2
(g6
S'|\t'
p11487
tp11488
Rp11489
ag2
(g6
S'}\t'
p11490
tp11491
Rp11492
ag2
(g6
S'~\t'
p11493
tp11494
Rp11495
ag2
(g6
S'\x7f\t'
p11496
tp11497
Rp11498
ag2
(g6
S'\x86\t'
p11499
tp11500
Rp11501
ag2
(g6
S'\x87\t'
p11502
tp11503
Rp11504
ag2
(g6
S'\x88\t'
p11505
tp11506
Rp11507
ag2
(g6
S'\x89\t'
p11508
tp11509
Rp11510
ag2
(g6
S'\x8a\t'
p11511
tp11512
Rp11513
ag2
(g6
S'\x92\t'
p11514
tp11515
Rp11516
ag2
(g6
S'\x93\t'
p11517
tp11518
Rp11519
ag2
(g6
S'\x94\t'
p11520
tp11521
Rp11522
ag2
(g6
S'\x95\t'
p11523
tp11524
Rp11525
ag2
(g6
S'\x96\t'
p11526
tp11527
Rp11528
ag2
(g6
S'\x9e\t'
p11529
tp11530
Rp11531
ag2
(g6
S'\x9f\t'
p11532
tp11533
Rp11534
ag2
(g6
S'\xa0\t'
p11535
tp11536
Rp11537
ag2
(g6
S'\xa1\t'
p11538
tp11539
Rp11540
ag2
(g6
S'\xa2\t'
p11541
tp11542
Rp11543
ag2
(g6
S'\xaa\t'
p11544
tp11545
Rp11546
ag2
(g6
S'\xab\t'
p11547
tp11548
Rp11549
ag2
(g6
S'\xac\t'
p11550
tp11551
Rp11552
ag2
(g6
S'\xad\t'
p11553
tp11554
Rp11555
ag2
(g6
S'\xae\t'
p11556
tp11557
Rp11558
ag2
(g6
S'\xaf\t'
p11559
tp11560
Rp11561
ag2
(g6
S'\xb7\t'
p11562
tp11563
Rp11564
ag2
(g6
S'\xb8\t'
p11565
tp11566
Rp11567
ag2
(g6
S'\xb9\t'
p11568
tp11569
Rp11570
ag2
(g6
S'\xba\t'
p11571
tp11572
Rp11573
ag2
(g6
S'\xbb\t'
p11574
tp11575
Rp11576
ag2
(g6
S'\xbc\t'
p11577
tp11578
Rp11579
ag2
(g6
S'\xc4\t'
p11580
tp11581
Rp11582
ag2
(g6
S'\xc5\t'
p11583
tp11584
Rp11585
ag2
(g6
S'\xc6\t'
p11586
tp11587
Rp11588
ag2
(g6
S'\xcd\t'
p11589
tp11590
Rp11591
ag2
(g6
S'\xce\t'
p11592
tp11593
Rp11594
ag2
(g6
S'\xcf\t'
p11595
tp11596
Rp11597
ag2
(g6
S'\xd0\t'
p11598
tp11599
Rp11600
ag2
(g6
S'\xaa\x0b'
p11601
tp11602
Rp11603
ag2
(g6
S'\xab\x0b'
p11604
tp11605
Rp11606
ag2
(g6
S'\xac\x0b'
p11607
tp11608
Rp11609
ag2
(g6
S'\xad\x0b'
p11610
tp11611
Rp11612
ag2
(g6
S'\xae\x0b'
p11613
tp11614
Rp11615
ag2
(g6
S'\xaf\x0b'
p11616
tp11617
Rp11618
ag2
(g6
S'\xb0\x0b'
p11619
tp11620
Rp11621
ag2
(g6
S'\xba\x0b'
p11622
tp11623
Rp11624
ag2
(g6
S'\xbb\x0b'
p11625
tp11626
Rp11627
ag2
(g6
S'\xbc\x0b'
p11628
tp11629
Rp11630
ag2
(g6
S'\xbd\x0b'
p11631
tp11632
Rp11633
ag2
(g6
S'\xbe\x0b'
p11634
tp11635
Rp11636
ag2
(g6
S'\xbf\x0b'
p11637
tp11638
Rp11639
ag2
(g6
S'\xc0\x0b'
p11640
tp11641
Rp11642
ag2
(g6
S'\xc4\x0b'
p11643
tp11644
Rp11645
ag2
(g6
S'\xc5\x0b'
p11646
tp11647
Rp11648
ag2
(g6
S'\xc6\x0b'
p11649
tp11650
Rp11651
ag2
(g6
S'\xc7\x0b'
p11652
tp11653
Rp11654
ag2
(g6
S'\xc8\x0b'
p11655
tp11656
Rp11657
ag2
(g6
S'\xc9\x0b'
p11658
tp11659
Rp11660
ag2
(g6
S'\xca\x0b'
p11661
tp11662
Rp11663
ag2
(g6
S'\xd0\x0b'
p11664
tp11665
Rp11666
ag2
(g6
S'\xd1\x0b'
p11667
tp11668
Rp11669
ag2
(g6
S'\xd2\x0b'
p11670
tp11671
Rp11672
ag2
(g6
S'\xd3\x0b'
p11673
tp11674
Rp11675
ag2
(g6
S'\xd4\x0b'
p11676
tp11677
Rp11678
ag2
(g6
S'\xd5\x0b'
p11679
tp11680
Rp11681
ag2
(g6
S'\xdc\x0b'
p11682
tp11683
Rp11684
ag2
(g6
S'\xdd\x0b'
p11685
tp11686
Rp11687
ag2
(g6
S'\xde\x0b'
p11688
tp11689
Rp11690
ag2
(g6
S'\xdf\x0b'
p11691
tp11692
Rp11693
ag2
(g6
S'\xe0\x0b'
p11694
tp11695
Rp11696
ag2
(g6
S'\xe8\x0b'
p11697
tp11698
Rp11699
ag2
(g6
S'\xe9\x0b'
p11700
tp11701
Rp11702
ag2
(g6
S'\xea\x0b'
p11703
tp11704
Rp11705
ag2
(g6
S'\xeb\x0b'
p11706
tp11707
Rp11708
ag2
(g6
S'\xec\x0b'
p11709
tp11710
Rp11711
ag2
(g6
S'\xf5\x0b'
p11712
tp11713
Rp11714
ag2
(g6
S'\xf6\x0b'
p11715
tp11716
Rp11717
ag2
(g6
S'\xf7\x0b'
p11718
tp11719
Rp11720
ag2
(g6
S'\xf8\x0b'
p11721
tp11722
Rp11723
ag2
(g6
S'\xf9\x0b'
p11724
tp11725
Rp11726
ag2
(g6
S'\xfa\x0b'
p11727
tp11728
Rp11729
ag2
(g6
S'\x03\x0c'
p11730
tp11731
Rp11732
ag2
(g6
S'\x04\x0c'
p11733
tp11734
Rp11735
ag2
(g6
S'\x05\x0c'
p11736
tp11737
Rp11738
ag2
(g6
S'\x06\x0c'
p11739
tp11740
Rp11741
ag2
(g6
S'\x07\x0c'
p11742
tp11743
Rp11744
ag2
(g6
S'\x0f\x0c'
p11745
tp11746
Rp11747
ag2
(g6
S'\x10\x0c'
p11748
tp11749
Rp11750
ag2
(g6
S'\x11\x0c'
p11751
tp11752
Rp11753
ag2
(g6
S'\x12\x0c'
p11754
tp11755
Rp11756
ag2
(g6
S'\x13\x0c'
p11757
tp11758
Rp11759
ag2
(g6
S'\x1b\x0c'
p11760
tp11761
Rp11762
ag2
(g6
S'\x1c\x0c'
p11763
tp11764
Rp11765
ag2
(g6
S'\x1d\x0c'
p11766
tp11767
Rp11768
ag2
(g6
S'\x1e\x0c'
p11769
tp11770
Rp11771
ag2
(g6
S' \x0c'
p11772
tp11773
Rp11774
ag2
(g6
S'!\x0c'
p11775
tp11776
Rp11777
ag2
(g6
S'\xda\r'
p11778
tp11779
Rp11780
ag2
(g6
S'\xea\r'
p11781
tp11782
Rp11783
ag2
(g6
S'\xf9\r'
p11784
tp11785
Rp11786
ag2
(g6
S'\xfb\r'
p11787
tp11788
Rp11789
ag2
(g6
S'\xfc\r'
p11790
tp11791
Rp11792
ag2
(g6
S'\xfd\r'
p11793
tp11794
Rp11795
ag2
(g6
S'\xfe\r'
p11796
tp11797
Rp11798
ag2
(g6
S'\x07\x0e'
p11799
tp11800
Rp11801
ag2
(g6
S'\x08\x0e'
p11802
tp11803
Rp11804
ag2
(g6
S'\t\x0e'
p11805
tp11806
Rp11807
ag2
(g6
S'\n\x0e'
p11808
tp11809
Rp11810
ag2
(g6
S'\x0b\x0e'
p11811
tp11812
Rp11813
ag2
(g6
S'\x14\x0e'
p11814
tp11815
Rp11816
ag2
(g6
S'\x15\x0e'
p11817
tp11818
Rp11819
ag2
(g6
S'\x16\x0e'
p11820
tp11821
Rp11822
ag2
(g6
S'\x17\x0e'
p11823
tp11824
Rp11825
ag2
(g6
S'!\x0e'
p11826
tp11827
Rp11828
ag2
(g6
S'"\x0e'
p11829
tp11830
Rp11831
ag2
(g6
S'#\x0e'
p11832
tp11833
Rp11834
ag2
(g6
S'$\x0e'
p11835
tp11836
Rp11837
ag2
(g6
S'.\x0e'
p11838
tp11839
Rp11840
ag2
(g6
S'/\x0e'
p11841
tp11842
Rp11843
ag2
(g6
S'0\x0e'
p11844
tp11845
Rp11846
ag2
(g6
S'1\x0e'
p11847
tp11848
Rp11849
ag2
(g6
S'9\x0e'
p11850
tp11851
Rp11852
ag2
(g6
S':\x0e'
p11853
tp11854
Rp11855
ag2
(g6
S';\x0e'
p11856
tp11857
Rp11858
ag2
(g6
S'<\x0e'
p11859
tp11860
Rp11861
ag2
(g6
S'D\x0e'
p11862
tp11863
Rp11864
ag2
(g6
S'E\x0e'
p11865
tp11866
Rp11867
ag2
(g6
S'F\x0e'
p11868
tp11869
Rp11870
ag2
(g6
S'G\x0e'
p11871
tp11872
Rp11873
ag2
(g6
S'O\x0e'
p11874
tp11875
Rp11876
ag2
(g6
S'P\x0e'
p11877
tp11878
Rp11879
ag2
(g6
S'Q\x0e'
p11880
tp11881
Rp11882
ag2
(g6
S'R\x0e'
p11883
tp11884
Rp11885
ag2
(g6
S'B\x10'
p11886
tp11887
Rp11888
ag2
(g6
S'K\x10'
p11889
tp11890
Rp11891
ag2
(g6
S'O\x10'
p11892
tp11893
Rp11894
ag2
(g6
S'P\x10'
p11895
tp11896
Rp11897
ag2
(g6
S'Q\x10'
p11898
tp11899
Rp11900
ag2
(g6
S'Y\x10'
p11901
tp11902
Rp11903
ag2
(g6
S'Z\x10'
p11904
tp11905
Rp11906
ag2
(g6
S'[\x10'
p11907
tp11908
Rp11909
ag2
(g6
S'\\\x10'
p11910
tp11911
Rp11912
ag2
(g6
S']\x10'
p11913
tp11914
Rp11915
ag2
(g6
S'^\x10'
p11916
tp11917
Rp11918
ag2
(g6
S'_\x10'
p11919
tp11920
Rp11921
ag2
(g6
S'g\x10'
p11922
tp11923
Rp11924
ag2
(g6
S'h\x10'
p11925
tp11926
Rp11927
ag2
(g6
S'i\x10'
p11928
tp11929
Rp11930
ag2
(g6
S'j\x10'
p11931
tp11932
Rp11933
ag2
(g6
S'k\x10'
p11934
tp11935
Rp11936
ag2
(g6
S's\x10'
p11937
tp11938
Rp11939
ag2
(g6
S't\x10'
p11940
tp11941
Rp11942
ag2
(g6
S'u\x10'
p11943
tp11944
Rp11945
ag2
(g6
S'v\x10'
p11946
tp11947
Rp11948
ag2
(g6
S'\x80\x10'
p11949
tp11950
Rp11951
ag2
(g6
S'\x81\x10'
p11952
tp11953
Rp11954
ag2
(g6
S'\x82\x10'
p11955
tp11956
Rp11957
ag2
(g6
S'\x83\x10'
p11958
tp11959
Rp11960
ag2
(g6
S'\x84\x10'
p11961
tp11962
Rp11963
ag2
(g6
S'\x8e\x10'
p11964
tp11965
Rp11966
ag2
(g6
S'\x8f\x10'
p11967
tp11968
Rp11969
ag2
(g6
S'\x90\x10'
p11970
tp11971
Rp11972
ag2
(g6
S'\x91\x10'
p11973
tp11974
Rp11975
ag2
(g6
S'\x92\x10'
p11976
tp11977
Rp11978
ag2
(g6
S'\x93\x10'
p11979
tp11980
Rp11981
ag2
(g6
S'\x9d\x10'
p11982
tp11983
Rp11984
ag2
(g6
S'\x9e\x10'
p11985
tp11986
Rp11987
ag2
(g6
S'\x9f\x10'
p11988
tp11989
Rp11990
ag2
(g6
S'\xa0\x10'
p11991
tp11992
Rp11993
ag2
(g6
S'\xa1\x10'
p11994
tp11995
Rp11996
ag2
(g6
S'\xaa\x10'
p11997
tp11998
Rp11999
ag2
(g6
S'\xab\x10'
p12000
tp12001
Rp12002
ag2
(g6
S'\xac\x10'
p12003
tp12004
Rp12005
ag2
(g6
S'\xb3\x10'
p12006
tp12007
Rp12008
aa(lp12009
g2
(g6
S'F\x00'
p12010
tp12011
Rp12012
ag2
(g6
S'G\x00'
p12013
tp12014
Rp12015
ag2
(g6
S'[\x00'
p12016
tp12017
Rp12018
ag2
(g6
S'\\\x00'
p12019
tp12020
Rp12021
ag2
(g6
S']\x00'
p12022
tp12023
Rp12024
ag2
(g6
S'n\x00'
p12025
tp12026
Rp12027
ag2
(g6
S'q\x00'
p12028
tp12029
Rp12030
ag2
(g6
S'r\x00'
p12031
tp12032
Rp12033
ag2
(g6
S's\x00'
p12034
tp12035
Rp12036
ag2
(g6
S't\x00'
p12037
tp12038
Rp12039
ag2
(g6
S'\x84\x00'
p12040
tp12041
Rp12042
ag2
(g6
S'\x85\x00'
p12043
tp12044
Rp12045
ag2
(g6
S'\x86\x00'
p12046
tp12047
Rp12048
ag2
(g6
S'\x87\x00'
p12049
tp12050
Rp12051
ag2
(g6
S'\x88\x00'
p12052
tp12053
Rp12054
ag2
(g6
S'\x89\x00'
p12055
tp12056
Rp12057
ag2
(g6
S'\x8a\x00'
p12058
tp12059
Rp12060
ag2
(g6
S'\x9b\x00'
p12061
tp12062
Rp12063
ag2
(g6
S'\x9c\x00'
p12064
tp12065
Rp12066
ag2
(g6
S'\x9d\x00'
p12067
tp12068
Rp12069
ag2
(g6
S'\x9e\x00'
p12070
tp12071
Rp12072
ag2
(g6
S'\x9f\x00'
p12073
tp12074
Rp12075
ag2
(g6
S'\xa0\x00'
p12076
tp12077
Rp12078
ag2
(g6
S'\xb2\x00'
p12079
tp12080
Rp12081
ag2
(g6
S'\xb3\x00'
p12082
tp12083
Rp12084
ag2
(g6
S'\xb4\x00'
p12085
tp12086
Rp12087
ag2
(g6
S'\xb5\x00'
p12088
tp12089
Rp12090
ag2
(g6
S'\xb6\x00'
p12091
tp12092
Rp12093
ag2
(g6
S'\xb7\x00'
p12094
tp12095
Rp12096
ag2
(g6
S'\xc9\x00'
p12097
tp12098
Rp12099
ag2
(g6
S'\xca\x00'
p12100
tp12101
Rp12102
ag2
(g6
S'\xcb\x00'
p12103
tp12104
Rp12105
ag2
(g6
S'\xcc\x00'
p12106
tp12107
Rp12108
ag2
(g6
S'\xcd\x00'
p12109
tp12110
Rp12111
ag2
(g6
S'\xde\x00'
p12112
tp12113
Rp12114
ag2
(g6
S'\xdf\x00'
p12115
tp12116
Rp12117
ag2
(g6
S'\xe0\x00'
p12118
tp12119
Rp12120
ag2
(g6
S'\xe1\x00'
p12121
tp12122
Rp12123
ag2
(g6
S'M\x02'
p12124
tp12125
Rp12126
ag2
(g6
S'a\x02'
p12127
tp12128
Rp12129
ag2
(g6
S'b\x02'
p12130
tp12131
Rp12132
ag2
(g6
S'f\x02'
p12133
tp12134
Rp12135
ag2
(g6
S'g\x02'
p12136
tp12137
Rp12138
ag2
(g6
S'h\x02'
p12139
tp12140
Rp12141
ag2
(g6
S'{\x02'
p12142
tp12143
Rp12144
ag2
(g6
S'|\x02'
p12145
tp12146
Rp12147
ag2
(g6
S'}\x02'
p12148
tp12149
Rp12150
ag2
(g6
S'~\x02'
p12151
tp12152
Rp12153
ag2
(g6
S'\x7f\x02'
p12154
tp12155
Rp12156
ag2
(g6
S'\x80\x02'
p12157
tp12158
Rp12159
ag2
(g6
S'\x81\x02'
p12160
tp12161
Rp12162
ag2
(g6
S'\x95\x02'
p12163
tp12164
Rp12165
ag2
(g6
S'\x96\x02'
p12166
tp12167
Rp12168
ag2
(g6
S'\x97\x02'
p12169
tp12170
Rp12171
ag2
(g6
S'\x98\x02'
p12172
tp12173
Rp12174
ag2
(g6
S'\x99\x02'
p12175
tp12176
Rp12177
ag2
(g6
S'\x9a\x02'
p12178
tp12179
Rp12180
ag2
(g6
S'\x9b\x02'
p12181
tp12182
Rp12183
ag2
(g6
S'\xae\x02'
p12184
tp12185
Rp12186
ag2
(g6
S'\xaf\x02'
p12187
tp12188
Rp12189
ag2
(g6
S'\xb0\x02'
p12190
tp12191
Rp12192
ag2
(g6
S'\xb1\x02'
p12193
tp12194
Rp12195
ag2
(g6
S'\xb2\x02'
p12196
tp12197
Rp12198
ag2
(g6
S'\xb3\x02'
p12199
tp12200
Rp12201
ag2
(g6
S'\xc5\x02'
p12202
tp12203
Rp12204
ag2
(g6
S'\xc6\x02'
p12205
tp12206
Rp12207
ag2
(g6
S'\xc7\x02'
p12208
tp12209
Rp12210
ag2
(g6
S'\xc8\x02'
p12211
tp12212
Rp12213
ag2
(g6
S'\xd7\x02'
p12214
tp12215
Rp12216
ag2
(g6
S'\xd8\x02'
p12217
tp12218
Rp12219
ag2
(g6
S'\x97\x04'
p12220
tp12221
Rp12222
ag2
(g6
S'\x98\x04'
p12223
tp12224
Rp12225
ag2
(g6
S'\xb4\x04'
p12226
tp12227
Rp12228
ag2
(g6
S'\xb5\x04'
p12229
tp12230
Rp12231
ag2
(g6
S'\xb6\x04'
p12232
tp12233
Rp12234
ag2
(g6
S'\xb7\x04'
p12235
tp12236
Rp12237
ag2
(g6
S'\xb8\x04'
p12238
tp12239
Rp12240
ag2
(g6
S'\xb9\x04'
p12241
tp12242
Rp12243
ag2
(g6
S'\xba\x04'
p12244
tp12245
Rp12246
ag2
(g6
S'\xbb\x04'
p12247
tp12248
Rp12249
ag2
(g6
S'\xbc\x04'
p12250
tp12251
Rp12252
ag2
(g6
S'\xd0\x04'
p12253
tp12254
Rp12255
ag2
(g6
S'\xd1\x04'
p12256
tp12257
Rp12258
ag2
(g6
S'\xd2\x04'
p12259
tp12260
Rp12261
ag2
(g6
S'\xd3\x04'
p12262
tp12263
Rp12264
ag2
(g6
S'\xd4\x04'
p12265
tp12266
Rp12267
ag2
(g6
S'\xd5\x04'
p12268
tp12269
Rp12270
ag2
(g6
S'\xd6\x04'
p12271
tp12272
Rp12273
ag2
(g6
S'\xd7\x04'
p12274
tp12275
Rp12276
ag2
(g6
S'\xd8\x04'
p12277
tp12278
Rp12279
ag2
(g6
S'\xea\x04'
p12280
tp12281
Rp12282
ag2
(g6
S'\xeb\x04'
p12283
tp12284
Rp12285
ag2
(g6
S'\xec\x04'
p12286
tp12287
Rp12288
ag2
(g6
S'\xed\x04'
p12289
tp12290
Rp12291
ag2
(g6
S'\xee\x04'
p12292
tp12293
Rp12294
ag2
(g6
S'\xef\x04'
p12295
tp12296
Rp12297
ag2
(g6
S'\xf0\x04'
p12298
tp12299
Rp12300
ag2
(g6
S'\xf1\x04'
p12301
tp12302
Rp12303
ag2
(g6
S'\x04\x05'
p12304
tp12305
Rp12306
ag2
(g6
S'\x05\x05'
p12307
tp12308
Rp12309
ag2
(g6
S'\x06\x05'
p12310
tp12311
Rp12312
ag2
(g6
S'\x07\x05'
p12313
tp12314
Rp12315
ag2
(g6
S'\x08\x05'
p12316
tp12317
Rp12318
ag2
(g6
S'\t\x05'
p12319
tp12320
Rp12321
ag2
(g6
S'\x17\x05'
p12322
tp12323
Rp12324
ag2
(g6
S'\x18\x05'
p12325
tp12326
Rp12327
ag2
(g6
S'\x19\x05'
p12328
tp12329
Rp12330
ag2
(g6
S'5\x07'
p12331
tp12332
Rp12333
ag2
(g6
S'6\x07'
p12334
tp12335
Rp12336
ag2
(g6
S'D\x07'
p12337
tp12338
Rp12339
ag2
(g6
S'E\x07'
p12340
tp12341
Rp12342
ag2
(g6
S'F\x07'
p12343
tp12344
Rp12345
ag2
(g6
S'G\x07'
p12346
tp12347
Rp12348
ag2
(g6
S'H\x07'
p12349
tp12350
Rp12351
ag2
(g6
S'I\x07'
p12352
tp12353
Rp12354
ag2
(g6
S'J\x07'
p12355
tp12356
Rp12357
ag2
(g6
S'K\x07'
p12358
tp12359
Rp12360
ag2
(g6
S'T\x07'
p12361
tp12362
Rp12363
ag2
(g6
S'U\x07'
p12364
tp12365
Rp12366
ag2
(g6
S'V\x07'
p12367
tp12368
Rp12369
ag2
(g6
S'W\x07'
p12370
tp12371
Rp12372
ag2
(g6
S'X\x07'
p12373
tp12374
Rp12375
ag2
(g6
S'Y\x07'
p12376
tp12377
Rp12378
ag2
(g6
S'Z\x07'
p12379
tp12380
Rp12381
ag2
(g6
S'[\x07'
p12382
tp12383
Rp12384
ag2
(g6
S'\\\x07'
p12385
tp12386
Rp12387
ag2
(g6
S']\x07'
p12388
tp12389
Rp12390
ag2
(g6
S'f\x07'
p12391
tp12392
Rp12393
ag2
(g6
S'g\x07'
p12394
tp12395
Rp12396
ag2
(g6
S'h\x07'
p12397
tp12398
Rp12399
ag2
(g6
S'i\x07'
p12400
tp12401
Rp12402
ag2
(g6
S'j\x07'
p12403
tp12404
Rp12405
ag2
(g6
S'k\x07'
p12406
tp12407
Rp12408
ag2
(g6
S'l\x07'
p12409
tp12410
Rp12411
ag2
(g6
S'm\x07'
p12412
tp12413
Rp12414
ag2
(g6
S'n\x07'
p12415
tp12416
Rp12417
ag2
(g6
S'v\x07'
p12418
tp12419
Rp12420
ag2
(g6
S'w\x07'
p12421
tp12422
Rp12423
ag2
(g6
S'x\x07'
p12424
tp12425
Rp12426
ag2
(g6
S'y\x07'
p12427
tp12428
Rp12429
ag2
(g6
S'z\x07'
p12430
tp12431
Rp12432
ag2
(g6
S'\x80\x07'
p12433
tp12434
Rp12435
ag2
(g6
S'\x81\x07'
p12436
tp12437
Rp12438
ag2
(g6
S'\x82\x07'
p12439
tp12440
Rp12441
aa(lp12442
g2
(g6
S'0\x05'
p12443
tp12444
Rp12445
ag2
(g6
S':\x05'
p12446
tp12447
Rp12448
ag2
(g6
S';\x05'
p12449
tp12450
Rp12451
ag2
(g6
S'<\x05'
p12452
tp12453
Rp12454
ag2
(g6
S'=\x05'
p12455
tp12456
Rp12457
ag2
(g6
S'>\x05'
p12458
tp12459
Rp12460
ag2
(g6
S'?\x05'
p12461
tp12462
Rp12463
ag2
(g6
S'@\x05'
p12464
tp12465
Rp12466
ag2
(g6
S'A\x05'
p12467
tp12468
Rp12469
ag2
(g6
S'\x83\x07'
p12470
tp12471
Rp12472
ag2
(g6
S'\x84\x07'
p12473
tp12474
Rp12475
ag2
(g6
S'\x85\x07'
p12476
tp12477
Rp12478
ag2
(g6
S'\x86\x07'
p12479
tp12480
Rp12481
ag2
(g6
S'\x87\x07'
p12482
tp12483
Rp12484
ag2
(g6
S'\x88\x07'
p12485
tp12486
Rp12487
ag2
(g6
S'\x89\x07'
p12488
tp12489
Rp12490
ag2
(g6
S'\x8a\x07'
p12491
tp12492
Rp12493
ag2
(g6
S'\x8b\x07'
p12494
tp12495
Rp12496
ag2
(g6
S'\x8c\x07'
p12497
tp12498
Rp12499
ag2
(g6
S'\x8d\x07'
p12500
tp12501
Rp12502
ag2
(g6
S'\x8e\x07'
p12503
tp12504
Rp12505
ag2
(g6
S'\x8f\x07'
p12506
tp12507
Rp12508
ag2
(g6
S'\x90\x07'
p12509
tp12510
Rp12511
ag2
(g6
S'\x91\x07'
p12512
tp12513
Rp12514
ag2
(g6
S'\x92\x07'
p12515
tp12516
Rp12517
ag2
(g6
S'\x93\x07'
p12518
tp12519
Rp12520
ag2
(g6
S'\x94\x07'
p12521
tp12522
Rp12523
ag2
(g6
S'\x95\x07'
p12524
tp12525
Rp12526
ag2
(g6
S'\x96\x07'
p12527
tp12528
Rp12529
ag2
(g6
S'\x97\x07'
p12530
tp12531
Rp12532
ag2
(g6
S'\x98\x07'
p12533
tp12534
Rp12535
ag2
(g6
S'\x99\x07'
p12536
tp12537
Rp12538
ag2
(g6
S'\xa0\x07'
p12539
tp12540
Rp12541
ag2
(g6
S'\xa2\x07'
p12542
tp12543
Rp12544
aa(lp12545
g2
(g6
S'\x00\x01'
p12546
tp12547
Rp12548
ag2
(g6
S'\x01\x01'
p12549
tp12550
Rp12551
ag2
(g6
S'\x02\x01'
p12552
tp12553
Rp12554
ag2
(g6
S'\x03\x01'
p12555
tp12556
Rp12557
ag2
(g6
S'\x10\x01'
p12558
tp12559
Rp12560
ag2
(g6
S'\x11\x01'
p12561
tp12562
Rp12563
ag2
(g6
S'\x12\x01'
p12564
tp12565
Rp12566
ag2
(g6
S'\x13\x01'
p12567
tp12568
Rp12569
ag2
(g6
S'\x14\x01'
p12570
tp12571
Rp12572
ag2
(g6
S'\x15\x01'
p12573
tp12574
Rp12575
ag2
(g6
S'\x16\x01'
p12576
tp12577
Rp12578
ag2
(g6
S'"\x01'
p12579
tp12580
Rp12581
ag2
(g6
S'#\x01'
p12582
tp12583
Rp12584
ag2
(g6
S'$\x01'
p12585
tp12586
Rp12587
ag2
(g6
S'%\x01'
p12588
tp12589
Rp12590
ag2
(g6
S'&\x01'
p12591
tp12592
Rp12593
ag2
(g6
S"'\x01"
p12594
tp12595
Rp12596
ag2
(g6
S'(\x01'
p12597
tp12598
Rp12599
ag2
(g6
S')\x01'
p12600
tp12601
Rp12602
ag2
(g6
S'5\x01'
p12603
tp12604
Rp12605
ag2
(g6
S'6\x01'
p12606
tp12607
Rp12608
ag2
(g6
S'7\x01'
p12609
tp12610
Rp12611
ag2
(g6
S'8\x01'
p12612
tp12613
Rp12614
ag2
(g6
S'9\x01'
p12615
tp12616
Rp12617
ag2
(g6
S':\x01'
p12618
tp12619
Rp12620
ag2
(g6
S';\x01'
p12621
tp12622
Rp12623
ag2
(g6
S'<\x01'
p12624
tp12625
Rp12626
ag2
(g6
S'=\x01'
p12627
tp12628
Rp12629
ag2
(g6
S'J\x01'
p12630
tp12631
Rp12632
ag2
(g6
S'K\x01'
p12633
tp12634
Rp12635
ag2
(g6
S'N\x01'
p12636
tp12637
Rp12638
ag2
(g6
S'O\x01'
p12639
tp12640
Rp12641
ag2
(g6
S'P\x01'
p12642
tp12643
Rp12644
ag2
(g6
S'Q\x01'
p12645
tp12646
Rp12647
ag2
(g6
S'R\x01'
p12648
tp12649
Rp12650
ag2
(g6
S'S\x01'
p12651
tp12652
Rp12653
ag2
(g6
S'd\x01'
p12654
tp12655
Rp12656
ag2
(g6
S'j\x01'
p12657
tp12658
Rp12659
ag2
(g6
S'k\x01'
p12660
tp12661
Rp12662
ag2
(g6
S'l\x01'
p12663
tp12664
Rp12665
ag2
(g6
S'm\x01'
p12666
tp12667
Rp12668
ag2
(g6
S'\x82\x01'
p12669
tp12670
Rp12671
ag2
(g6
S'\x83\x01'
p12672
tp12673
Rp12674
ag2
(g6
S'\x84\x01'
p12675
tp12676
Rp12677
ag2
(g6
S'\x85\x01'
p12678
tp12679
Rp12680
ag2
(g6
S'\x96\x01'
p12681
tp12682
Rp12683
ag2
(g6
S'\x97\x01'
p12684
tp12685
Rp12686
ag2
(g6
S'\x98\x01'
p12687
tp12688
Rp12689
ag2
(g6
S'\x99\x01'
p12690
tp12691
Rp12692
ag2
(g6
S'\xa8\x01'
p12693
tp12694
Rp12695
ag2
(g6
S'\xa9\x01'
p12696
tp12697
Rp12698
ag2
(g6
S'\xaa\x01'
p12699
tp12700
Rp12701
ag2
(g6
S'\xab\x01'
p12702
tp12703
Rp12704
ag2
(g6
S'\xb7\x01'
p12705
tp12706
Rp12707
ag2
(g6
S'\xb8\x01'
p12708
tp12709
Rp12710
ag2
(g6
S'\xb9\x01'
p12711
tp12712
Rp12713
ag2
(g6
S'\xba\x01'
p12714
tp12715
Rp12716
ag2
(g6
S'\xed\x02'
p12717
tp12718
Rp12719
ag2
(g6
S'\xee\x02'
p12720
tp12721
Rp12722
ag2
(g6
S'\xef\x02'
p12723
tp12724
Rp12725
ag2
(g6
S'\xf0\x02'
p12726
tp12727
Rp12728
ag2
(g6
S'\xfc\x02'
p12729
tp12730
Rp12731
ag2
(g6
S'\xfd\x02'
p12732
tp12733
Rp12734
ag2
(g6
S'\xfe\x02'
p12735
tp12736
Rp12737
ag2
(g6
S'\x0e\x03'
p12738
tp12739
Rp12740
ag2
(g6
S'\x0f\x03'
p12741
tp12742
Rp12743
ag2
(g6
S'\x10\x03'
p12744
tp12745
Rp12746
ag2
(g6
S'\x11\x03'
p12747
tp12748
Rp12749
ag2
(g6
S'\x12\x03'
p12750
tp12751
Rp12752
ag2
(g6
S'$\x03'
p12753
tp12754
Rp12755
ag2
(g6
S'%\x03'
p12756
tp12757
Rp12758
ag2
(g6
S'&\x03'
p12759
tp12760
Rp12761
ag2
(g6
S"'\x03"
p12762
tp12763
Rp12764
ag2
(g6
S'(\x03'
p12765
tp12766
Rp12767
ag2
(g6
S':\x03'
p12768
tp12769
Rp12770
ag2
(g6
S';\x03'
p12771
tp12772
Rp12773
ag2
(g6
S'<\x03'
p12774
tp12775
Rp12776
ag2
(g6
S'=\x03'
p12777
tp12778
Rp12779
ag2
(g6
S'>\x03'
p12780
tp12781
Rp12782
ag2
(g6
S'T\x03'
p12783
tp12784
Rp12785
ag2
(g6
S'U\x03'
p12786
tp12787
Rp12788
ag2
(g6
S'V\x03'
p12789
tp12790
Rp12791
ag2
(g6
S'i\x03'
p12792
tp12793
Rp12794
ag2
(g6
S'j\x03'
p12795
tp12796
Rp12797
ag2
(g6
S'k\x03'
p12798
tp12799
Rp12800
ag2
(g6
S'\x82\x03'
p12801
tp12802
Rp12803
ag2
(g6
S'\x83\x03'
p12804
tp12805
Rp12806
ag2
(g6
S'\x84\x03'
p12807
tp12808
Rp12809
ag2
(g6
S'\x95\x03'
p12810
tp12811
Rp12812
ag2
(g6
S'\x96\x03'
p12813
tp12814
Rp12815
ag2
(g6
S'\x97\x03'
p12816
tp12817
Rp12818
ag2
(g6
S'\x9a\x03'
p12819
tp12820
Rp12821
ag2
(g6
S'\x9b\x03'
p12822
tp12823
Rp12824
ag2
(g6
S'\x9c\x03'
p12825
tp12826
Rp12827
ag2
(g6
S'\xac\x03'
p12828
tp12829
Rp12830
ag2
(g6
S'\xad\x03'
p12831
tp12832
Rp12833
ag2
(g6
S'\xae\x03'
p12834
tp12835
Rp12836
ag2
(g6
S'\xaf\x03'
p12837
tp12838
Rp12839
ag2
(g6
S'\xb0\x03'
p12840
tp12841
Rp12842
ag2
(g6
S'\xb1\x03'
p12843
tp12844
Rp12845
ag2
(g6
S'\xb2\x03'
p12846
tp12847
Rp12848
ag2
(g6
S'\xb3\x03'
p12849
tp12850
Rp12851
ag2
(g6
S'\xc2\x03'
p12852
tp12853
Rp12854
ag2
(g6
S'\xc3\x03'
p12855
tp12856
Rp12857
ag2
(g6
S'\xc4\x03'
p12858
tp12859
Rp12860
ag2
(g6
S'\xc5\x03'
p12861
tp12862
Rp12863
ag2
(g6
S'\xc6\x03'
p12864
tp12865
Rp12866
ag2
(g6
S'\xc7\x03'
p12867
tp12868
Rp12869
ag2
(g6
S'\xc8\x03'
p12870
tp12871
Rp12872
ag2
(g6
S'\xd6\x03'
p12873
tp12874
Rp12875
ag2
(g6
S'\xd7\x03'
p12876
tp12877
Rp12878
ag2
(g6
S'\xd8\x03'
p12879
tp12880
Rp12881
ag2
(g6
S'\xd9\x03'
p12882
tp12883
Rp12884
ag2
(g6
S'\xda\x03'
p12885
tp12886
Rp12887
ag2
(g6
S'\xdb\x03'
p12888
tp12889
Rp12890
ag2
(g6
S'\xe7\x03'
p12891
tp12892
Rp12893
ag2
(g6
S'\xe8\x03'
p12894
tp12895
Rp12896
ag2
(g6
S'\xe9\x03'
p12897
tp12898
Rp12899
ag2
(g6
S'\xea\x03'
p12900
tp12901
Rp12902
ag2
(g6
S'Q\x05'
p12903
tp12904
Rp12905
ag2
(g6
S'R\x05'
p12906
tp12907
Rp12908
ag2
(g6
S'd\x05'
p12909
tp12910
Rp12911
ag2
(g6
S'e\x05'
p12912
tp12913
Rp12914
ag2
(g6
S'f\x05'
p12915
tp12916
Rp12917
ag2
(g6
S'{\x05'
p12918
tp12919
Rp12920
ag2
(g6
S'|\x05'
p12921
tp12922
Rp12923
ag2
(g6
S'}\x05'
p12924
tp12925
Rp12926
ag2
(g6
S'\x91\x05'
p12927
tp12928
Rp12929
ag2
(g6
S'\x92\x05'
p12930
tp12931
Rp12932
ag2
(g6
S'\x93\x05'
p12933
tp12934
Rp12935
ag2
(g6
S'\x94\x05'
p12936
tp12937
Rp12938
ag2
(g6
S'\xaa\x05'
p12939
tp12940
Rp12941
ag2
(g6
S'\xab\x05'
p12942
tp12943
Rp12944
ag2
(g6
S'\xac\x05'
p12945
tp12946
Rp12947
ag2
(g6
S'\xad\x05'
p12948
tp12949
Rp12950
ag2
(g6
S'\xc9\x05'
p12951
tp12952
Rp12953
ag2
(g6
S'\xca\x05'
p12954
tp12955
Rp12956
ag2
(g6
S'\xcb\x05'
p12957
tp12958
Rp12959
ag2
(g6
S'\xe5\x05'
p12960
tp12961
Rp12962
ag2
(g6
S'\xe6\x05'
p12963
tp12964
Rp12965
ag2
(g6
S'\xe7\x05'
p12966
tp12967
Rp12968
ag2
(g6
S'\xff\x05'
p12969
tp12970
Rp12971
ag2
(g6
S'\x00\x06'
p12972
tp12973
Rp12974
ag2
(g6
S'\x01\x06'
p12975
tp12976
Rp12977
ag2
(g6
S'\x02\x06'
p12978
tp12979
Rp12980
ag2
(g6
S'\x03\x06'
p12981
tp12982
Rp12983
ag2
(g6
S'\x17\x06'
p12984
tp12985
Rp12986
ag2
(g6
S'\x18\x06'
p12987
tp12988
Rp12989
ag2
(g6
S'\x19\x06'
p12990
tp12991
Rp12992
ag2
(g6
S'\x1a\x06'
p12993
tp12994
Rp12995
ag2
(g6
S'\x1b\x06'
p12996
tp12997
Rp12998
ag2
(g6
S'\x1c\x06'
p12999
tp13000
Rp13001
ag2
(g6
S'\x1d\x06'
p13002
tp13003
Rp13004
ag2
(g6
S'1\x06'
p13005
tp13006
Rp13007
ag2
(g6
S'2\x06'
p13008
tp13009
Rp13010
ag2
(g6
S'3\x06'
p13011
tp13012
Rp13013
ag2
(g6
S'4\x06'
p13014
tp13015
Rp13016
ag2
(g6
S'5\x06'
p13017
tp13018
Rp13019
ag2
(g6
S'6\x06'
p13020
tp13021
Rp13022
ag2
(g6
S'7\x06'
p13023
tp13024
Rp13025
ag2
(g6
S'H\x06'
p13026
tp13027
Rp13028
ag2
(g6
S'I\x06'
p13029
tp13030
Rp13031
ag2
(g6
S'J\x06'
p13032
tp13033
Rp13034
ag2
(g6
S'K\x06'
p13035
tp13036
Rp13037
ag2
(g6
S'L\x06'
p13038
tp13039
Rp13040
ag2
(g6
S'M\x06'
p13041
tp13042
Rp13043
ag2
(g6
S'N\x06'
p13044
tp13045
Rp13046
ag2
(g6
S']\x06'
p13047
tp13048
Rp13049
ag2
(g6
S'^\x06'
p13050
tp13051
Rp13052
ag2
(g6
S'_\x06'
p13053
tp13054
Rp13055
ag2
(g6
S'`\x06'
p13056
tp13057
Rp13058
ag2
(g6
S'a\x06'
p13059
tp13060
Rp13061
ag2
(g6
S'b\x06'
p13062
tp13063
Rp13064
ag2
(g6
S'c\x06'
p13065
tp13066
Rp13067
ag2
(g6
S'q\x06'
p13068
tp13069
Rp13070
ag2
(g6
S'r\x06'
p13071
tp13072
Rp13073
ag2
(g6
S's\x06'
p13074
tp13075
Rp13076
ag2
(g6
S't\x06'
p13077
tp13078
Rp13079
ag2
(g6
S'u\x06'
p13080
tp13081
Rp13082
ag2
(g6
S'v\x06'
p13083
tp13084
Rp13085
ag2
(g6
S'\x81\x06'
p13086
tp13087
Rp13088
ag2
(g6
S'\x82\x06'
p13089
tp13090
Rp13091
ag2
(g6
S'\x83\x06'
p13092
tp13093
Rp13094
ag2
(g6
S'\x84\x06'
p13095
tp13096
Rp13097
ag2
(g6
S'\xa5\x07'
p13098
tp13099
Rp13100
ag2
(g6
S'\xaf\x07'
p13101
tp13102
Rp13103
ag2
(g6
S'\xb0\x07'
p13104
tp13105
Rp13106
ag2
(g6
S'\xbb\x07'
p13107
tp13108
Rp13109
ag2
(g6
S'\xbc\x07'
p13110
tp13111
Rp13112
ag2
(g6
S'\xd2\x07'
p13113
tp13114
Rp13115
ag2
(g6
S'\xe9\x07'
p13116
tp13117
Rp13118
ag2
(g6
S'\xea\x07'
p13119
tp13120
Rp13121
ag2
(g6
S'\x02\x08'
p13122
tp13123
Rp13124
ag2
(g6
S'\x03\x08'
p13125
tp13126
Rp13127
ag2
(g6
S'\x04\x08'
p13128
tp13129
Rp13130
ag2
(g6
S'\x1e\x08'
p13131
tp13132
Rp13133
ag2
(g6
S'\x1f\x08'
p13134
tp13135
Rp13136
ag2
(g6
S' \x08'
p13137
tp13138
Rp13139
ag2
(g6
S'9\x08'
p13140
tp13141
Rp13142
ag2
(g6
S':\x08'
p13143
tp13144
Rp13145
ag2
(g6
S';\x08'
p13146
tp13147
Rp13148
ag2
(g6
S'<\x08'
p13149
tp13150
Rp13151
ag2
(g6
S'=\x08'
p13152
tp13153
Rp13154
ag2
(g6
S'U\x08'
p13155
tp13156
Rp13157
ag2
(g6
S'V\x08'
p13158
tp13159
Rp13160
ag2
(g6
S'W\x08'
p13161
tp13162
Rp13163
ag2
(g6
S'X\x08'
p13164
tp13165
Rp13166
ag2
(g6
S'Y\x08'
p13167
tp13168
Rp13169
ag2
(g6
S'o\x08'
p13170
tp13171
Rp13172
ag2
(g6
S'p\x08'
p13173
tp13174
Rp13175
ag2
(g6
S'q\x08'
p13176
tp13177
Rp13178
ag2
(g6
S'r\x08'
p13179
tp13180
Rp13181
ag2
(g6
S's\x08'
p13182
tp13183
Rp13184
ag2
(g6
S't\x08'
p13185
tp13186
Rp13187
ag2
(g6
S'u\x08'
p13188
tp13189
Rp13190
ag2
(g6
S'\x89\x08'
p13191
tp13192
Rp13193
ag2
(g6
S'\x8a\x08'
p13194
tp13195
Rp13196
ag2
(g6
S'\x8b\x08'
p13197
tp13198
Rp13199
ag2
(g6
S'\x8c\x08'
p13200
tp13201
Rp13202
ag2
(g6
S'\x8d\x08'
p13203
tp13204
Rp13205
ag2
(g6
S'\x8e\x08'
p13206
tp13207
Rp13208
ag2
(g6
S'\x8f\x08'
p13209
tp13210
Rp13211
ag2
(g6
S'\xa2\x08'
p13212
tp13213
Rp13214
ag2
(g6
S'\xa3\x08'
p13215
tp13216
Rp13217
ag2
(g6
S'\xa4\x08'
p13218
tp13219
Rp13220
ag2
(g6
S'\xa5\x08'
p13221
tp13222
Rp13223
ag2
(g6
S'\xa6\x08'
p13224
tp13225
Rp13226
ag2
(g6
S'\xa7\x08'
p13227
tp13228
Rp13229
ag2
(g6
S'\xa8\x08'
p13230
tp13231
Rp13232
ag2
(g6
S'\xbb\x08'
p13233
tp13234
Rp13235
ag2
(g6
S'\xbc\x08'
p13236
tp13237
Rp13238
ag2
(g6
S'\xbd\x08'
p13239
tp13240
Rp13241
ag2
(g6
S'\xbe\x08'
p13242
tp13243
Rp13244
ag2
(g6
S'\xbf\x08'
p13245
tp13246
Rp13247
ag2
(g6
S'\xc0\x08'
p13248
tp13249
Rp13250
ag2
(g6
S'\xd1\x08'
p13251
tp13252
Rp13253
ag2
(g6
S'\xd2\x08'
p13254
tp13255
Rp13256
ag2
(g6
S'\xd3\x08'
p13257
tp13258
Rp13259
ag2
(g6
S'\xd4\x08'
p13260
tp13261
Rp13262
ag2
(g6
S'\xd5\x08'
p13263
tp13264
Rp13265
ag2
(g6
S'\xd6\x08'
p13266
tp13267
Rp13268
ag2
(g6
S'\xe5\x08'
p13269
tp13270
Rp13271
ag2
(g6
S'\xe6\x08'
p13272
tp13273
Rp13274
ag2
(g6
S'\xe7\x08'
p13275
tp13276
Rp13277
ag2
(g6
S'\xe8\x08'
p13278
tp13279
Rp13280
ag2
(g6
S'\xe9\x08'
p13281
tp13282
Rp13283
ag2
(g6
S'\xea\x08'
p13284
tp13285
Rp13286
ag2
(g6
S'\xf6\x08'
p13287
tp13288
Rp13289
ag2
(g6
S'\xf7\x08'
p13290
tp13291
Rp13292
ag2
(g6
S'\xf8\x08'
p13293
tp13294
Rp13295
ag2
(g6
S'\xf9\x08'
p13296
tp13297
Rp13298
ag2
(g6
S'\xfa\x08'
p13299
tp13300
Rp13301
aa(lp13302
g2
(g6
S'\xe5\t'
p13303
tp13304
Rp13305
ag2
(g6
S'\xe6\t'
p13306
tp13307
Rp13308
ag2
(g6
S'\xe7\t'
p13309
tp13310
Rp13311
ag2
(g6
S'\xe8\t'
p13312
tp13313
Rp13314
ag2
(g6
S'\xe9\t'
p13315
tp13316
Rp13317
ag2
(g6
S'\xea\t'
p13318
tp13319
Rp13320
ag2
(g6
S'\xeb\t'
p13321
tp13322
Rp13323
ag2
(g6
S'\xec\t'
p13324
tp13325
Rp13326
ag2
(g6
S'\xf6\t'
p13327
tp13328
Rp13329
ag2
(g6
S'\xf7\t'
p13330
tp13331
Rp13332
ag2
(g6
S'\xf8\t'
p13333
tp13334
Rp13335
ag2
(g6
S'\xf9\t'
p13336
tp13337
Rp13338
ag2
(g6
S'\xfa\t'
p13339
tp13340
Rp13341
ag2
(g6
S'\xfb\t'
p13342
tp13343
Rp13344
ag2
(g6
S'\xfc\t'
p13345
tp13346
Rp13347
ag2
(g6
S'\xfd\t'
p13348
tp13349
Rp13350
ag2
(g6
S'\x07\n'
p13351
tp13352
Rp13353
ag2
(g6
S'\x08\n'
p13354
tp13355
Rp13356
ag2
(g6
S'\t\n'
p13357
tp13358
Rp13359
ag2
(g6
S'\n\n'
p13360
tp13361
Rp13362
ag2
(g6
S'\x0b\n'
p13363
tp13364
Rp13365
ag2
(g6
S'\x0c\n'
p13366
tp13367
Rp13368
ag2
(g6
S'\r\n'
p13369
tp13370
Rp13371
ag2
(g6
S'\x0e\n'
p13372
tp13373
Rp13374
ag2
(g6
S'\x18\n'
p13375
tp13376
Rp13377
ag2
(g6
S'\x19\n'
p13378
tp13379
Rp13380
ag2
(g6
S'\x1a\n'
p13381
tp13382
Rp13383
ag2
(g6
S'\x1b\n'
p13384
tp13385
Rp13386
ag2
(g6
S'\x1c\n'
p13387
tp13388
Rp13389
ag2
(g6
S'\x1d\n'
p13390
tp13391
Rp13392
ag2
(g6
S'\x1e\n'
p13393
tp13394
Rp13395
ag2
(g6
S'(\n'
p13396
tp13397
Rp13398
ag2
(g6
S')\n'
p13399
tp13400
Rp13401
ag2
(g6
S'*\n'
p13402
tp13403
Rp13404
ag2
(g6
S'+\n'
p13405
tp13406
Rp13407
ag2
(g6
S',\n'
p13408
tp13409
Rp13410
ag2
(g6
S'-\n'
p13411
tp13412
Rp13413
ag2
(g6
S'.\n'
p13414
tp13415
Rp13416
ag2
(g6
S'8\n'
p13417
tp13418
Rp13419
ag2
(g6
S'9\n'
p13420
tp13421
Rp13422
ag2
(g6
S':\n'
p13423
tp13424
Rp13425
ag2
(g6
S';\n'
p13426
tp13427
Rp13428
ag2
(g6
S'F\n'
p13429
tp13430
Rp13431
ag2
(g6
S'G\n'
p13432
tp13433
Rp13434
ag2
(g6
S'V\n'
p13435
tp13436
Rp13437
ag2
(g6
S'#\x0c'
p13438
tp13439
Rp13440
ag2
(g6
S'&\x0c'
p13441
tp13442
Rp13443
ag2
(g6
S"'\x0c"
p13444
tp13445
Rp13446
ag2
(g6
S'(\x0c'
p13447
tp13448
Rp13449
ag2
(g6
S')\x0c'
p13450
tp13451
Rp13452
ag2
(g6
S'*\x0c'
p13453
tp13454
Rp13455
ag2
(g6
S'+\x0c'
p13456
tp13457
Rp13458
ag2
(g6
S',\x0c'
p13459
tp13460
Rp13461
ag2
(g6
S'0\x0c'
p13462
tp13463
Rp13464
ag2
(g6
S'1\x0c'
p13465
tp13466
Rp13467
ag2
(g6
S'2\x0c'
p13468
tp13469
Rp13470
ag2
(g6
S'3\x0c'
p13471
tp13472
Rp13473
ag2
(g6
S'4\x0c'
p13474
tp13475
Rp13476
ag2
(g6
S'5\x0c'
p13477
tp13478
Rp13479
ag2
(g6
S'6\x0c'
p13480
tp13481
Rp13482
ag2
(g6
S';\x0c'
p13483
tp13484
Rp13485
ag2
(g6
S'<\x0c'
p13486
tp13487
Rp13488
ag2
(g6
S'=\x0c'
p13489
tp13490
Rp13491
ag2
(g6
S'>\x0c'
p13492
tp13493
Rp13494
ag2
(g6
S'?\x0c'
p13495
tp13496
Rp13497
ag2
(g6
S'@\x0c'
p13498
tp13499
Rp13500
ag2
(g6
S'A\x0c'
p13501
tp13502
Rp13503
ag2
(g6
S'H\x0c'
p13504
tp13505
Rp13506
ag2
(g6
S'I\x0c'
p13507
tp13508
Rp13509
ag2
(g6
S'J\x0c'
p13510
tp13511
Rp13512
ag2
(g6
S'K\x0c'
p13513
tp13514
Rp13515
ag2
(g6
S'L\x0c'
p13516
tp13517
Rp13518
ag2
(g6
S'M\x0c'
p13519
tp13520
Rp13521
ag2
(g6
S'N\x0c'
p13522
tp13523
Rp13524
ag2
(g6
S'V\x0c'
p13525
tp13526
Rp13527
ag2
(g6
S'W\x0c'
p13528
tp13529
Rp13530
ag2
(g6
S'X\x0c'
p13531
tp13532
Rp13533
ag2
(g6
S'Y\x0c'
p13534
tp13535
Rp13536
ag2
(g6
S'Z\x0c'
p13537
tp13538
Rp13539
ag2
(g6
S'[\x0c'
p13540
tp13541
Rp13542
ag2
(g6
S'\\\x0c'
p13543
tp13544
Rp13545
ag2
(g6
S'd\x0c'
p13546
tp13547
Rp13548
ag2
(g6
S'e\x0c'
p13549
tp13550
Rp13551
ag2
(g6
S'f\x0c'
p13552
tp13553
Rp13554
ag2
(g6
S'g\x0c'
p13555
tp13556
Rp13557
ag2
(g6
S'h\x0c'
p13558
tp13559
Rp13560
ag2
(g6
S'i\x0c'
p13561
tp13562
Rp13563
ag2
(g6
S'j\x0c'
p13564
tp13565
Rp13566
ag2
(g6
S'k\x0c'
p13567
tp13568
Rp13569
ag2
(g6
S't\x0c'
p13570
tp13571
Rp13572
ag2
(g6
S'u\x0c'
p13573
tp13574
Rp13575
ag2
(g6
S'v\x0c'
p13576
tp13577
Rp13578
ag2
(g6
S'w\x0c'
p13579
tp13580
Rp13581
ag2
(g6
S'x\x0c'
p13582
tp13583
Rp13584
ag2
(g6
S'y\x0c'
p13585
tp13586
Rp13587
ag2
(g6
S'z\x0c'
p13588
tp13589
Rp13590
ag2
(g6
S'{\x0c'
p13591
tp13592
Rp13593
ag2
(g6
S'\x83\x0c'
p13594
tp13595
Rp13596
ag2
(g6
S'\x84\x0c'
p13597
tp13598
Rp13599
ag2
(g6
S'\x85\x0c'
p13600
tp13601
Rp13602
ag2
(g6
S'\x86\x0c'
p13603
tp13604
Rp13605
ag2
(g6
S'\x87\x0c'
p13606
tp13607
Rp13608
ag2
(g6
S'\x88\x0c'
p13609
tp13610
Rp13611
ag2
(g6
S']\x0e'
p13612
tp13613
Rp13614
ag2
(g6
S'^\x0e'
p13615
tp13616
Rp13617
ag2
(g6
S'_\x0e'
p13618
tp13619
Rp13620
ag2
(g6
S'`\x0e'
p13621
tp13622
Rp13623
ag2
(g6
S'c\x0e'
p13624
tp13625
Rp13626
ag2
(g6
S'd\x0e'
p13627
tp13628
Rp13629
ag2
(g6
S'e\x0e'
p13630
tp13631
Rp13632
ag2
(g6
S'f\x0e'
p13633
tp13634
Rp13635
ag2
(g6
S'g\x0e'
p13636
tp13637
Rp13638
ag2
(g6
S'h\x0e'
p13639
tp13640
Rp13641
ag2
(g6
S'k\x0e'
p13642
tp13643
Rp13644
ag2
(g6
S'l\x0e'
p13645
tp13646
Rp13647
ag2
(g6
S'm\x0e'
p13648
tp13649
Rp13650
ag2
(g6
S'n\x0e'
p13651
tp13652
Rp13653
ag2
(g6
S'o\x0e'
p13654
tp13655
Rp13656
ag2
(g6
S'p\x0e'
p13657
tp13658
Rp13659
ag2
(g6
S'q\x0e'
p13660
tp13661
Rp13662
ag2
(g6
S't\x0e'
p13663
tp13664
Rp13665
ag2
(g6
S'u\x0e'
p13666
tp13667
Rp13668
ag2
(g6
S'v\x0e'
p13669
tp13670
Rp13671
ag2
(g6
S'w\x0e'
p13672
tp13673
Rp13674
ag2
(g6
S'x\x0e'
p13675
tp13676
Rp13677
ag2
(g6
S'y\x0e'
p13678
tp13679
Rp13680
ag2
(g6
S'z\x0e'
p13681
tp13682
Rp13683
ag2
(g6
S'{\x0e'
p13684
tp13685
Rp13686
ag2
(g6
S'|\x0e'
p13687
tp13688
Rp13689
ag2
(g6
S'\x80\x0e'
p13690
tp13691
Rp13692
ag2
(g6
S'\x81\x0e'
p13693
tp13694
Rp13695
ag2
(g6
S'\x82\x0e'
p13696
tp13697
Rp13698
ag2
(g6
S'\x83\x0e'
p13699
tp13700
Rp13701
ag2
(g6
S'\x84\x0e'
p13702
tp13703
Rp13704
ag2
(g6
S'\x85\x0e'
p13705
tp13706
Rp13707
ag2
(g6
S'\x86\x0e'
p13708
tp13709
Rp13710
ag2
(g6
S'\x87\x0e'
p13711
tp13712
Rp13713
ag2
(g6
S'\x88\x0e'
p13714
tp13715
Rp13716
ag2
(g6
S'\x8c\x0e'
p13717
tp13718
Rp13719
ag2
(g6
S'\x8d\x0e'
p13720
tp13721
Rp13722
ag2
(g6
S'\x8e\x0e'
p13723
tp13724
Rp13725
ag2
(g6
S'\x8f\x0e'
p13726
tp13727
Rp13728
ag2
(g6
S'\x90\x0e'
p13729
tp13730
Rp13731
ag2
(g6
S'\x91\x0e'
p13732
tp13733
Rp13734
ag2
(g6
S'\x92\x0e'
p13735
tp13736
Rp13737
ag2
(g6
S'\x93\x0e'
p13738
tp13739
Rp13740
ag2
(g6
S'\x94\x0e'
p13741
tp13742
Rp13743
ag2
(g6
S'\x97\x0e'
p13744
tp13745
Rp13746
ag2
(g6
S'\x98\x0e'
p13747
tp13748
Rp13749
ag2
(g6
S'\x99\x0e'
p13750
tp13751
Rp13752
ag2
(g6
S'\x9a\x0e'
p13753
tp13754
Rp13755
ag2
(g6
S'\x9b\x0e'
p13756
tp13757
Rp13758
ag2
(g6
S'\x9c\x0e'
p13759
tp13760
Rp13761
ag2
(g6
S'\x9d\x0e'
p13762
tp13763
Rp13764
ag2
(g6
S'\x9e\x0e'
p13765
tp13766
Rp13767
ag2
(g6
S'\xa1\x0e'
p13768
tp13769
Rp13770
ag2
(g6
S'\xa2\x0e'
p13771
tp13772
Rp13773
ag2
(g6
S'\xa3\x0e'
p13774
tp13775
Rp13776
ag2
(g6
S'\xa4\x0e'
p13777
tp13778
Rp13779
ag2
(g6
S'\xa5\x0e'
p13780
tp13781
Rp13782
ag2
(g6
S'\xa6\x0e'
p13783
tp13784
Rp13785
ag2
(g6
S'\xa7\x0e'
p13786
tp13787
Rp13788
ag2
(g6
S'\xa8\x0e'
p13789
tp13790
Rp13791
ag2
(g6
S'\xab\x0e'
p13792
tp13793
Rp13794
ag2
(g6
S'\xac\x0e'
p13795
tp13796
Rp13797
ag2
(g6
S'\xad\x0e'
p13798
tp13799
Rp13800
ag2
(g6
S'\xae\x0e'
p13801
tp13802
Rp13803
ag2
(g6
S'\xaf\x0e'
p13804
tp13805
Rp13806
ag2
(g6
S'\xb0\x0e'
p13807
tp13808
Rp13809
ag2
(g6
S'\xb1\x0e'
p13810
tp13811
Rp13812
ag2
(g6
S'\xb4\x0e'
p13813
tp13814
Rp13815
ag2
(g6
S'\xb5\x0e'
p13816
tp13817
Rp13818
ag2
(g6
S'\xb6\x0e'
p13819
tp13820
Rp13821
ag2
(g6
S'\xb7\x0e'
p13822
tp13823
Rp13824
ag2
(g6
S'\xb8\x0e'
p13825
tp13826
Rp13827
ag2
(g6
S'\xb9\x0e'
p13828
tp13829
Rp13830
ag2
(g6
S'\xba\x0e'
p13831
tp13832
Rp13833
ag2
(g6
S'\xbe\x0e'
p13834
tp13835
Rp13836
ag2
(g6
S'\xbf\x0e'
p13837
tp13838
Rp13839
ag2
(g6
S'\xc0\x0e'
p13840
tp13841
Rp13842
ag2
(g6
S'\xc1\x0e'
p13843
tp13844
Rp13845
ag2
(g6
S'\xc2\x0e'
p13846
tp13847
Rp13848
ag2
(g6
S'\xc3\x0e'
p13849
tp13850
Rp13851
ag2
(g6
S'\xc4\x0e'
p13852
tp13853
Rp13854
ag2
(g6
S'\xcb\x0e'
p13855
tp13856
Rp13857
ag2
(g6
S'\xcc\x0e'
p13858
tp13859
Rp13860
ag2
(g6
S'\xce\x0e'
p13861
tp13862
Rp13863
ag2
(g6
S'\xbd\x10'
p13864
tp13865
Rp13866
ag2
(g6
S'\xbe\x10'
p13867
tp13868
Rp13869
ag2
(g6
S'\xc5\x10'
p13870
tp13871
Rp13872
ag2
(g6
S'\xc6\x10'
p13873
tp13874
Rp13875
ag2
(g6
S'\xc7\x10'
p13876
tp13877
Rp13878
ag2
(g6
S'\xc8\x10'
p13879
tp13880
Rp13881
ag2
(g6
S'\xcf\x10'
p13882
tp13883
Rp13884
ag2
(g6
S'\xd0\x10'
p13885
tp13886
Rp13887
ag2
(g6
S'\xd1\x10'
p13888
tp13889
Rp13890
ag2
(g6
S'\xd2\x10'
p13891
tp13892
Rp13893
ag2
(g6
S'\xd3\x10'
p13894
tp13895
Rp13896
ag2
(g6
S'\xd4\x10'
p13897
tp13898
Rp13899
ag2
(g6
S'\xdb\x10'
p13900
tp13901
Rp13902
ag2
(g6
S'\xdc\x10'
p13903
tp13904
Rp13905
ag2
(g6
S'\xdd\x10'
p13906
tp13907
Rp13908
ag2
(g6
S'\xde\x10'
p13909
tp13910
Rp13911
ag2
(g6
S'\xdf\x10'
p13912
tp13913
Rp13914
ag2
(g6
S'\xe0\x10'
p13915
tp13916
Rp13917
ag2
(g6
S'\xe1\x10'
p13918
tp13919
Rp13920
ag2
(g6
S'\xe2\x10'
p13921
tp13922
Rp13923
ag2
(g6
S'\xea\x10'
p13924
tp13925
Rp13926
ag2
(g6
S'\xeb\x10'
p13927
tp13928
Rp13929
ag2
(g6
S'\xec\x10'
p13930
tp13931
Rp13932
ag2
(g6
S'\xed\x10'
p13933
tp13934
Rp13935
ag2
(g6
S'\xee\x10'
p13936
tp13937
Rp13938
ag2
(g6
S'\xef\x10'
p13939
tp13940
Rp13941
ag2
(g6
S'\xf0\x10'
p13942
tp13943
Rp13944
ag2
(g6
S'\xf1\x10'
p13945
tp13946
Rp13947
ag2
(g6
S'\xf2\x10'
p13948
tp13949
Rp13950
ag2
(g6
S'\xfa\x10'
p13951
tp13952
Rp13953
ag2
(g6
S'\xfb\x10'
p13954
tp13955
Rp13956
ag2
(g6
S'\xfc\x10'
p13957
tp13958
Rp13959
ag2
(g6
S'\xfd\x10'
p13960
tp13961
Rp13962
ag2
(g6
S'\xfe\x10'
p13963
tp13964
Rp13965
ag2
(g6
S'\xff\x10'
p13966
tp13967
Rp13968
ag2
(g6
S'\x00\x11'
p13969
tp13970
Rp13971
ag2
(g6
S'\x01\x11'
p13972
tp13973
Rp13974
ag2
(g6
S'\x02\x11'
p13975
tp13976
Rp13977
ag2
(g6
S'\x0c\x11'
p13978
tp13979
Rp13980
ag2
(g6
S'\r\x11'
p13981
tp13982
Rp13983
ag2
(g6
S'\x0e\x11'
p13984
tp13985
Rp13986
ag2
(g6
S'\x0f\x11'
p13987
tp13988
Rp13989
ag2
(g6
S'\x10\x11'
p13990
tp13991
Rp13992
ag2
(g6
S'\x11\x11'
p13993
tp13994
Rp13995
ag2
(g6
S'\x12\x11'
p13996
tp13997
Rp13998
ag2
(g6
S'\x13\x11'
p13999
tp14000
Rp14001
ag2
(g6
S'\x14\x11'
p14002
tp14003
Rp14004
ag2
(g6
S'\x1e\x11'
p14005
tp14006
Rp14007
ag2
(g6
S'\x1f\x11'
p14008
tp14009
Rp14010
ag2
(g6
S' \x11'
p14011
tp14012
Rp14013
ag2
(g6
S'!\x11'
p14014
tp14015
Rp14016
ag2
(g6
S'"\x11'
p14017
tp14018
Rp14019
ag2
(g6
S'#\x11'
p14020
tp14021
Rp14022
ag2
(g6
S'$\x11'
p14023
tp14024
Rp14025
ag2
(g6
S'%\x11'
p14026
tp14027
Rp14028
ag2
(g6
S'/\x11'
p14029
tp14030
Rp14031
ag2
(g6
S'0\x11'
p14032
tp14033
Rp14034
ag2
(g6
S'1\x11'
p14035
tp14036
Rp14037
ag2
(g6
S'2\x11'
p14038
tp14039
Rp14040
ag2
(g6
S'3\x11'
p14041
tp14042
Rp14043
ag2
(g6
S'4\x11'
p14044
tp14045
Rp14046
ag2
(g6
S'5\x11'
p14047
tp14048
Rp14049
ag2
(g6
S'6\x11'
p14050
tp14051
Rp14052
ag2
(g6
S'@\x11'
p14053
tp14054
Rp14055
ag2
(g6
S'A\x11'
p14056
tp14057
Rp14058
ag2
(g6
S'B\x11'
p14059
tp14060
Rp14061
ag2
(g6
S'C\x11'
p14062
tp14063
Rp14064
ag2
(g6
S'D\x11'
p14065
tp14066
Rp14067
ag2
(g6
S'E\x11'
p14068
tp14069
Rp14070
ag2
(g6
S'F\x11'
p14071
tp14072
Rp14073
ag2
(g6
S'G\x11'
p14074
tp14075
Rp14076
ag2
(g6
S'H\x11'
p14077
tp14078
Rp14079
ag2
(g6
S'R\x11'
p14080
tp14081
Rp14082
ag2
(g6
S'S\x11'
p14083
tp14084
Rp14085
ag2
(g6
S'T\x11'
p14086
tp14087
Rp14088
ag2
(g6
S'U\x11'
p14089
tp14090
Rp14091
ag2
(g6
S'V\x11'
p14092
tp14093
Rp14094
ag2
(g6
S'W\x11'
p14095
tp14096
Rp14097
ag2
(g6
S'X\x11'
p14098
tp14099
Rp14100
ag2
(g6
S'Y\x11'
p14101
tp14102
Rp14103
ag2
(g6
S'c\x11'
p14104
tp14105
Rp14106
ag2
(g6
S'd\x11'
p14107
tp14108
Rp14109
ag2
(g6
S'e\x11'
p14110
tp14111
Rp14112
ag2
(g6
S'f\x11'
p14113
tp14114
Rp14115
ag2
(g6
S'g\x11'
p14116
tp14117
Rp14118
ag2
(g6
S'q\x11'
p14119
tp14120
Rp14121
ag2
(g6
S'r\x11'
p14122
tp14123
Rp14124
ag2
(g6
S's\x11'
p14125
tp14126
Rp14127
ag2
(g6
S't\x11'
p14128
tp14129
Rp14130
ag2
(g6
S'}\x11'
p14131
tp14132
Rp14133
ag2
(g6
S'~\x11'
p14134
tp14135
Rp14136
ag2
(g6
S'\x7f\x11'
p14137
tp14138
Rp14139
ag2
(g6
S'\x88\x11'
p14140
tp14141
Rp14142
ag2
(g6
S'\x89\x11'
p14143
tp14144
Rp14145
ag2
(g6
S'\x8a\x11'
p14146
tp14147
Rp14148
ag2
(g6
S'\x93\x11'
p14149
tp14150
Rp14151
ag2
(g6
S'\x94\x11'
p14152
tp14153
Rp14154
aa(lp14155
g2
(g6
S'\xbc\r'
p14156
tp14157
Rp14158
ag2
(g6
S'\xbd\r'
p14159
tp14160
Rp14161
ag2
(g6
S'\xbe\r'
p14162
tp14163
Rp14164
ag2
(g6
S'\xbf\r'
p14165
tp14166
Rp14167
ag2
(g6
S'\xc0\r'
p14168
tp14169
Rp14170
ag2
(g6
S'\xc1\r'
p14171
tp14172
Rp14173
ag2
(g6
S'\xc2\r'
p14174
tp14175
Rp14176
ag2
(g6
S'\xcb\r'
p14177
tp14178
Rp14179
ag2
(g6
S'\xcc\r'
p14180
tp14181
Rp14182
ag2
(g6
S'\xcd\r'
p14183
tp14184
Rp14185
ag2
(g6
S'\xce\r'
p14186
tp14187
Rp14188
ag2
(g6
S'\xcf\r'
p14189
tp14190
Rp14191
ag2
(g6
S'\xd0\r'
p14192
tp14193
Rp14194
ag2
(g6
S'\xd1\r'
p14195
tp14196
Rp14197
ag2
(g6
S'\xdb\r'
p14198
tp14199
Rp14200
ag2
(g6
S'\xdc\r'
p14201
tp14202
Rp14203
ag2
(g6
S'\xdd\r'
p14204
tp14205
Rp14206
ag2
(g6
S'\xde\r'
p14207
tp14208
Rp14209
ag2
(g6
S'\xdf\r'
p14210
tp14211
Rp14212
ag2
(g6
S'\xe0\r'
p14213
tp14214
Rp14215
ag2
(g6
S'\xe1\r'
p14216
tp14217
Rp14218
ag2
(g6
S'\xeb\r'
p14219
tp14220
Rp14221
ag2
(g6
S'\xec\r'
p14222
tp14223
Rp14224
ag2
(g6
S'\xed\r'
p14225
tp14226
Rp14227
ag2
(g6
S'\xee\r'
p14228
tp14229
Rp14230
ag2
(g6
S'\xef\r'
p14231
tp14232
Rp14233
ag2
(g6
S'\xf0\r'
p14234
tp14235
Rp14236
ag2
(g6
S'\xfa\r'
p14237
tp14238
Rp14239
ag2
(g6
S'\x0b\x10'
p14240
tp14241
Rp14242
ag2
(g6
S'\x0c\x10'
p14243
tp14244
Rp14245
ag2
(g6
S'\x16\x10'
p14246
tp14247
Rp14248
ag2
(g6
S'\x17\x10'
p14249
tp14250
Rp14251
ag2
(g6
S'\x18\x10'
p14252
tp14253
Rp14254
ag2
(g6
S'\x19\x10'
p14255
tp14256
Rp14257
ag2
(g6
S'\x1a\x10'
p14258
tp14259
Rp14260
ag2
(g6
S'\x1b\x10'
p14261
tp14262
Rp14263
ag2
(g6
S'#\x10'
p14264
tp14265
Rp14266
ag2
(g6
S'$\x10'
p14267
tp14268
Rp14269
ag2
(g6
S'%\x10'
p14270
tp14271
Rp14272
ag2
(g6
S'&\x10'
p14273
tp14274
Rp14275
ag2
(g6
S"'\x10"
p14276
tp14277
Rp14278
ag2
(g6
S'(\x10'
p14279
tp14280
Rp14281
ag2
(g6
S')\x10'
p14282
tp14283
Rp14284
ag2
(g6
S'1\x10'
p14285
tp14286
Rp14287
ag2
(g6
S'2\x10'
p14288
tp14289
Rp14290
ag2
(g6
S'3\x10'
p14291
tp14292
Rp14293
ag2
(g6
S'4\x10'
p14294
tp14295
Rp14296
ag2
(g6
S'5\x10'
p14297
tp14298
Rp14299
ag2
(g6
S'6\x10'
p14300
tp14301
Rp14302
ag2
(g6
S'>\x10'
p14303
tp14304
Rp14305
ag2
(g6
S'?\x10'
p14306
tp14307
Rp14308
ag2
(g6
S'@\x10'
p14309
tp14310
Rp14311
ag2
(g6
S'B\x10'
p14312
tp14313
Rp14314
ag2
(g6
S'C\x10'
p14315
tp14316
Rp14317
ag2
(g6
S'L\x10'
p14318
tp14319
Rp14320
ag2
(g6
S'M\x10'
p14321
tp14322
Rp14323
ag2
(g6
S'N\x10'
p14324
tp14325
Rp14326
aa(lp14327
g2
(g6
S'H\x00'
p14328
tp14329
Rp14330
ag2
(g6
S'I\x00'
p14331
tp14332
Rp14333
ag2
(g6
S'J\x00'
p14334
tp14335
Rp14336
ag2
(g6
S'K\x00'
p14337
tp14338
Rp14339
ag2
(g6
S'L\x00'
p14340
tp14341
Rp14342
ag2
(g6
S'M\x00'
p14343
tp14344
Rp14345
ag2
(g6
S'^\x00'
p14346
tp14347
Rp14348
ag2
(g6
S'_\x00'
p14349
tp14350
Rp14351
ag2
(g6
S'`\x00'
p14352
tp14353
Rp14354
ag2
(g6
S'a\x00'
p14355
tp14356
Rp14357
ag2
(g6
S'b\x00'
p14358
tp14359
Rp14360
ag2
(g6
S'c\x00'
p14361
tp14362
Rp14363
ag2
(g6
S'd\x00'
p14364
tp14365
Rp14366
ag2
(g6
S'u\x00'
p14367
tp14368
Rp14369
ag2
(g6
S'v\x00'
p14370
tp14371
Rp14372
ag2
(g6
S'w\x00'
p14373
tp14374
Rp14375
ag2
(g6
S'x\x00'
p14376
tp14377
Rp14378
ag2
(g6
S'y\x00'
p14379
tp14380
Rp14381
ag2
(g6
S'z\x00'
p14382
tp14383
Rp14384
ag2
(g6
S'{\x00'
p14385
tp14386
Rp14387
ag2
(g6
S'\x8b\x00'
p14388
tp14389
Rp14390
ag2
(g6
S'\x8c\x00'
p14391
tp14392
Rp14393
ag2
(g6
S'\x8d\x00'
p14394
tp14395
Rp14396
ag2
(g6
S'\x8e\x00'
p14397
tp14398
Rp14399
ag2
(g6
S'\x8f\x00'
p14400
tp14401
Rp14402
ag2
(g6
S'\x90\x00'
p14403
tp14404
Rp14405
ag2
(g6
S'\x91\x00'
p14406
tp14407
Rp14408
ag2
(g6
S'\xa1\x00'
p14409
tp14410
Rp14411
ag2
(g6
S'\xa2\x00'
p14412
tp14413
Rp14414
ag2
(g6
S'\xa3\x00'
p14415
tp14416
Rp14417
ag2
(g6
S'\xa4\x00'
p14418
tp14419
Rp14420
ag2
(g6
S'\xa5\x00'
p14421
tp14422
Rp14423
ag2
(g6
S'\xa6\x00'
p14424
tp14425
Rp14426
ag2
(g6
S'\xa7\x00'
p14427
tp14428
Rp14429
ag2
(g6
S'\xa8\x00'
p14430
tp14431
Rp14432
ag2
(g6
S'\xb8\x00'
p14433
tp14434
Rp14435
ag2
(g6
S'\xb9\x00'
p14436
tp14437
Rp14438
ag2
(g6
S'\xba\x00'
p14439
tp14440
Rp14441
ag2
(g6
S'\xbb\x00'
p14442
tp14443
Rp14444
ag2
(g6
S'\xbc\x00'
p14445
tp14446
Rp14447
ag2
(g6
S'\xbd\x00'
p14448
tp14449
Rp14450
ag2
(g6
S'\xbe\x00'
p14451
tp14452
Rp14453
ag2
(g6
S'\xbf\x00'
p14454
tp14455
Rp14456
ag2
(g6
S'\xce\x00'
p14457
tp14458
Rp14459
ag2
(g6
S'\xcf\x00'
p14460
tp14461
Rp14462
ag2
(g6
S'\xd0\x00'
p14463
tp14464
Rp14465
ag2
(g6
S'\xd1\x00'
p14466
tp14467
Rp14468
ag2
(g6
S'\xd2\x00'
p14469
tp14470
Rp14471
ag2
(g6
S'\xd3\x00'
p14472
tp14473
Rp14474
ag2
(g6
S'\xd4\x00'
p14475
tp14476
Rp14477
ag2
(g6
S'\xd5\x00'
p14478
tp14479
Rp14480
ag2
(g6
S'\xe2\x00'
p14481
tp14482
Rp14483
ag2
(g6
S'\xe3\x00'
p14484
tp14485
Rp14486
ag2
(g6
S'\xe4\x00'
p14487
tp14488
Rp14489
ag2
(g6
S'\xe5\x00'
p14490
tp14491
Rp14492
ag2
(g6
S'\xe6\x00'
p14493
tp14494
Rp14495
ag2
(g6
S'\xe7\x00'
p14496
tp14497
Rp14498
ag2
(g6
S'\xe8\x00'
p14499
tp14500
Rp14501
ag2
(g6
S'\xe9\x00'
p14502
tp14503
Rp14504
ag2
(g6
S'\xef\x00'
p14505
tp14506
Rp14507
ag2
(g6
S'\xf0\x00'
p14508
tp14509
Rp14510
ag2
(g6
S'\xf1\x00'
p14511
tp14512
Rp14513
ag2
(g6
S'\xf2\x00'
p14514
tp14515
Rp14516
ag2
(g6
S'5\x02'
p14517
tp14518
Rp14519
ag2
(g6
S'6\x02'
p14520
tp14521
Rp14522
ag2
(g6
S'7\x02'
p14523
tp14524
Rp14525
ag2
(g6
S'8\x02'
p14526
tp14527
Rp14528
ag2
(g6
S'9\x02'
p14529
tp14530
Rp14531
ag2
(g6
S':\x02'
p14532
tp14533
Rp14534
ag2
(g6
S';\x02'
p14535
tp14536
Rp14537
ag2
(g6
S'N\x02'
p14538
tp14539
Rp14540
ag2
(g6
S'O\x02'
p14541
tp14542
Rp14543
ag2
(g6
S'P\x02'
p14544
tp14545
Rp14546
ag2
(g6
S'Q\x02'
p14547
tp14548
Rp14549
ag2
(g6
S'R\x02'
p14550
tp14551
Rp14552
ag2
(g6
S'S\x02'
p14553
tp14554
Rp14555
ag2
(g6
S'T\x02'
p14556
tp14557
Rp14558
ag2
(g6
S'U\x02'
p14559
tp14560
Rp14561
ag2
(g6
S'V\x02'
p14562
tp14563
Rp14564
ag2
(g6
S'W\x02'
p14565
tp14566
Rp14567
ag2
(g6
S'i\x02'
p14568
tp14569
Rp14570
ag2
(g6
S'j\x02'
p14571
tp14572
Rp14573
ag2
(g6
S'k\x02'
p14574
tp14575
Rp14576
ag2
(g6
S'l\x02'
p14577
tp14578
Rp14579
ag2
(g6
S'm\x02'
p14580
tp14581
Rp14582
ag2
(g6
S'n\x02'
p14583
tp14584
Rp14585
ag2
(g6
S'o\x02'
p14586
tp14587
Rp14588
ag2
(g6
S'p\x02'
p14589
tp14590
Rp14591
ag2
(g6
S'q\x02'
p14592
tp14593
Rp14594
ag2
(g6
S'\x82\x02'
p14595
tp14596
Rp14597
ag2
(g6
S'\x83\x02'
p14598
tp14599
Rp14600
ag2
(g6
S'\x84\x02'
p14601
tp14602
Rp14603
ag2
(g6
S'\x85\x02'
p14604
tp14605
Rp14606
ag2
(g6
S'\x86\x02'
p14607
tp14608
Rp14609
ag2
(g6
S'\x87\x02'
p14610
tp14611
Rp14612
ag2
(g6
S'\x88\x02'
p14613
tp14614
Rp14615
ag2
(g6
S'\x89\x02'
p14616
tp14617
Rp14618
ag2
(g6
S'\x8a\x02'
p14619
tp14620
Rp14621
ag2
(g6
S'\x9c\x02'
p14622
tp14623
Rp14624
ag2
(g6
S'\x9d\x02'
p14625
tp14626
Rp14627
ag2
(g6
S'\x9e\x02'
p14628
tp14629
Rp14630
ag2
(g6
S'\x9f\x02'
p14631
tp14632
Rp14633
ag2
(g6
S'\xa0\x02'
p14634
tp14635
Rp14636
ag2
(g6
S'\xa1\x02'
p14637
tp14638
Rp14639
ag2
(g6
S'\xa2\x02'
p14640
tp14641
Rp14642
ag2
(g6
S'\xa3\x02'
p14643
tp14644
Rp14645
ag2
(g6
S'\xb4\x02'
p14646
tp14647
Rp14648
ag2
(g6
S'\xb5\x02'
p14649
tp14650
Rp14651
ag2
(g6
S'\xb6\x02'
p14652
tp14653
Rp14654
ag2
(g6
S'\xb7\x02'
p14655
tp14656
Rp14657
ag2
(g6
S'\xb8\x02'
p14658
tp14659
Rp14660
ag2
(g6
S'\xb9\x02'
p14661
tp14662
Rp14663
ag2
(g6
S'\xba\x02'
p14664
tp14665
Rp14666
ag2
(g6
S'\xbb\x02'
p14667
tp14668
Rp14669
ag2
(g6
S'\xc9\x02'
p14670
tp14671
Rp14672
ag2
(g6
S'\xca\x02'
p14673
tp14674
Rp14675
ag2
(g6
S'\xcb\x02'
p14676
tp14677
Rp14678
ag2
(g6
S'\xcc\x02'
p14679
tp14680
Rp14681
ag2
(g6
S'\xcd\x02'
p14682
tp14683
Rp14684
ag2
(g6
S'\xce\x02'
p14685
tp14686
Rp14687
ag2
(g6
S'\xcf\x02'
p14688
tp14689
Rp14690
ag2
(g6
S'\xd0\x02'
p14691
tp14692
Rp14693
ag2
(g6
S'\xd1\x02'
p14694
tp14695
Rp14696
ag2
(g6
S'\xd9\x02'
p14697
tp14698
Rp14699
ag2
(g6
S'\xda\x02'
p14700
tp14701
Rp14702
ag2
(g6
S'\xdb\x02'
p14703
tp14704
Rp14705
ag2
(g6
S'\xdc\x02'
p14706
tp14707
Rp14708
ag2
(g6
S'\xdd\x02'
p14709
tp14710
Rp14711
ag2
(g6
S'\xde\x02'
p14712
tp14713
Rp14714
ag2
(g6
S'\xdf\x02'
p14715
tp14716
Rp14717
ag2
(g6
S'\xe0\x02'
p14718
tp14719
Rp14720
ag2
(g6
S'\xe1\x02'
p14721
tp14722
Rp14723
ag2
(g6
S'\x83\x04'
p14724
tp14725
Rp14726
ag2
(g6
S'\x84\x04'
p14727
tp14728
Rp14729
ag2
(g6
S'\x85\x04'
p14730
tp14731
Rp14732
ag2
(g6
S'\x86\x04'
p14733
tp14734
Rp14735
ag2
(g6
S'\x87\x04'
p14736
tp14737
Rp14738
ag2
(g6
S'\x88\x04'
p14739
tp14740
Rp14741
ag2
(g6
S'\x89\x04'
p14742
tp14743
Rp14744
ag2
(g6
S'\x8a\x04'
p14745
tp14746
Rp14747
ag2
(g6
S'\x8b\x04'
p14748
tp14749
Rp14750
ag2
(g6
S'\xa0\x04'
p14751
tp14752
Rp14753
ag2
(g6
S'\xa1\x04'
p14754
tp14755
Rp14756
ag2
(g6
S'\xa2\x04'
p14757
tp14758
Rp14759
ag2
(g6
S'\xa3\x04'
p14760
tp14761
Rp14762
ag2
(g6
S'\xa4\x04'
p14763
tp14764
Rp14765
ag2
(g6
S'\xa5\x04'
p14766
tp14767
Rp14768
ag2
(g6
S'\xa6\x04'
p14769
tp14770
Rp14771
ag2
(g6
S'\xa7\x04'
p14772
tp14773
Rp14774
ag2
(g6
S'\xa8\x04'
p14775
tp14776
Rp14777
ag2
(g6
S'\xa9\x04'
p14778
tp14779
Rp14780
ag2
(g6
S'\xbd\x04'
p14781
tp14782
Rp14783
ag2
(g6
S'\xbe\x04'
p14784
tp14785
Rp14786
ag2
(g6
S'\xbf\x04'
p14787
tp14788
Rp14789
ag2
(g6
S'\xc0\x04'
p14790
tp14791
Rp14792
ag2
(g6
S'\xc1\x04'
p14793
tp14794
Rp14795
ag2
(g6
S'\xc2\x04'
p14796
tp14797
Rp14798
ag2
(g6
S'\xc3\x04'
p14799
tp14800
Rp14801
ag2
(g6
S'\xc4\x04'
p14802
tp14803
Rp14804
ag2
(g6
S'\xc5\x04'
p14805
tp14806
Rp14807
ag2
(g6
S'\xc6\x04'
p14808
tp14809
Rp14810
ag2
(g6
S'\xd9\x04'
p14811
tp14812
Rp14813
ag2
(g6
S'\xda\x04'
p14814
tp14815
Rp14816
ag2
(g6
S'\xdb\x04'
p14817
tp14818
Rp14819
ag2
(g6
S'\xdc\x04'
p14820
tp14821
Rp14822
ag2
(g6
S'\xdd\x04'
p14823
tp14824
Rp14825
ag2
(g6
S'\xde\x04'
p14826
tp14827
Rp14828
ag2
(g6
S'\xdf\x04'
p14829
tp14830
Rp14831
ag2
(g6
S'\xe0\x04'
p14832
tp14833
Rp14834
ag2
(g6
S'\xe1\x04'
p14835
tp14836
Rp14837
ag2
(g6
S'\xf2\x04'
p14838
tp14839
Rp14840
ag2
(g6
S'\xf3\x04'
p14841
tp14842
Rp14843
ag2
(g6
S'\xf4\x04'
p14844
tp14845
Rp14846
ag2
(g6
S'\xf5\x04'
p14847
tp14848
Rp14849
ag2
(g6
S'\xf6\x04'
p14850
tp14851
Rp14852
ag2
(g6
S'\xf7\x04'
p14853
tp14854
Rp14855
ag2
(g6
S'\xf8\x04'
p14856
tp14857
Rp14858
ag2
(g6
S'\xf9\x04'
p14859
tp14860
Rp14861
ag2
(g6
S'\xfa\x04'
p14862
tp14863
Rp14864
ag2
(g6
S'\n\x05'
p14865
tp14866
Rp14867
ag2
(g6
S'\x0b\x05'
p14868
tp14869
Rp14870
ag2
(g6
S'\x0c\x05'
p14871
tp14872
Rp14873
ag2
(g6
S'\r\x05'
p14874
tp14875
Rp14876
ag2
(g6
S'\x0e\x05'
p14877
tp14878
Rp14879
ag2
(g6
S'\x0f\x05'
p14880
tp14881
Rp14882
ag2
(g6
S'\x10\x05'
p14883
tp14884
Rp14885
ag2
(g6
S'\x11\x05'
p14886
tp14887
Rp14888
ag2
(g6
S'\x12\x05'
p14889
tp14890
Rp14891
ag2
(g6
S'\x1a\x05'
p14892
tp14893
Rp14894
ag2
(g6
S'\x1b\x05'
p14895
tp14896
Rp14897
ag2
(g6
S'\x1c\x05'
p14898
tp14899
Rp14900
ag2
(g6
S'\x1d\x05'
p14901
tp14902
Rp14903
ag2
(g6
S'\x1e\x05'
p14904
tp14905
Rp14906
ag2
(g6
S'\x1f\x05'
p14907
tp14908
Rp14909
ag2
(g6
S' \x05'
p14910
tp14911
Rp14912
ag2
(g6
S'!\x05'
p14913
tp14914
Rp14915
ag2
(g6
S'"\x05'
p14916
tp14917
Rp14918
ag2
(g6
S"'\x05"
p14919
tp14920
Rp14921
ag2
(g6
S'(\x05'
p14922
tp14923
Rp14924
ag2
(g6
S')\x05'
p14925
tp14926
Rp14927
ag2
(g6
S'*\x05'
p14928
tp14929
Rp14930
ag2
(g6
S'+\x05'
p14931
tp14932
Rp14933
ag2
(g6
S',\x05'
p14934
tp14935
Rp14936
ag2
(g6
S'-\x05'
p14937
tp14938
Rp14939
ag2
(g6
S'.\x05'
p14940
tp14941
Rp14942
ag2
(g6
S'/\x05'
p14943
tp14944
Rp14945
ag2
(g6
S'1\x05'
p14946
tp14947
Rp14948
ag2
(g6
S'2\x05'
p14949
tp14950
Rp14951
ag2
(g6
S'3\x05'
p14952
tp14953
Rp14954
ag2
(g6
S'4\x05'
p14955
tp14956
Rp14957
ag2
(g6
S'5\x05'
p14958
tp14959
Rp14960
ag2
(g6
S'6\x05'
p14961
tp14962
Rp14963
ag2
(g6
S'7\x05'
p14964
tp14965
Rp14966
ag2
(g6
S'8\x05'
p14967
tp14968
Rp14969
ag2
(g6
S'9\x05'
p14970
tp14971
Rp14972
aa.